
nlcn.elf:     file format elf32-littlearm

Sections:
Idx Name          Size      VMA       LMA       File off  Algn
  0 .isr_vector   0000010c  08000000  08000000  00001000  2**0
                  CONTENTS, ALLOC, LOAD, READONLY, DATA
  1 .text         000082dc  08000110  08000110  00001110  2**4
                  CONTENTS, ALLOC, LOAD, READONLY, CODE
  2 .rodata       00002178  080083ec  080083ec  000093ec  2**2
                  CONTENTS, ALLOC, LOAD, READONLY, DATA
  3 .ARM.extab    00000000  0800a564  0800a564  0000c0b4  2**0
                  CONTENTS, READONLY
  4 .ARM          00000008  0800a564  0800a564  0000b564  2**2
                  CONTENTS, ALLOC, LOAD, READONLY, DATA
  5 .preinit_array 00000000  0800a56c  0800a56c  0000c0b4  2**0
                  CONTENTS, ALLOC, LOAD, DATA
  6 .init_array   00000004  0800a56c  0800a56c  0000b56c  2**2
                  CONTENTS, ALLOC, LOAD, READONLY, DATA
  7 .fini_array   00000004  0800a570  0800a570  0000b570  2**2
                  CONTENTS, ALLOC, LOAD, READONLY, DATA
  8 .data         000000b4  20000000  0800a574  0000c000  2**2
                  CONTENTS, ALLOC, LOAD, DATA
  9 .bss          00003a5c  200000b4  0800a628  0000c0b4  2**2
                  ALLOC
 10 ._user_heap_stack 00000600  20003b10  0800a628  0000cb10  2**0
                  ALLOC
 11 .ARM.attributes 00000029  00000000  00000000  0000c0b4  2**0
                  CONTENTS, READONLY
 12 .debug_info   00029130  00000000  00000000  0000c0dd  2**0
                  CONTENTS, READONLY, DEBUGGING, OCTETS
 13 .debug_abbrev 00004ae5  00000000  00000000  0003520d  2**0
                  CONTENTS, READONLY, DEBUGGING, OCTETS
 14 .debug_aranges 00001970  00000000  00000000  00039cf8  2**3
                  CONTENTS, READONLY, DEBUGGING, OCTETS
 15 .debug_macro  0001c794  00000000  00000000  0003b668  2**0
                  CONTENTS, READONLY, DEBUGGING, OCTETS
 16 .debug_line   00024f31  00000000  00000000  00057dfc  2**0
                  CONTENTS, READONLY, DEBUGGING, OCTETS
 17 .debug_str    0009e2e4  00000000  00000000  0007cd2d  2**0
                  CONTENTS, READONLY, DEBUGGING, OCTETS
 18 .comment      00000043  00000000  00000000  0011b011  2**0
                  CONTENTS, READONLY
 19 .debug_rnglists 00001721  00000000  00000000  0011b054  2**0
                  CONTENTS, READONLY, DEBUGGING, OCTETS
 20 .debug_frame  00005530  00000000  00000000  0011c778  2**2
                  CONTENTS, READONLY, DEBUGGING, OCTETS
 21 .debug_loclists 00012b58  00000000  00000000  00121ca8  2**0
                  CONTENTS, READONLY, DEBUGGING, OCTETS
 22 .debug_line_str 00000059  00000000  00000000  00134800  2**0
                  CONTENTS, READONLY, DEBUGGING, OCTETS

Disassembly of section .text:

08000110 <__do_global_dtors_aux>:
 8000110:	b510      	push	{r4, lr}
 8000112:	4c05      	ldr	r4, [pc, #20]	@ (8000128 <__do_global_dtors_aux+0x18>)
 8000114:	7823      	ldrb	r3, [r4, #0]
 8000116:	b933      	cbnz	r3, 8000126 <__do_global_dtors_aux+0x16>
 8000118:	4b04      	ldr	r3, [pc, #16]	@ (800012c <__do_global_dtors_aux+0x1c>)
 800011a:	b113      	cbz	r3, 8000122 <__do_global_dtors_aux+0x12>
 800011c:	4804      	ldr	r0, [pc, #16]	@ (8000130 <__do_global_dtors_aux+0x20>)
 800011e:	f3af 8000 	nop.w
 8000122:	2301      	movs	r3, #1
 8000124:	7023      	strb	r3, [r4, #0]
 8000126:	bd10      	pop	{r4, pc}
 8000128:	200000b4 	.word	0x200000b4
 800012c:	00000000 	.word	0x00000000
 8000130:	080083d4 	.word	0x080083d4

08000134 <frame_dummy>:
 8000134:	b508      	push	{r3, lr}
 8000136:	4b03      	ldr	r3, [pc, #12]	@ (8000144 <frame_dummy+0x10>)
 8000138:	b11b      	cbz	r3, 8000142 <frame_dummy+0xe>
 800013a:	4903      	ldr	r1, [pc, #12]	@ (8000148 <frame_dummy+0x14>)
 800013c:	4803      	ldr	r0, [pc, #12]	@ (800014c <frame_dummy+0x18>)
 800013e:	f3af 8000 	nop.w
 8000142:	bd08      	pop	{r3, pc}
 8000144:	00000000 	.word	0x00000000
 8000148:	200000b8 	.word	0x200000b8
 800014c:	080083d4 	.word	0x080083d4

08000150 <strlen>:
 8000150:	4603      	mov	r3, r0
 8000152:	f813 2b01 	ldrb.w	r2, [r3], #1
 8000156:	2a00      	cmp	r2, #0
 8000158:	d1fb      	bne.n	8000152 <strlen+0x2>
 800015a:	1a18      	subs	r0, r3, r0
 800015c:	3801      	subs	r0, #1
 800015e:	4770      	bx	lr

08000160 <vApplicationGetIdleTaskMemory>:
static StaticTask_t xIdleTaskTCBBuffer;
static StackType_t xIdleStack[configMINIMAL_STACK_SIZE];

void vApplicationGetIdleTaskMemory( StaticTask_t **ppxIdleTaskTCBBuffer, StackType_t **ppxIdleTaskStackBuffer, uint32_t *pulIdleTaskStackSize )
{
  *ppxIdleTaskTCBBuffer = &xIdleTaskTCBBuffer;
 8000160:	4b03      	ldr	r3, [pc, #12]	@ (8000170 <vApplicationGetIdleTaskMemory+0x10>)
 8000162:	6003      	str	r3, [r0, #0]
  *ppxIdleTaskStackBuffer = &xIdleStack[0];
 8000164:	4b03      	ldr	r3, [pc, #12]	@ (8000174 <vApplicationGetIdleTaskMemory+0x14>)
 8000166:	600b      	str	r3, [r1, #0]
  *pulIdleTaskStackSize = configMINIMAL_STACK_SIZE;
 8000168:	2380      	movs	r3, #128	@ 0x80
 800016a:	6013      	str	r3, [r2, #0]
  /* place for user code */
}
 800016c:	4770      	bx	lr
 800016e:	bf00      	nop
 8000170:	200002d0 	.word	0x200002d0
 8000174:	200000d0 	.word	0x200000d0

08000178 <DuckEngine_Render_Label>:
}

__weak void DuckEngineHanleInput() {
}

void DuckEngine_Render_Label(DuckObject *obj) {
 8000178:	b510      	push	{r4, lr}
 800017a:	b084      	sub	sp, #16
    DuckLabel *lb = (DuckLabel*) obj;
    duckDriver->WriteString(lb->base.x, lb->base.y, lb->text, *(lb->font), lb->color, lb->bgcolor);
 800017c:	4b09      	ldr	r3, [pc, #36]	@ (80001a4 <DuckEngine_Render_Label+0x2c>)
 800017e:	681b      	ldr	r3, [r3, #0]
 8000180:	6adc      	ldr	r4, [r3, #44]	@ 0x2c
 8000182:	6cc3      	ldr	r3, [r0, #76]	@ 0x4c
 8000184:	f8b0 2048 	ldrh.w	r2, [r0, #72]	@ 0x48
 8000188:	9202      	str	r2, [sp, #8]
 800018a:	f8b0 2046 	ldrh.w	r2, [r0, #70]	@ 0x46
 800018e:	9201      	str	r2, [sp, #4]
 8000190:	685a      	ldr	r2, [r3, #4]
 8000192:	9200      	str	r2, [sp, #0]
 8000194:	681b      	ldr	r3, [r3, #0]
 8000196:	f100 0214 	add.w	r2, r0, #20
 800019a:	8841      	ldrh	r1, [r0, #2]
 800019c:	8800      	ldrh	r0, [r0, #0]
 800019e:	47a0      	blx	r4
}
 80001a0:	b004      	add	sp, #16
 80001a2:	bd10      	pop	{r4, pc}
 80001a4:	20000010 	.word	0x20000010

080001a8 <DuckEngine_Render_Button>:
    strncpy(label->text, text, sizeof(label->text) - 1);
    label->text[sizeof(label->text) - 1] = '\0';
    label->base.isNeedUpdate = 1;
}

void DuckEngine_Render_Button(DuckObject *obj) {
 80001a8:	b530      	push	{r4, r5, lr}
 80001aa:	b083      	sub	sp, #12
 80001ac:	4604      	mov	r4, r0
    DuckButton *btn = (DuckButton*) obj;
    duckDriver->DrawFilledRoundedRect(btn->base.x, btn->base.y, btn->base.w, btn->base.h, btn->radius, btn->color);
 80001ae:	4b0a      	ldr	r3, [pc, #40]	@ (80001d8 <DuckEngine_Render_Button+0x30>)
 80001b0:	681b      	ldr	r3, [r3, #0]
 80001b2:	691d      	ldr	r5, [r3, #16]
 80001b4:	7e03      	ldrb	r3, [r0, #24]
 80001b6:	8ac2      	ldrh	r2, [r0, #22]
 80001b8:	9201      	str	r2, [sp, #4]
 80001ba:	9300      	str	r3, [sp, #0]
 80001bc:	88c3      	ldrh	r3, [r0, #6]
 80001be:	8882      	ldrh	r2, [r0, #4]
 80001c0:	8841      	ldrh	r1, [r0, #2]
 80001c2:	8800      	ldrh	r0, [r0, #0]
 80001c4:	47a8      	blx	r5
    if (btn->label != NULL) {
 80001c6:	69e0      	ldr	r0, [r4, #28]
 80001c8:	b120      	cbz	r0, 80001d4 <DuckEngine_Render_Button+0x2c>
        btn->label->base.Render((DuckObject*) btn->label);
 80001ca:	68c3      	ldr	r3, [r0, #12]
 80001cc:	4798      	blx	r3
        btn->label->base.isNeedUpdate = 0;
 80001ce:	69e3      	ldr	r3, [r4, #28]
 80001d0:	2200      	movs	r2, #0
 80001d2:	725a      	strb	r2, [r3, #9]
    }
}
 80001d4:	b003      	add	sp, #12
 80001d6:	bd30      	pop	{r4, r5, pc}
 80001d8:	20000010 	.word	0x20000010

080001dc <DuckEngine_BindDriver>:
    duckDriver = driver;
 80001dc:	4b01      	ldr	r3, [pc, #4]	@ (80001e4 <DuckEngine_BindDriver+0x8>)
 80001de:	6018      	str	r0, [r3, #0]
}
 80001e0:	4770      	bx	lr
 80001e2:	bf00      	nop
 80001e4:	20000010 	.word	0x20000010

080001e8 <DuckEngine_Init_Page>:
    page->n = 0;
 80001e8:	2300      	movs	r3, #0
 80001ea:	f880 312c 	strb.w	r3, [r0, #300]	@ 0x12c
    page->n_nav = 0;
 80001ee:	f880 312d 	strb.w	r3, [r0, #301]	@ 0x12d
    page->currentNav = 0;
 80001f2:	f880 312e 	strb.w	r3, [r0, #302]	@ 0x12e
    page->type = type;
 80001f6:	f880 112f 	strb.w	r1, [r0, #303]	@ 0x12f
    for (uint8_t i = 0; i < MAX_OBJECT; i++) {
 80001fa:	e00a      	b.n	8000212 <DuckEngine_Init_Page+0x2a>
        page->Object[i] = NULL;
 80001fc:	1d1a      	adds	r2, r3, #4
 80001fe:	eb00 0282 	add.w	r2, r0, r2, lsl #2
 8000202:	2100      	movs	r1, #0
 8000204:	6051      	str	r1, [r2, #4]
        page->Nav[i] = NULL;
 8000206:	f103 0228 	add.w	r2, r3, #40	@ 0x28
 800020a:	f840 1022 	str.w	r1, [r0, r2, lsl #2]
    for (uint8_t i = 0; i < MAX_OBJECT; i++) {
 800020e:	3301      	adds	r3, #1
 8000210:	b2db      	uxtb	r3, r3
 8000212:	2b22      	cmp	r3, #34	@ 0x22
 8000214:	d9f2      	bls.n	80001fc <DuckEngine_Init_Page+0x14>
    ListPage[PageIndex++] = page;
 8000216:	4a04      	ldr	r2, [pc, #16]	@ (8000228 <DuckEngine_Init_Page+0x40>)
 8000218:	7813      	ldrb	r3, [r2, #0]
 800021a:	1c59      	adds	r1, r3, #1
 800021c:	7011      	strb	r1, [r2, #0]
 800021e:	4a03      	ldr	r2, [pc, #12]	@ (800022c <DuckEngine_Init_Page+0x44>)
 8000220:	f842 0023 	str.w	r0, [r2, r3, lsl #2]
}
 8000224:	4770      	bx	lr
 8000226:	bf00      	nop
 8000228:	20000373 	.word	0x20000373
 800022c:	20000374 	.word	0x20000374

08000230 <DuckEngine_Add2Page>:
    if (page == NULL) return;
 8000230:	4684      	mov	ip, r0
 8000232:	b188      	cbz	r0, 8000258 <DuckEngine_Add2Page+0x28>
    page->Object[page->n++] = obj;
 8000234:	f890 312c 	ldrb.w	r3, [r0, #300]	@ 0x12c
 8000238:	1c58      	adds	r0, r3, #1
 800023a:	f88c 012c 	strb.w	r0, [ip, #300]	@ 0x12c
 800023e:	3304      	adds	r3, #4
 8000240:	eb0c 0383 	add.w	r3, ip, r3, lsl #2
 8000244:	6059      	str	r1, [r3, #4]
    if (isNav) {
 8000246:	b13a      	cbz	r2, 8000258 <DuckEngine_Add2Page+0x28>
        page->Nav[page->n_nav++] = obj;
 8000248:	f89c 312d 	ldrb.w	r3, [ip, #301]	@ 0x12d
 800024c:	1c5a      	adds	r2, r3, #1
 800024e:	f88c 212d 	strb.w	r2, [ip, #301]	@ 0x12d
 8000252:	3328      	adds	r3, #40	@ 0x28
 8000254:	f84c 1023 	str.w	r1, [ip, r3, lsl #2]
}
 8000258:	4770      	bx	lr
	...

0800025c <DuckEngine_Get_CurrentPage>:
    if (currentPageIndex >= PageIndex) return NULL;
 800025c:	4b05      	ldr	r3, [pc, #20]	@ (8000274 <DuckEngine_Get_CurrentPage+0x18>)
 800025e:	781b      	ldrb	r3, [r3, #0]
 8000260:	4a05      	ldr	r2, [pc, #20]	@ (8000278 <DuckEngine_Get_CurrentPage+0x1c>)
 8000262:	7812      	ldrb	r2, [r2, #0]
 8000264:	4293      	cmp	r3, r2
 8000266:	d203      	bcs.n	8000270 <DuckEngine_Get_CurrentPage+0x14>
    return ListPage[currentPageIndex];
 8000268:	4a04      	ldr	r2, [pc, #16]	@ (800027c <DuckEngine_Get_CurrentPage+0x20>)
 800026a:	f852 0023 	ldr.w	r0, [r2, r3, lsl #2]
 800026e:	4770      	bx	lr
    if (currentPageIndex >= PageIndex) return NULL;
 8000270:	2000      	movs	r0, #0
}
 8000272:	4770      	bx	lr
 8000274:	20000370 	.word	0x20000370
 8000278:	20000373 	.word	0x20000373
 800027c:	20000374 	.word	0x20000374

08000280 <DuckEngine_Clear_Screen>:
void DuckEngine_Clear_Screen() {
 8000280:	b508      	push	{r3, lr}
    duckDriver->FillScreen(BLACK);
 8000282:	4b03      	ldr	r3, [pc, #12]	@ (8000290 <DuckEngine_Clear_Screen+0x10>)
 8000284:	681b      	ldr	r3, [r3, #0]
 8000286:	6b5b      	ldr	r3, [r3, #52]	@ 0x34
 8000288:	2000      	movs	r0, #0
 800028a:	4798      	blx	r3
}
 800028c:	bd08      	pop	{r3, pc}
 800028e:	bf00      	nop
 8000290:	20000010 	.word	0x20000010

08000294 <DuckEngine_Refresh_Screen>:
void DuckEngine_Refresh_Screen() {
 8000294:	b508      	push	{r3, lr}
    DuckEngine_Clear_Screen();
 8000296:	f7ff fff3 	bl	8000280 <DuckEngine_Clear_Screen>
    DuckEngine_Draw_Header();
 800029a:	f000 fd39 	bl	8000d10 <DuckEngine_Draw_Header>
    DuckEngine_Draw_Footer();
 800029e:	f000 fd49 	bl	8000d34 <DuckEngine_Draw_Footer>
}
 80002a2:	bd08      	pop	{r3, pc}

080002a4 <DuckEngine_Set_StartUpPage>:
void DuckEngine_Set_StartUpPage(DuckPage *page) {
 80002a4:	b508      	push	{r3, lr}
    page->pre = PAGE_NONE;
 80002a6:	2300      	movs	r3, #0
 80002a8:	f880 3130 	strb.w	r3, [r0, #304]	@ 0x130
    DuckEngine_Refresh_Screen();
 80002ac:	f7ff fff2 	bl	8000294 <DuckEngine_Refresh_Screen>
}
 80002b0:	bd08      	pop	{r3, pc}

080002b2 <DuckEngine_Render>:
void DuckEngine_Render() {
 80002b2:	b570      	push	{r4, r5, r6, lr}
    DuckPage *page = DuckEngine_Get_CurrentPage();
 80002b4:	f7ff ffd2 	bl	800025c <DuckEngine_Get_CurrentPage>
 80002b8:	4606      	mov	r6, r0
    for (uint8_t i = 0; i < page->n; i++) {
 80002ba:	2400      	movs	r4, #0
 80002bc:	e001      	b.n	80002c2 <DuckEngine_Render+0x10>
 80002be:	3401      	adds	r4, #1
 80002c0:	b2e4      	uxtb	r4, r4
 80002c2:	f896 312c 	ldrb.w	r3, [r6, #300]	@ 0x12c
 80002c6:	42a3      	cmp	r3, r4
 80002c8:	d90c      	bls.n	80002e4 <DuckEngine_Render+0x32>
        DuckObject *obj = page->Object[i];
 80002ca:	1d23      	adds	r3, r4, #4
 80002cc:	eb06 0383 	add.w	r3, r6, r3, lsl #2
 80002d0:	685d      	ldr	r5, [r3, #4]
        if (obj->isNeedUpdate == 1) {
 80002d2:	7a6b      	ldrb	r3, [r5, #9]
 80002d4:	2b01      	cmp	r3, #1
 80002d6:	d1f2      	bne.n	80002be <DuckEngine_Render+0xc>
            obj->Render(obj);
 80002d8:	68eb      	ldr	r3, [r5, #12]
 80002da:	4628      	mov	r0, r5
 80002dc:	4798      	blx	r3
            obj->isNeedUpdate = 0;
 80002de:	2300      	movs	r3, #0
 80002e0:	726b      	strb	r3, [r5, #9]
 80002e2:	e7ec      	b.n	80002be <DuckEngine_Render+0xc>
}
 80002e4:	bd70      	pop	{r4, r5, r6, pc}
	...

080002e8 <DuckEngine_Create_Label>:
DuckObject* DuckEngine_Create_Label(uint16_t x, uint16_t y, char *text, FontDef *font, uint16_t color, uint16_t bgcolor, DuckPage *page, uint8_t isNav) {
 80002e8:	e92d 43f8 	stmdb	sp!, {r3, r4, r5, r6, r7, r8, r9, lr}
 80002ec:	460d      	mov	r5, r1
 80002ee:	4611      	mov	r1, r2
 80002f0:	4698      	mov	r8, r3
    DuckLabel *lb = &ListLabel[LabelIndex++];
 80002f2:	4b1d      	ldr	r3, [pc, #116]	@ (8000368 <DuckEngine_Create_Label+0x80>)
 80002f4:	781e      	ldrb	r6, [r3, #0]
 80002f6:	1c72      	adds	r2, r6, #1
 80002f8:	701a      	strb	r2, [r3, #0]
 80002fa:	eb06 0486 	add.w	r4, r6, r6, lsl #2
 80002fe:	0123      	lsls	r3, r4, #4
 8000300:	4f1a      	ldr	r7, [pc, #104]	@ (800036c <DuckEngine_Create_Label+0x84>)
 8000302:	eb07 1404 	add.w	r4, r7, r4, lsl #4
    lb->base.type = DUCK_TYPE_LABEL;
 8000306:	2202      	movs	r2, #2
 8000308:	7222      	strb	r2, [r4, #8]
    lb->base.isNeedUpdate = 1;
 800030a:	2201      	movs	r2, #1
 800030c:	7262      	strb	r2, [r4, #9]
    lb->base.x = x;
 800030e:	52f8      	strh	r0, [r7, r3]
    lb->base.y = y;
 8000310:	8065      	strh	r5, [r4, #2]
    strncpy(lb->text, text, MAX_TEXT_LEN);
 8000312:	461d      	mov	r5, r3
 8000314:	3510      	adds	r5, #16
 8000316:	443d      	add	r5, r7
 8000318:	3504      	adds	r5, #4
 800031a:	2232      	movs	r2, #50	@ 0x32
 800031c:	4628      	mov	r0, r5
 800031e:	f007 f92c 	bl	800757a <strncpy>
    lb->text[MAX_TEXT_LEN - 1] = '\0';
 8000322:	2300      	movs	r3, #0
 8000324:	f884 3045 	strb.w	r3, [r4, #69]	@ 0x45
    lb->base.w = strlen(lb->text) * font->width;
 8000328:	4628      	mov	r0, r5
 800032a:	f7ff ff11 	bl	8000150 <strlen>
 800032e:	f898 3000 	ldrb.w	r3, [r8]
 8000332:	fb00 f303 	mul.w	r3, r0, r3
 8000336:	80a3      	strh	r3, [r4, #4]
    lb->base.h = font->height;
 8000338:	f898 3001 	ldrb.w	r3, [r8, #1]
 800033c:	80e3      	strh	r3, [r4, #6]
    lb->font = font;
 800033e:	f8c4 804c 	str.w	r8, [r4, #76]	@ 0x4c
    lb->color = color;
 8000342:	f8bd 3020 	ldrh.w	r3, [sp, #32]
 8000346:	f8a4 3046 	strh.w	r3, [r4, #70]	@ 0x46
    lb->bgcolor = bgcolor;
 800034a:	f8bd 3024 	ldrh.w	r3, [sp, #36]	@ 0x24
 800034e:	f8a4 3048 	strh.w	r3, [r4, #72]	@ 0x48
    lb->base.Render = DuckEngine_Render_Label;
 8000352:	4b07      	ldr	r3, [pc, #28]	@ (8000370 <DuckEngine_Create_Label+0x88>)
 8000354:	60e3      	str	r3, [r4, #12]
    DuckEngine_Add2Page(page, (DuckObject*) lb, isNav);
 8000356:	f89d 202c 	ldrb.w	r2, [sp, #44]	@ 0x2c
 800035a:	4621      	mov	r1, r4
 800035c:	980a      	ldr	r0, [sp, #40]	@ 0x28
 800035e:	f7ff ff67 	bl	8000230 <DuckEngine_Add2Page>
}
 8000362:	4620      	mov	r0, r4
 8000364:	e8bd 83f8 	ldmia.w	sp!, {r3, r4, r5, r6, r7, r8, r9, pc}
 8000368:	20000371 	.word	0x20000371
 800036c:	20000400 	.word	0x20000400
 8000370:	08000179 	.word	0x08000179

08000374 <DuckEngine_Create_Button>:

DuckObject* DuckEngine_Create_Button(uint16_t x, uint16_t y, uint16_t w, uint16_t h, char *label, LabelDirection label_dir, FontDef *font, uint16_t label_color, uint8_t btn_radius, uint16_t btn_color, DuckPage *page, uint8_t isNav, void (*onPressed)(DuckObject*)) {
 8000374:	e92d 4ff0 	stmdb	sp!, {r4, r5, r6, r7, r8, r9, sl, fp, lr}
 8000378:	b087      	sub	sp, #28
 800037a:	9002      	str	r0, [sp, #8]
 800037c:	9103      	str	r1, [sp, #12]
 800037e:	4691      	mov	r9, r2
 8000380:	9301      	str	r3, [sp, #4]
 8000382:	f89d 4044 	ldrb.w	r4, [sp, #68]	@ 0x44
 8000386:	9404      	str	r4, [sp, #16]
 8000388:	f8bd a054 	ldrh.w	sl, [sp, #84]	@ 0x54
    DuckLabel *lb = &ListLabel[LabelIndex++];
 800038c:	4b7e      	ldr	r3, [pc, #504]	@ (8000588 <DuckEngine_Create_Button+0x214>)
 800038e:	781e      	ldrb	r6, [r3, #0]
 8000390:	1c72      	adds	r2, r6, #1
 8000392:	701a      	strb	r2, [r3, #0]
 8000394:	eb06 0786 	add.w	r7, r6, r6, lsl #2
 8000398:	4b7c      	ldr	r3, [pc, #496]	@ (800058c <DuckEngine_Create_Button+0x218>)
 800039a:	eb03 1707 	add.w	r7, r3, r7, lsl #4
    DuckButton *btn = &ListButton[ButtonIndex++];
 800039e:	4a7c      	ldr	r2, [pc, #496]	@ (8000590 <DuckEngine_Create_Button+0x21c>)
 80003a0:	f892 8000 	ldrb.w	r8, [r2]
 80003a4:	f108 0101 	add.w	r1, r8, #1
 80003a8:	7011      	strb	r1, [r2, #0]
 80003aa:	ea4f 1c48 	mov.w	ip, r8, lsl #5
 80003ae:	f8cd c014 	str.w	ip, [sp, #20]
 80003b2:	f8df b1e0 	ldr.w	fp, [pc, #480]	@ 8000594 <DuckEngine_Create_Button+0x220>
 80003b6:	eb0b 1448 	add.w	r4, fp, r8, lsl #5
    strncpy(lb->text, label, MAX_TEXT_LEN);
 80003ba:	eb06 0586 	add.w	r5, r6, r6, lsl #2
 80003be:	012d      	lsls	r5, r5, #4
 80003c0:	3510      	adds	r5, #16
 80003c2:	441d      	add	r5, r3
 80003c4:	3504      	adds	r5, #4
 80003c6:	2232      	movs	r2, #50	@ 0x32
 80003c8:	9910      	ldr	r1, [sp, #64]	@ 0x40
 80003ca:	4628      	mov	r0, r5
 80003cc:	f007 f8d5 	bl	800757a <strncpy>
    lb->font = font;
 80003d0:	f8dd e048 	ldr.w	lr, [sp, #72]	@ 0x48
 80003d4:	f8c7 e04c 	str.w	lr, [r7, #76]	@ 0x4c
    lb->base.type = DUCK_TYPE_LABEL;
 80003d8:	2302      	movs	r3, #2
 80003da:	723b      	strb	r3, [r7, #8]
    lb->base.isNeedUpdate = 1;
 80003dc:	2301      	movs	r3, #1
 80003de:	727b      	strb	r3, [r7, #9]
    lb->color = label_color;
 80003e0:	f8bd 204c 	ldrh.w	r2, [sp, #76]	@ 0x4c
 80003e4:	f8a7 2046 	strh.w	r2, [r7, #70]	@ 0x46
    lb->bgcolor = btn_color;
 80003e8:	f8a7 a048 	strh.w	sl, [r7, #72]	@ 0x48
    lb->base.Render = DuckEngine_Render_Label;
 80003ec:	4a6a      	ldr	r2, [pc, #424]	@ (8000598 <DuckEngine_Create_Button+0x224>)
 80003ee:	60fa      	str	r2, [r7, #12]
    btn->base.type = DUCK_TYPE_BUTTON;
 80003f0:	7223      	strb	r3, [r4, #8]
    btn->base.isNeedUpdate = 1;
 80003f2:	7263      	strb	r3, [r4, #9]
    btn->base.x = x;
 80003f4:	f8dd c014 	ldr.w	ip, [sp, #20]
 80003f8:	9a02      	ldr	r2, [sp, #8]
 80003fa:	f82b 200c 	strh.w	r2, [fp, ip]
    btn->base.y = y;
 80003fe:	9a03      	ldr	r2, [sp, #12]
 8000400:	8062      	strh	r2, [r4, #2]
    btn->base.w = w;
 8000402:	f8a4 9004 	strh.w	r9, [r4, #4]
    btn->base.h = h;
 8000406:	9b01      	ldr	r3, [sp, #4]
 8000408:	80e3      	strh	r3, [r4, #6]
    btn->radius = btn_radius;
 800040a:	f89d 3050 	ldrb.w	r3, [sp, #80]	@ 0x50
 800040e:	7623      	strb	r3, [r4, #24]
    btn->color = btn_color;
 8000410:	f8a4 a016 	strh.w	sl, [r4, #22]
    btn->base.Callback = onPressed;
 8000414:	9b18      	ldr	r3, [sp, #96]	@ 0x60
 8000416:	6123      	str	r3, [r4, #16]
    btn->base.Render = DuckEngine_Render_Button;
 8000418:	4b60      	ldr	r3, [pc, #384]	@ (800059c <DuckEngine_Create_Button+0x228>)
 800041a:	60e3      	str	r3, [r4, #12]
    uint8_t text_w = font->width * strlen(lb->text);
 800041c:	f89e a000 	ldrb.w	sl, [lr]
 8000420:	4628      	mov	r0, r5
 8000422:	f7ff fe95 	bl	8000150 <strlen>
 8000426:	fb00 fa0a 	mul.w	sl, r0, sl
 800042a:	fa5f fa8a 	uxtb.w	sl, sl
    uint8_t text_h = font->height;
 800042e:	9b12      	ldr	r3, [sp, #72]	@ 0x48
 8000430:	785b      	ldrb	r3, [r3, #1]
    if (text_w + 4 > btn->base.w) btn->base.w = text_w + 4;
 8000432:	f10a 0203 	add.w	r2, sl, #3
 8000436:	454a      	cmp	r2, r9
 8000438:	db02      	blt.n	8000440 <DuckEngine_Create_Button+0xcc>
 800043a:	f10a 0104 	add.w	r1, sl, #4
 800043e:	80a1      	strh	r1, [r4, #4]
    if (text_h + 2 > btn->base.h) btn->base.h = text_h + 2;
 8000440:	1c5a      	adds	r2, r3, #1
 8000442:	9901      	ldr	r1, [sp, #4]
 8000444:	428a      	cmp	r2, r1
 8000446:	db04      	blt.n	8000452 <DuckEngine_Create_Button+0xde>
 8000448:	1c99      	adds	r1, r3, #2
 800044a:	4a52      	ldr	r2, [pc, #328]	@ (8000594 <DuckEngine_Create_Button+0x220>)
 800044c:	eb02 1248 	add.w	r2, r2, r8, lsl #5
 8000450:	80d1      	strh	r1, [r2, #6]
    switch (label_dir) {
 8000452:	9904      	ldr	r1, [sp, #16]
 8000454:	2903      	cmp	r1, #3
 8000456:	d879      	bhi.n	800054c <DuckEngine_Create_Button+0x1d8>
 8000458:	e8df f001 	tbb	[pc, r1]
 800045c:	5b432602 	.word	0x5b432602
        case LABEL_LEFT:
            lb->base.x = btn->base.x + 1;
 8000460:	9802      	ldr	r0, [sp, #8]
 8000462:	3001      	adds	r0, #1
 8000464:	4949      	ldr	r1, [pc, #292]	@ (800058c <DuckEngine_Create_Button+0x218>)
 8000466:	eb06 0286 	add.w	r2, r6, r6, lsl #2
 800046a:	0112      	lsls	r2, r2, #4
 800046c:	5288      	strh	r0, [r1, r2]
            lb->base.y = btn->base.y + (btn->base.h - text_h) / 2;
 800046e:	4a49      	ldr	r2, [pc, #292]	@ (8000594 <DuckEngine_Create_Button+0x220>)
 8000470:	eb02 1248 	add.w	r2, r2, r8, lsl #5
 8000474:	88d2      	ldrh	r2, [r2, #6]
 8000476:	1ad3      	subs	r3, r2, r3
 8000478:	eb03 73d3 	add.w	r3, r3, r3, lsr #31
 800047c:	9a03      	ldr	r2, [sp, #12]
 800047e:	eb02 0363 	add.w	r3, r2, r3, asr #1
 8000482:	eb06 0686 	add.w	r6, r6, r6, lsl #2
 8000486:	eb01 1106 	add.w	r1, r1, r6, lsl #4
 800048a:	804b      	strh	r3, [r1, #2]
        default:
            lb->base.x = btn->base.x + (btn->base.w - text_w) / 2;
            lb->base.y = btn->base.y + (btn->base.h - text_h) / 2;
            break;
    }
    btn->label = lb;
 800048c:	4b41      	ldr	r3, [pc, #260]	@ (8000594 <DuckEngine_Create_Button+0x220>)
 800048e:	eb03 1348 	add.w	r3, r3, r8, lsl #5
 8000492:	61df      	str	r7, [r3, #28]
    DuckEngine_Add2Page(page, (DuckObject*) btn, isNav);
 8000494:	f89d 205c 	ldrb.w	r2, [sp, #92]	@ 0x5c
 8000498:	4621      	mov	r1, r4
 800049a:	9816      	ldr	r0, [sp, #88]	@ 0x58
 800049c:	f7ff fec8 	bl	8000230 <DuckEngine_Add2Page>
    return (DuckObject*) btn;
}
 80004a0:	4620      	mov	r0, r4
 80004a2:	b007      	add	sp, #28
 80004a4:	e8bd 8ff0 	ldmia.w	sp!, {r4, r5, r6, r7, r8, r9, sl, fp, pc}
            lb->base.x = btn->base.x + btn->base.w - text_w - 1;
 80004a8:	493a      	ldr	r1, [pc, #232]	@ (8000594 <DuckEngine_Create_Button+0x220>)
 80004aa:	eb01 1148 	add.w	r1, r1, r8, lsl #5
 80004ae:	888a      	ldrh	r2, [r1, #4]
 80004b0:	9802      	ldr	r0, [sp, #8]
 80004b2:	4402      	add	r2, r0
 80004b4:	b292      	uxth	r2, r2
 80004b6:	eba2 020a 	sub.w	r2, r2, sl
 80004ba:	b292      	uxth	r2, r2
 80004bc:	3a01      	subs	r2, #1
 80004be:	4833      	ldr	r0, [pc, #204]	@ (800058c <DuckEngine_Create_Button+0x218>)
 80004c0:	eb06 0586 	add.w	r5, r6, r6, lsl #2
 80004c4:	012d      	lsls	r5, r5, #4
 80004c6:	5342      	strh	r2, [r0, r5]
            lb->base.y = btn->base.y + (btn->base.h - text_h) / 2;
 80004c8:	88ca      	ldrh	r2, [r1, #6]
 80004ca:	1ad3      	subs	r3, r2, r3
 80004cc:	eb03 73d3 	add.w	r3, r3, r3, lsr #31
 80004d0:	9a03      	ldr	r2, [sp, #12]
 80004d2:	eb02 0363 	add.w	r3, r2, r3, asr #1
 80004d6:	eb06 0686 	add.w	r6, r6, r6, lsl #2
 80004da:	eb00 1006 	add.w	r0, r0, r6, lsl #4
 80004de:	8043      	strh	r3, [r0, #2]
            break;
 80004e0:	e7d4      	b.n	800048c <DuckEngine_Create_Button+0x118>
            lb->base.x = btn->base.x + (btn->base.w - text_w) / 2;
 80004e2:	4b2c      	ldr	r3, [pc, #176]	@ (8000594 <DuckEngine_Create_Button+0x220>)
 80004e4:	eb03 1348 	add.w	r3, r3, r8, lsl #5
 80004e8:	889b      	ldrh	r3, [r3, #4]
 80004ea:	eba3 030a 	sub.w	r3, r3, sl
 80004ee:	eb03 73d3 	add.w	r3, r3, r3, lsr #31
 80004f2:	9a02      	ldr	r2, [sp, #8]
 80004f4:	eb02 0363 	add.w	r3, r2, r3, asr #1
 80004f8:	4a24      	ldr	r2, [pc, #144]	@ (800058c <DuckEngine_Create_Button+0x218>)
 80004fa:	eb06 0186 	add.w	r1, r6, r6, lsl #2
 80004fe:	0109      	lsls	r1, r1, #4
 8000500:	5253      	strh	r3, [r2, r1]
            lb->base.y = btn->base.y + 1;
 8000502:	9b03      	ldr	r3, [sp, #12]
 8000504:	3301      	adds	r3, #1
 8000506:	eb06 0686 	add.w	r6, r6, r6, lsl #2
 800050a:	eb02 1206 	add.w	r2, r2, r6, lsl #4
 800050e:	8053      	strh	r3, [r2, #2]
            break;
 8000510:	e7bc      	b.n	800048c <DuckEngine_Create_Button+0x118>
            lb->base.x = btn->base.x + (btn->base.w - text_w) / 2;
 8000512:	4820      	ldr	r0, [pc, #128]	@ (8000594 <DuckEngine_Create_Button+0x220>)
 8000514:	eb00 1048 	add.w	r0, r0, r8, lsl #5
 8000518:	8882      	ldrh	r2, [r0, #4]
 800051a:	eba2 020a 	sub.w	r2, r2, sl
 800051e:	eb02 72d2 	add.w	r2, r2, r2, lsr #31
 8000522:	9902      	ldr	r1, [sp, #8]
 8000524:	eb01 0262 	add.w	r2, r1, r2, asr #1
 8000528:	4918      	ldr	r1, [pc, #96]	@ (800058c <DuckEngine_Create_Button+0x218>)
 800052a:	eb06 0586 	add.w	r5, r6, r6, lsl #2
 800052e:	012d      	lsls	r5, r5, #4
 8000530:	534a      	strh	r2, [r1, r5]
            lb->base.y = btn->base.y + btn->base.h - text_h - 1;
 8000532:	88c2      	ldrh	r2, [r0, #6]
 8000534:	9803      	ldr	r0, [sp, #12]
 8000536:	4402      	add	r2, r0
 8000538:	b292      	uxth	r2, r2
 800053a:	1ad3      	subs	r3, r2, r3
 800053c:	b29b      	uxth	r3, r3
 800053e:	3b01      	subs	r3, #1
 8000540:	eb06 0686 	add.w	r6, r6, r6, lsl #2
 8000544:	eb01 1106 	add.w	r1, r1, r6, lsl #4
 8000548:	804b      	strh	r3, [r1, #2]
            break;
 800054a:	e79f      	b.n	800048c <DuckEngine_Create_Button+0x118>
            lb->base.x = btn->base.x + (btn->base.w - text_w) / 2;
 800054c:	4811      	ldr	r0, [pc, #68]	@ (8000594 <DuckEngine_Create_Button+0x220>)
 800054e:	eb00 1048 	add.w	r0, r0, r8, lsl #5
 8000552:	8882      	ldrh	r2, [r0, #4]
 8000554:	eba2 020a 	sub.w	r2, r2, sl
 8000558:	eb02 72d2 	add.w	r2, r2, r2, lsr #31
 800055c:	9902      	ldr	r1, [sp, #8]
 800055e:	eb01 0262 	add.w	r2, r1, r2, asr #1
 8000562:	490a      	ldr	r1, [pc, #40]	@ (800058c <DuckEngine_Create_Button+0x218>)
 8000564:	eb06 0586 	add.w	r5, r6, r6, lsl #2
 8000568:	012d      	lsls	r5, r5, #4
 800056a:	534a      	strh	r2, [r1, r5]
            lb->base.y = btn->base.y + (btn->base.h - text_h) / 2;
 800056c:	88c2      	ldrh	r2, [r0, #6]
 800056e:	1ad3      	subs	r3, r2, r3
 8000570:	eb03 73d3 	add.w	r3, r3, r3, lsr #31
 8000574:	9a03      	ldr	r2, [sp, #12]
 8000576:	eb02 0363 	add.w	r3, r2, r3, asr #1
 800057a:	eb06 0686 	add.w	r6, r6, r6, lsl #2
 800057e:	eb01 1106 	add.w	r1, r1, r6, lsl #4
 8000582:	804b      	strh	r3, [r1, #2]
            break;
 8000584:	e782      	b.n	800048c <DuckEngine_Create_Button+0x118>
 8000586:	bf00      	nop
 8000588:	20000371 	.word	0x20000371
 800058c:	20000400 	.word	0x20000400
 8000590:	20000372 	.word	0x20000372
 8000594:	20000ef0 	.word	0x20000ef0
 8000598:	08000179 	.word	0x08000179
 800059c:	080001a9 	.word	0x080001a9

080005a0 <DuckEngine_Select_Object>:
            DuckEngine_Create_Image(x, y, w, h, icon_data, page, isNav);
        }
    }
}

void DuckEngine_Select_Object(DuckObject *obj) {
 80005a0:	b530      	push	{r4, r5, lr}
 80005a2:	b083      	sub	sp, #12
 80005a4:	4603      	mov	r3, r0
    duckDriver->DrawRectangle(obj->x, obj->y, obj->x + obj->w, obj->y + obj->h, GREEN);
 80005a6:	4a08      	ldr	r2, [pc, #32]	@ (80005c8 <DuckEngine_Select_Object+0x28>)
 80005a8:	6812      	ldr	r2, [r2, #0]
 80005aa:	6894      	ldr	r4, [r2, #8]
 80005ac:	8800      	ldrh	r0, [r0, #0]
 80005ae:	8859      	ldrh	r1, [r3, #2]
 80005b0:	889a      	ldrh	r2, [r3, #4]
 80005b2:	88db      	ldrh	r3, [r3, #6]
 80005b4:	440b      	add	r3, r1
 80005b6:	4402      	add	r2, r0
 80005b8:	f44f 65fc 	mov.w	r5, #2016	@ 0x7e0
 80005bc:	9500      	str	r5, [sp, #0]
 80005be:	b29b      	uxth	r3, r3
 80005c0:	b292      	uxth	r2, r2
 80005c2:	47a0      	blx	r4
}
 80005c4:	b003      	add	sp, #12
 80005c6:	bd30      	pop	{r4, r5, pc}
 80005c8:	20000010 	.word	0x20000010

080005cc <DuckEngine_Set_CurrentPage>:
void DuckEngine_Set_CurrentPage(PageTypeDef pre, PageTypeDef next) {
 80005cc:	b538      	push	{r3, r4, r5, lr}
 80005ce:	4605      	mov	r5, r0
 80005d0:	460c      	mov	r4, r1
    DuckEngine_Refresh_Screen();
 80005d2:	f7ff fe5f 	bl	8000294 <DuckEngine_Refresh_Screen>
    for (uint8_t i = 0; i < PageIndex; i++) {
 80005d6:	2300      	movs	r3, #0
 80005d8:	e01f      	b.n	800061a <DuckEngine_Set_CurrentPage+0x4e>
                ListPage[i]->Object[j]->isNeedUpdate = 1;
 80005da:	1d18      	adds	r0, r3, #4
 80005dc:	eb02 0280 	add.w	r2, r2, r0, lsl #2
 80005e0:	6852      	ldr	r2, [r2, #4]
 80005e2:	2001      	movs	r0, #1
 80005e4:	7250      	strb	r0, [r2, #9]
            for (uint8_t j = 0; j < ListPage[i]->n; j++) {
 80005e6:	4403      	add	r3, r0
 80005e8:	b2db      	uxtb	r3, r3
 80005ea:	4a15      	ldr	r2, [pc, #84]	@ (8000640 <DuckEngine_Set_CurrentPage+0x74>)
 80005ec:	f852 2021 	ldr.w	r2, [r2, r1, lsl #2]
 80005f0:	f892 012c 	ldrb.w	r0, [r2, #300]	@ 0x12c
 80005f4:	4298      	cmp	r0, r3
 80005f6:	d8f0      	bhi.n	80005da <DuckEngine_Set_CurrentPage+0xe>
            if (ListPage[i]->n_nav <= 1) {
 80005f8:	f892 312d 	ldrb.w	r3, [r2, #301]	@ 0x12d
 80005fc:	2b01      	cmp	r3, #1
 80005fe:	d902      	bls.n	8000606 <DuckEngine_Set_CurrentPage+0x3a>
    DuckEngine_Render();
 8000600:	f7ff fe57 	bl	80002b2 <DuckEngine_Render>
}
 8000604:	bd38      	pop	{r3, r4, r5, pc}
                DuckObject *obj = ListPage[i]->Nav[ListPage[i]->currentNav];
 8000606:	f892 312e 	ldrb.w	r3, [r2, #302]	@ 0x12e
 800060a:	3328      	adds	r3, #40	@ 0x28
                DuckEngine_Select_Object(obj);
 800060c:	f852 0023 	ldr.w	r0, [r2, r3, lsl #2]
 8000610:	f7ff ffc6 	bl	80005a0 <DuckEngine_Select_Object>
                return;
 8000614:	e7f6      	b.n	8000604 <DuckEngine_Set_CurrentPage+0x38>
    for (uint8_t i = 0; i < PageIndex; i++) {
 8000616:	3301      	adds	r3, #1
 8000618:	b2db      	uxtb	r3, r3
 800061a:	4a0a      	ldr	r2, [pc, #40]	@ (8000644 <DuckEngine_Set_CurrentPage+0x78>)
 800061c:	7812      	ldrb	r2, [r2, #0]
 800061e:	429a      	cmp	r2, r3
 8000620:	d9ee      	bls.n	8000600 <DuckEngine_Set_CurrentPage+0x34>
        if (ListPage[i]->type == next) {
 8000622:	4619      	mov	r1, r3
 8000624:	4a06      	ldr	r2, [pc, #24]	@ (8000640 <DuckEngine_Set_CurrentPage+0x74>)
 8000626:	f852 2023 	ldr.w	r2, [r2, r3, lsl #2]
 800062a:	f892 c12f 	ldrb.w	ip, [r2, #303]	@ 0x12f
 800062e:	45a4      	cmp	ip, r4
 8000630:	d1f1      	bne.n	8000616 <DuckEngine_Set_CurrentPage+0x4a>
            currentPageIndex = i;
 8000632:	4805      	ldr	r0, [pc, #20]	@ (8000648 <DuckEngine_Set_CurrentPage+0x7c>)
 8000634:	7003      	strb	r3, [r0, #0]
            ListPage[i]->pre = pre;
 8000636:	f882 5130 	strb.w	r5, [r2, #304]	@ 0x130
            for (uint8_t j = 0; j < ListPage[i]->n; j++) {
 800063a:	2300      	movs	r3, #0
 800063c:	e7d5      	b.n	80005ea <DuckEngine_Set_CurrentPage+0x1e>
 800063e:	bf00      	nop
 8000640:	20000374 	.word	0x20000374
 8000644:	20000373 	.word	0x20000373
 8000648:	20000370 	.word	0x20000370

0800064c <DuckEngine_MoveNav_Left>:
void DuckEngine_MoveNav_Left() {
 800064c:	b508      	push	{r3, lr}
    DuckPage *page = DuckEngine_Get_CurrentPage();
 800064e:	f7ff fe05 	bl	800025c <DuckEngine_Get_CurrentPage>
    if (page == NULL || page->n_nav <= 1) {
 8000652:	4602      	mov	r2, r0
 8000654:	b1c8      	cbz	r0, 800068a <DuckEngine_MoveNav_Left+0x3e>
 8000656:	f890 312d 	ldrb.w	r3, [r0, #301]	@ 0x12d
 800065a:	2b01      	cmp	r3, #1
 800065c:	d915      	bls.n	800068a <DuckEngine_MoveNav_Left+0x3e>
    DuckObject *obj = page->Nav[page->currentNav];
 800065e:	f890 312e 	ldrb.w	r3, [r0, #302]	@ 0x12e
 8000662:	3328      	adds	r3, #40	@ 0x28
 8000664:	f850 3023 	ldr.w	r3, [r0, r3, lsl #2]
    obj->isNeedUpdate = 1;
 8000668:	2101      	movs	r1, #1
 800066a:	7259      	strb	r1, [r3, #9]
    page->currentNav = (page->currentNav == 0) ? (page->n_nav - 1) : (page->currentNav - 1);
 800066c:	f890 312e 	ldrb.w	r3, [r0, #302]	@ 0x12e
 8000670:	b99b      	cbnz	r3, 800069a <DuckEngine_MoveNav_Left+0x4e>
 8000672:	f890 312d 	ldrb.w	r3, [r0, #301]	@ 0x12d
 8000676:	3b01      	subs	r3, #1
 8000678:	b2db      	uxtb	r3, r3
 800067a:	f882 312e 	strb.w	r3, [r2, #302]	@ 0x12e
    DuckEngine_Select_Object(page->Nav[page->currentNav]);
 800067e:	3328      	adds	r3, #40	@ 0x28
 8000680:	f852 0023 	ldr.w	r0, [r2, r3, lsl #2]
 8000684:	f7ff ff8c 	bl	80005a0 <DuckEngine_Select_Object>
}
 8000688:	bd08      	pop	{r3, pc}
        DuckObject *obj = page->Nav[page->currentNav];
 800068a:	f892 312e 	ldrb.w	r3, [r2, #302]	@ 0x12e
 800068e:	3328      	adds	r3, #40	@ 0x28
        DuckEngine_Select_Object(obj);
 8000690:	f852 0023 	ldr.w	r0, [r2, r3, lsl #2]
 8000694:	f7ff ff84 	bl	80005a0 <DuckEngine_Select_Object>
        return;
 8000698:	e7f6      	b.n	8000688 <DuckEngine_MoveNav_Left+0x3c>
    page->currentNav = (page->currentNav == 0) ? (page->n_nav - 1) : (page->currentNav - 1);
 800069a:	3b01      	subs	r3, #1
 800069c:	b2db      	uxtb	r3, r3
 800069e:	e7ec      	b.n	800067a <DuckEngine_MoveNav_Left+0x2e>

080006a0 <DuckEngine_MoveNav_Right>:
void DuckEngine_MoveNav_Right() {
 80006a0:	b508      	push	{r3, lr}
    DuckPage *page = DuckEngine_Get_CurrentPage();
 80006a2:	f7ff fddb 	bl	800025c <DuckEngine_Get_CurrentPage>
    if (page == NULL || page->n_nav <= 1) {
 80006a6:	4602      	mov	r2, r0
 80006a8:	b1e0      	cbz	r0, 80006e4 <DuckEngine_MoveNav_Right+0x44>
 80006aa:	f890 312d 	ldrb.w	r3, [r0, #301]	@ 0x12d
 80006ae:	2b01      	cmp	r3, #1
 80006b0:	d918      	bls.n	80006e4 <DuckEngine_MoveNav_Right+0x44>
    DuckObject *obj = page->Nav[page->currentNav];
 80006b2:	f890 312e 	ldrb.w	r3, [r0, #302]	@ 0x12e
 80006b6:	3328      	adds	r3, #40	@ 0x28
 80006b8:	f850 3023 	ldr.w	r3, [r0, r3, lsl #2]
    obj->isNeedUpdate = 1;
 80006bc:	2101      	movs	r1, #1
 80006be:	7259      	strb	r1, [r3, #9]
    page->currentNav = (page->currentNav + 1) % page->n_nav;
 80006c0:	f890 312e 	ldrb.w	r3, [r0, #302]	@ 0x12e
 80006c4:	440b      	add	r3, r1
 80006c6:	f890 112d 	ldrb.w	r1, [r0, #301]	@ 0x12d
 80006ca:	fb93 f0f1 	sdiv	r0, r3, r1
 80006ce:	fb01 3310 	mls	r3, r1, r0, r3
 80006d2:	f882 312e 	strb.w	r3, [r2, #302]	@ 0x12e
    DuckEngine_Select_Object(page->Nav[page->currentNav]);
 80006d6:	b2db      	uxtb	r3, r3
 80006d8:	3328      	adds	r3, #40	@ 0x28
 80006da:	f852 0023 	ldr.w	r0, [r2, r3, lsl #2]
 80006de:	f7ff ff5f 	bl	80005a0 <DuckEngine_Select_Object>
}
 80006e2:	bd08      	pop	{r3, pc}
        DuckObject *obj = page->Nav[page->currentNav];
 80006e4:	f892 312e 	ldrb.w	r3, [r2, #302]	@ 0x12e
 80006e8:	3328      	adds	r3, #40	@ 0x28
        DuckEngine_Select_Object(obj);
 80006ea:	f852 0023 	ldr.w	r0, [r2, r3, lsl #2]
 80006ee:	f7ff ff57 	bl	80005a0 <DuckEngine_Select_Object>
        return;
 80006f2:	e7f6      	b.n	80006e2 <DuckEngine_MoveNav_Right+0x42>

080006f4 <BackToHome>:
	duckDriver.DrawFilledRectangle(0, 0, 280, 240, BLACK);
	duckDriver.WriteString(40, 100, "Generating QR code...", Font_11x18, WHITE,
	BLACK);
	DuckEngine_Render();
}
void BackToHome(DuckObject *obj) {
 80006f4:	b508      	push	{r3, lr}
	DuckEngine_Set_CurrentPage(DuckEngine_Get_CurrentPage()->type, PAGE_HOME);
 80006f6:	f7ff fdb1 	bl	800025c <DuckEngine_Get_CurrentPage>
 80006fa:	2101      	movs	r1, #1
 80006fc:	f890 012f 	ldrb.w	r0, [r0, #303]	@ 0x12f
 8000700:	f7ff ff64 	bl	80005cc <DuckEngine_Set_CurrentPage>
}
 8000704:	bd08      	pop	{r3, pc}
	...

08000708 <OpenWifiModal>:
    char wifi_data[128];
} WifiModalState;

static WifiModalState wifiModalState;

void OpenWifiModal(DuckObject *obj) {
 8000708:	b5f0      	push	{r4, r5, r6, r7, lr}
 800070a:	b08b      	sub	sp, #44	@ 0x2c
    // Lưu trạng thái
    memset(&wifiModalState, 0, sizeof(wifiModalState));
 800070c:	2281      	movs	r2, #129	@ 0x81
 800070e:	2100      	movs	r1, #0
 8000710:	481c      	ldr	r0, [pc, #112]	@ (8000784 <OpenWifiModal+0x7c>)
 8000712:	f006 ff0b 	bl	800752c <memset>

    DuckEngine_Set_CurrentPage(DuckEngine_Get_CurrentPage()->type, PAGE_WIFI_MODAL);
 8000716:	f7ff fda1 	bl	800025c <DuckEngine_Get_CurrentPage>
 800071a:	2105      	movs	r1, #5
 800071c:	f890 012f 	ldrb.w	r0, [r0, #303]	@ 0x12f
 8000720:	f7ff ff54 	bl	80005cc <DuckEngine_Set_CurrentPage>

    // Xóa màn hình
    duckDriver.DrawFilledRectangle(0, 0, 280, 240, WHITE);
 8000724:	4b18      	ldr	r3, [pc, #96]	@ (8000788 <OpenWifiModal+0x80>)
 8000726:	68dc      	ldr	r4, [r3, #12]
 8000728:	f64f 75ff 	movw	r5, #65535	@ 0xffff
 800072c:	9500      	str	r5, [sp, #0]
 800072e:	23f0      	movs	r3, #240	@ 0xf0
 8000730:	f44f 728c 	mov.w	r2, #280	@ 0x118
 8000734:	2100      	movs	r1, #0
 8000736:	4608      	mov	r0, r1
 8000738:	47a0      	blx	r4

    // UI cơ bản
    DuckEngine_Create_Label(80, 10, "Scan to connect WiFi", &Font_7x10, BLACK, WHITE, &WifiModal, 0);
 800073a:	4e14      	ldr	r6, [pc, #80]	@ (800078c <OpenWifiModal+0x84>)
 800073c:	2400      	movs	r4, #0
 800073e:	9403      	str	r4, [sp, #12]
 8000740:	4f13      	ldr	r7, [pc, #76]	@ (8000790 <OpenWifiModal+0x88>)
 8000742:	9702      	str	r7, [sp, #8]
 8000744:	9501      	str	r5, [sp, #4]
 8000746:	9400      	str	r4, [sp, #0]
 8000748:	4633      	mov	r3, r6
 800074a:	4a12      	ldr	r2, [pc, #72]	@ (8000794 <OpenWifiModal+0x8c>)
 800074c:	210a      	movs	r1, #10
 800074e:	2050      	movs	r0, #80	@ 0x50
 8000750:	f7ff fdca 	bl	80002e8 <DuckEngine_Create_Label>
    DuckEngine_Create_Button(80, 200, 100, 30, "Back", LABEL_CENTER, &Font_7x10,
 8000754:	4b10      	ldr	r3, [pc, #64]	@ (8000798 <OpenWifiModal+0x90>)
 8000756:	9308      	str	r3, [sp, #32]
 8000758:	2301      	movs	r3, #1
 800075a:	9307      	str	r3, [sp, #28]
 800075c:	9706      	str	r7, [sp, #24]
 800075e:	9405      	str	r4, [sp, #20]
 8000760:	9404      	str	r4, [sp, #16]
 8000762:	9503      	str	r5, [sp, #12]
 8000764:	9602      	str	r6, [sp, #8]
 8000766:	2304      	movs	r3, #4
 8000768:	9301      	str	r3, [sp, #4]
 800076a:	4b0c      	ldr	r3, [pc, #48]	@ (800079c <OpenWifiModal+0x94>)
 800076c:	9300      	str	r3, [sp, #0]
 800076e:	231e      	movs	r3, #30
 8000770:	2264      	movs	r2, #100	@ 0x64
 8000772:	21c8      	movs	r1, #200	@ 0xc8
 8000774:	2050      	movs	r0, #80	@ 0x50
 8000776:	f7ff fdfd 	bl	8000374 <DuckEngine_Create_Button>
                             WHITE, 0, BLACK, &WifiModal, 1, BackToHome);
    DuckEngine_Render();
 800077a:	f7ff fd9a 	bl	80002b2 <DuckEngine_Render>
}
 800077e:	b00b      	add	sp, #44	@ 0x2c
 8000780:	bdf0      	pop	{r4, r5, r6, r7, pc}
 8000782:	bf00      	nop
 8000784:	2000135c 	.word	0x2000135c
 8000788:	20000010 	.word	0x20000010
 800078c:	20000008 	.word	0x20000008
 8000790:	20001514 	.word	0x20001514
 8000794:	08009904 	.word	0x08009904
 8000798:	080006f5 	.word	0x080006f5
 800079c:	0800991c 	.word	0x0800991c

080007a0 <OpenConfigModal>:
        DuckEngine_Render();
        wifiModalState.qr_generated = true;
    }
}

void OpenConfigModal(DuckObject *obj) {
 80007a0:	e92d 41f0 	stmdb	sp!, {r4, r5, r6, r7, r8, lr}
 80007a4:	b08a      	sub	sp, #40	@ 0x28
    // Save state
    DuckEngine_Set_CurrentPage(DuckEngine_Get_CurrentPage()->type, PAGE_CONFIG_MODAL);
 80007a6:	f7ff fd59 	bl	800025c <DuckEngine_Get_CurrentPage>
 80007aa:	2106      	movs	r1, #6
 80007ac:	f890 012f 	ldrb.w	r0, [r0, #303]	@ 0x12f
 80007b0:	f7ff ff0c 	bl	80005cc <DuckEngine_Set_CurrentPage>

    // Clear the screen with a black background


    // Add a title to the settings window
    DuckEngine_Create_Label(80, 5, "MANUALS", &Font_11x18, SOFTWHITE, BLACK, &ConfigModal, -1);
 80007b4:	23ff      	movs	r3, #255	@ 0xff
 80007b6:	9303      	str	r3, [sp, #12]
 80007b8:	4d3f      	ldr	r5, [pc, #252]	@ (80008b8 <OpenConfigModal+0x118>)
 80007ba:	9502      	str	r5, [sp, #8]
 80007bc:	2400      	movs	r4, #0
 80007be:	9401      	str	r4, [sp, #4]
 80007c0:	f64e 775d 	movw	r7, #61277	@ 0xef5d
 80007c4:	9700      	str	r7, [sp, #0]
 80007c6:	4b3d      	ldr	r3, [pc, #244]	@ (80008bc <OpenConfigModal+0x11c>)
 80007c8:	4a3d      	ldr	r2, [pc, #244]	@ (80008c0 <OpenConfigModal+0x120>)
 80007ca:	2105      	movs	r1, #5
 80007cc:	2050      	movs	r0, #80	@ 0x50
 80007ce:	f7ff fd8b 	bl	80002e8 <DuckEngine_Create_Label>

    // General instructions label
    DuckEngine_Create_Label(20, 40, "Use manual to manage your device settings.", &Font_7x10, PASTELGREEN, BLACK, &ConfigModal, 0);
 80007d2:	4e3c      	ldr	r6, [pc, #240]	@ (80008c4 <OpenConfigModal+0x124>)
 80007d4:	9403      	str	r4, [sp, #12]
 80007d6:	9502      	str	r5, [sp, #8]
 80007d8:	9401      	str	r4, [sp, #4]
 80007da:	f249 73f6 	movw	r3, #38902	@ 0x97f6
 80007de:	9300      	str	r3, [sp, #0]
 80007e0:	4633      	mov	r3, r6
 80007e2:	4a39      	ldr	r2, [pc, #228]	@ (80008c8 <OpenConfigModal+0x128>)
 80007e4:	2128      	movs	r1, #40	@ 0x28
 80007e6:	2014      	movs	r0, #20
 80007e8:	f7ff fd7e 	bl	80002e8 <DuckEngine_Create_Label>

    // Labels for the WiFi Configuration section
    DuckEngine_Create_Label(20, 60, "WIFI SETUP:", &Font_7x10, PASTELPINK, BLACK, &ConfigModal, 1);
 80007ec:	2301      	movs	r3, #1
 80007ee:	9303      	str	r3, [sp, #12]
 80007f0:	9502      	str	r5, [sp, #8]
 80007f2:	9401      	str	r4, [sp, #4]
 80007f4:	f64f 53b8 	movw	r3, #64952	@ 0xfdb8
 80007f8:	9300      	str	r3, [sp, #0]
 80007fa:	4633      	mov	r3, r6
 80007fc:	4a33      	ldr	r2, [pc, #204]	@ (80008cc <OpenConfigModal+0x12c>)
 80007fe:	213c      	movs	r1, #60	@ 0x3c
 8000800:	2014      	movs	r0, #20
 8000802:	f7ff fd71 	bl	80002e8 <DuckEngine_Create_Label>
    DuckEngine_Create_Label(20, 80, "Method 1: Enter SSID/password.", &Font_7x10, SOFTWHITE, BLACK, &ConfigModal, 2);
 8000806:	2302      	movs	r3, #2
 8000808:	9303      	str	r3, [sp, #12]
 800080a:	9502      	str	r5, [sp, #8]
 800080c:	9401      	str	r4, [sp, #4]
 800080e:	9700      	str	r7, [sp, #0]
 8000810:	4633      	mov	r3, r6
 8000812:	4a2f      	ldr	r2, [pc, #188]	@ (80008d0 <OpenConfigModal+0x130>)
 8000814:	2150      	movs	r1, #80	@ 0x50
 8000816:	2014      	movs	r0, #20
 8000818:	f7ff fd66 	bl	80002e8 <DuckEngine_Create_Label>
    DuckEngine_Create_Label(20, 100, "Method 2: Scan QR code.", &Font_7x10, SOFTWHITE, BLACK, &ConfigModal, 3);
 800081c:	2303      	movs	r3, #3
 800081e:	9303      	str	r3, [sp, #12]
 8000820:	9502      	str	r5, [sp, #8]
 8000822:	9401      	str	r4, [sp, #4]
 8000824:	9700      	str	r7, [sp, #0]
 8000826:	4633      	mov	r3, r6
 8000828:	4a2a      	ldr	r2, [pc, #168]	@ (80008d4 <OpenConfigModal+0x134>)
 800082a:	2164      	movs	r1, #100	@ 0x64
 800082c:	2014      	movs	r0, #20
 800082e:	f7ff fd5b 	bl	80002e8 <DuckEngine_Create_Label>
    DuckEngine_Create_Label(20, 120, "For advanced settings, go to the Admin panel.", &Font_7x10, CLOUDBLUE, BLACK, &ConfigModal, 4);
 8000832:	f04f 0804 	mov.w	r8, #4
 8000836:	f8cd 800c 	str.w	r8, [sp, #12]
 800083a:	9502      	str	r5, [sp, #8]
 800083c:	9401      	str	r4, [sp, #4]
 800083e:	f24c 73ff 	movw	r3, #51199	@ 0xc7ff
 8000842:	9300      	str	r3, [sp, #0]
 8000844:	4633      	mov	r3, r6
 8000846:	4a24      	ldr	r2, [pc, #144]	@ (80008d8 <OpenConfigModal+0x138>)
 8000848:	2178      	movs	r1, #120	@ 0x78
 800084a:	2014      	movs	r0, #20
 800084c:	f7ff fd4c 	bl	80002e8 <DuckEngine_Create_Label>

    // Labels for the general Configuration section
    DuckEngine_Create_Label(20, 150, "ADMIN SETTINGS:", &Font_7x10, PASTELYELLOW, BLACK, &ConfigModal, 5);
 8000850:	2305      	movs	r3, #5
 8000852:	9303      	str	r3, [sp, #12]
 8000854:	9502      	str	r5, [sp, #8]
 8000856:	9401      	str	r4, [sp, #4]
 8000858:	f64f 73f8 	movw	r3, #65528	@ 0xfff8
 800085c:	9300      	str	r3, [sp, #0]
 800085e:	4633      	mov	r3, r6
 8000860:	4a1e      	ldr	r2, [pc, #120]	@ (80008dc <OpenConfigModal+0x13c>)
 8000862:	2196      	movs	r1, #150	@ 0x96
 8000864:	2014      	movs	r0, #20
 8000866:	f7ff fd3f 	bl	80002e8 <DuckEngine_Create_Label>
    DuckEngine_Create_Label(20, 170, "Change admin password and network options.", &Font_7x10, SOFTWHITE, BLACK, &ConfigModal, 6);
 800086a:	2306      	movs	r3, #6
 800086c:	9303      	str	r3, [sp, #12]
 800086e:	9502      	str	r5, [sp, #8]
 8000870:	9401      	str	r4, [sp, #4]
 8000872:	9700      	str	r7, [sp, #0]
 8000874:	4633      	mov	r3, r6
 8000876:	4a1a      	ldr	r2, [pc, #104]	@ (80008e0 <OpenConfigModal+0x140>)
 8000878:	21aa      	movs	r1, #170	@ 0xaa
 800087a:	2014      	movs	r0, #20
 800087c:	f7ff fd34 	bl	80002e8 <DuckEngine_Create_Label>

    // "Back" button to return to the home page
    DuckEngine_Create_Button(80, 200, 100, 30, "Back", LABEL_CENTER, &Font_7x10, WHITE, 0, PASTELBLUE, &ConfigModal, 7, BackToHome);
 8000880:	4b18      	ldr	r3, [pc, #96]	@ (80008e4 <OpenConfigModal+0x144>)
 8000882:	9308      	str	r3, [sp, #32]
 8000884:	2307      	movs	r3, #7
 8000886:	9307      	str	r3, [sp, #28]
 8000888:	9506      	str	r5, [sp, #24]
 800088a:	f64a 63dc 	movw	r3, #44764	@ 0xaedc
 800088e:	9305      	str	r3, [sp, #20]
 8000890:	9404      	str	r4, [sp, #16]
 8000892:	f64f 73ff 	movw	r3, #65535	@ 0xffff
 8000896:	9303      	str	r3, [sp, #12]
 8000898:	9602      	str	r6, [sp, #8]
 800089a:	f8cd 8004 	str.w	r8, [sp, #4]
 800089e:	4b12      	ldr	r3, [pc, #72]	@ (80008e8 <OpenConfigModal+0x148>)
 80008a0:	9300      	str	r3, [sp, #0]
 80008a2:	231e      	movs	r3, #30
 80008a4:	2264      	movs	r2, #100	@ 0x64
 80008a6:	21c8      	movs	r1, #200	@ 0xc8
 80008a8:	2050      	movs	r0, #80	@ 0x50
 80008aa:	f7ff fd63 	bl	8000374 <DuckEngine_Create_Button>

    DuckEngine_Render();
 80008ae:	f7ff fd00 	bl	80002b2 <DuckEngine_Render>
}
 80008b2:	b00a      	add	sp, #40	@ 0x28
 80008b4:	e8bd 81f0 	ldmia.w	sp!, {r4, r5, r6, r7, r8, pc}
 80008b8:	200013e0 	.word	0x200013e0
 80008bc:	20000000 	.word	0x20000000
 80008c0:	08009924 	.word	0x08009924
 80008c4:	20000008 	.word	0x20000008
 80008c8:	0800992c 	.word	0x0800992c
 80008cc:	08009958 	.word	0x08009958
 80008d0:	08009964 	.word	0x08009964
 80008d4:	08009984 	.word	0x08009984
 80008d8:	0800999c 	.word	0x0800999c
 80008dc:	080099cc 	.word	0x080099cc
 80008e0:	080099dc 	.word	0x080099dc
 80008e4:	080006f5 	.word	0x080006f5
 80008e8:	0800991c 	.word	0x0800991c

080008ec <MX_GPIO_Init>:
/**
 * @brief GPIO Initialization Function
 * @param None
 * @retval None
 */
static void MX_GPIO_Init(void) {
 80008ec:	e92d 41f0 	stmdb	sp!, {r4, r5, r6, r7, r8, lr}
 80008f0:	b088      	sub	sp, #32
	GPIO_InitTypeDef GPIO_InitStruct = { 0 };
 80008f2:	2400      	movs	r4, #0
 80008f4:	9404      	str	r4, [sp, #16]
 80008f6:	9405      	str	r4, [sp, #20]
 80008f8:	9406      	str	r4, [sp, #24]
 80008fa:	9407      	str	r4, [sp, #28]
	__HAL_RCC_GPIOD_CLK_ENABLE();
 80008fc:	4b2f      	ldr	r3, [pc, #188]	@ (80009bc <MX_GPIO_Init+0xd0>)
 80008fe:	699a      	ldr	r2, [r3, #24]
 8000900:	f042 0220 	orr.w	r2, r2, #32
 8000904:	619a      	str	r2, [r3, #24]
 8000906:	699a      	ldr	r2, [r3, #24]
 8000908:	f002 0220 	and.w	r2, r2, #32
 800090c:	9201      	str	r2, [sp, #4]
 800090e:	9a01      	ldr	r2, [sp, #4]
	__HAL_RCC_GPIOA_CLK_ENABLE();
 8000910:	699a      	ldr	r2, [r3, #24]
 8000912:	f042 0204 	orr.w	r2, r2, #4
 8000916:	619a      	str	r2, [r3, #24]
 8000918:	699a      	ldr	r2, [r3, #24]
 800091a:	f002 0204 	and.w	r2, r2, #4
 800091e:	9202      	str	r2, [sp, #8]
 8000920:	9a02      	ldr	r2, [sp, #8]
	__HAL_RCC_GPIOB_CLK_ENABLE();
 8000922:	699a      	ldr	r2, [r3, #24]
 8000924:	f042 0208 	orr.w	r2, r2, #8
 8000928:	619a      	str	r2, [r3, #24]
 800092a:	699b      	ldr	r3, [r3, #24]
 800092c:	f003 0308 	and.w	r3, r3, #8
 8000930:	9303      	str	r3, [sp, #12]
 8000932:	9b03      	ldr	r3, [sp, #12]
	HAL_GPIO_WritePin(SD_CS_GPIO_Port, SD_CS_Pin, GPIO_PIN_SET);
 8000934:	4d22      	ldr	r5, [pc, #136]	@ (80009c0 <MX_GPIO_Init+0xd4>)
 8000936:	2201      	movs	r2, #1
 8000938:	2102      	movs	r1, #2
 800093a:	4628      	mov	r0, r5
 800093c:	f003 fdbf 	bl	80044be <HAL_GPIO_WritePin>
	HAL_GPIO_WritePin(GPIOA, ST7789_DC_Pin | ST7789_RST_Pin | ST7789_CS_Pin,
 8000940:	f8df 8080 	ldr.w	r8, [pc, #128]	@ 80009c4 <MX_GPIO_Init+0xd8>
 8000944:	4622      	mov	r2, r4
 8000946:	f44f 61e0 	mov.w	r1, #1792	@ 0x700
 800094a:	4640      	mov	r0, r8
 800094c:	f003 fdb7 	bl	80044be <HAL_GPIO_WritePin>
			GPIO_PIN_RESET);
	HAL_GPIO_WritePin(GPIOB, GPIO_PIN_6, GPIO_PIN_RESET);
 8000950:	4622      	mov	r2, r4
 8000952:	2140      	movs	r1, #64	@ 0x40
 8000954:	4628      	mov	r0, r5
 8000956:	f003 fdb2 	bl	80044be <HAL_GPIO_WritePin>
	GPIO_InitStruct.Pin = SWA_Pin | SWB_Pin;
 800095a:	2350      	movs	r3, #80	@ 0x50
 800095c:	9304      	str	r3, [sp, #16]
	GPIO_InitStruct.Mode = GPIO_MODE_INPUT;
 800095e:	9405      	str	r4, [sp, #20]
	GPIO_InitStruct.Pull = GPIO_PULLDOWN;
 8000960:	2602      	movs	r6, #2
 8000962:	9606      	str	r6, [sp, #24]
	HAL_GPIO_Init(GPIOA, &GPIO_InitStruct);
 8000964:	a904      	add	r1, sp, #16
 8000966:	4640      	mov	r0, r8
 8000968:	f003 fc94 	bl	8004294 <HAL_GPIO_Init>
	GPIO_InitStruct.Pin = SD_CS_Pin;
 800096c:	9604      	str	r6, [sp, #16]
	GPIO_InitStruct.Mode = GPIO_MODE_OUTPUT_PP;
 800096e:	2701      	movs	r7, #1
 8000970:	9705      	str	r7, [sp, #20]
	GPIO_InitStruct.Pull = GPIO_NOPULL;
 8000972:	9406      	str	r4, [sp, #24]
	GPIO_InitStruct.Speed = GPIO_SPEED_FREQ_HIGH;
 8000974:	2303      	movs	r3, #3
 8000976:	9307      	str	r3, [sp, #28]
	HAL_GPIO_Init(SD_CS_GPIO_Port, &GPIO_InitStruct);
 8000978:	a904      	add	r1, sp, #16
 800097a:	4628      	mov	r0, r5
 800097c:	f003 fc8a 	bl	8004294 <HAL_GPIO_Init>
	GPIO_InitStruct.Pin = ST7789_DC_Pin | ST7789_RST_Pin | ST7789_CS_Pin;
 8000980:	f44f 63e0 	mov.w	r3, #1792	@ 0x700
 8000984:	9304      	str	r3, [sp, #16]
	GPIO_InitStruct.Mode = GPIO_MODE_OUTPUT_PP;
 8000986:	9705      	str	r7, [sp, #20]
	GPIO_InitStruct.Pull = GPIO_NOPULL;
 8000988:	9406      	str	r4, [sp, #24]
	GPIO_InitStruct.Speed = GPIO_SPEED_FREQ_LOW;
 800098a:	9607      	str	r6, [sp, #28]
	HAL_GPIO_Init(GPIOA, &GPIO_InitStruct);
 800098c:	a904      	add	r1, sp, #16
 800098e:	4640      	mov	r0, r8
 8000990:	f003 fc80 	bl	8004294 <HAL_GPIO_Init>
	GPIO_InitStruct.Pin = GPIO_PIN_5;
 8000994:	2320      	movs	r3, #32
 8000996:	9304      	str	r3, [sp, #16]
	GPIO_InitStruct.Mode = GPIO_MODE_INPUT;
 8000998:	9405      	str	r4, [sp, #20]
	GPIO_InitStruct.Pull = GPIO_PULLUP;
 800099a:	9706      	str	r7, [sp, #24]
	HAL_GPIO_Init(GPIOB, &GPIO_InitStruct);
 800099c:	a904      	add	r1, sp, #16
 800099e:	4628      	mov	r0, r5
 80009a0:	f003 fc78 	bl	8004294 <HAL_GPIO_Init>
	GPIO_InitStruct.Pin = GPIO_PIN_6;
 80009a4:	2340      	movs	r3, #64	@ 0x40
 80009a6:	9304      	str	r3, [sp, #16]
	GPIO_InitStruct.Mode = GPIO_MODE_OUTPUT_PP;
 80009a8:	9705      	str	r7, [sp, #20]
	GPIO_InitStruct.Pull = GPIO_NOPULL;
 80009aa:	9406      	str	r4, [sp, #24]
	GPIO_InitStruct.Speed = GPIO_SPEED_FREQ_LOW;
 80009ac:	9607      	str	r6, [sp, #28]
	HAL_GPIO_Init(GPIOB, &GPIO_InitStruct);
 80009ae:	a904      	add	r1, sp, #16
 80009b0:	4628      	mov	r0, r5
 80009b2:	f003 fc6f 	bl	8004294 <HAL_GPIO_Init>
}
 80009b6:	b008      	add	sp, #32
 80009b8:	e8bd 81f0 	ldmia.w	sp!, {r4, r5, r6, r7, r8, pc}
 80009bc:	40021000 	.word	0x40021000
 80009c0:	40010c00 	.word	0x40010c00
 80009c4:	40010800 	.word	0x40010800

080009c8 <MX_SPI1_Init>:
static void MX_SPI1_Init(void) {
 80009c8:	b508      	push	{r3, lr}
	hspi1.Instance = SPI1;
 80009ca:	480e      	ldr	r0, [pc, #56]	@ (8000a04 <MX_SPI1_Init+0x3c>)
 80009cc:	4b0e      	ldr	r3, [pc, #56]	@ (8000a08 <MX_SPI1_Init+0x40>)
 80009ce:	6003      	str	r3, [r0, #0]
	hspi1.Init.Mode = SPI_MODE_MASTER;
 80009d0:	f44f 7382 	mov.w	r3, #260	@ 0x104
 80009d4:	6043      	str	r3, [r0, #4]
	hspi1.Init.Direction = SPI_DIRECTION_1LINE;
 80009d6:	f44f 4300 	mov.w	r3, #32768	@ 0x8000
 80009da:	6083      	str	r3, [r0, #8]
	hspi1.Init.DataSize = SPI_DATASIZE_8BIT;
 80009dc:	2300      	movs	r3, #0
 80009de:	60c3      	str	r3, [r0, #12]
	hspi1.Init.CLKPolarity = SPI_POLARITY_HIGH;
 80009e0:	2202      	movs	r2, #2
 80009e2:	6102      	str	r2, [r0, #16]
	hspi1.Init.CLKPhase = SPI_PHASE_2EDGE;
 80009e4:	2201      	movs	r2, #1
 80009e6:	6142      	str	r2, [r0, #20]
	hspi1.Init.NSS = SPI_NSS_SOFT;
 80009e8:	f44f 7200 	mov.w	r2, #512	@ 0x200
 80009ec:	6182      	str	r2, [r0, #24]
	hspi1.Init.BaudRatePrescaler = SPI_BAUDRATEPRESCALER_4;
 80009ee:	2208      	movs	r2, #8
 80009f0:	61c2      	str	r2, [r0, #28]
	hspi1.Init.FirstBit = SPI_FIRSTBIT_MSB;
 80009f2:	6203      	str	r3, [r0, #32]
	hspi1.Init.TIMode = SPI_TIMODE_DISABLE;
 80009f4:	6243      	str	r3, [r0, #36]	@ 0x24
	hspi1.Init.CRCCalculation = SPI_CRCCALCULATION_DISABLE;
 80009f6:	6283      	str	r3, [r0, #40]	@ 0x28
	hspi1.Init.CRCPolynomial = 10;
 80009f8:	230a      	movs	r3, #10
 80009fa:	62c3      	str	r3, [r0, #44]	@ 0x2c
	HAL_SPI_Init(&hspi1);
 80009fc:	f004 f9ba 	bl	8004d74 <HAL_SPI_Init>
}
 8000a00:	bd08      	pop	{r3, pc}
 8000a02:	bf00      	nop
 8000a04:	20001828 	.word	0x20001828
 8000a08:	40013000 	.word	0x40013000

08000a0c <MX_SPI2_Init>:
static void MX_SPI2_Init(void) {
 8000a0c:	b508      	push	{r3, lr}
	hspi2.Instance = SPI2;
 8000a0e:	480c      	ldr	r0, [pc, #48]	@ (8000a40 <MX_SPI2_Init+0x34>)
 8000a10:	4b0c      	ldr	r3, [pc, #48]	@ (8000a44 <MX_SPI2_Init+0x38>)
 8000a12:	6003      	str	r3, [r0, #0]
	hspi2.Init.Mode = SPI_MODE_MASTER;
 8000a14:	f44f 7382 	mov.w	r3, #260	@ 0x104
 8000a18:	6043      	str	r3, [r0, #4]
	hspi2.Init.Direction = SPI_DIRECTION_2LINES;
 8000a1a:	2300      	movs	r3, #0
 8000a1c:	6083      	str	r3, [r0, #8]
	hspi2.Init.DataSize = SPI_DATASIZE_8BIT;
 8000a1e:	60c3      	str	r3, [r0, #12]
	hspi2.Init.CLKPolarity = SPI_POLARITY_LOW;
 8000a20:	6103      	str	r3, [r0, #16]
	hspi2.Init.CLKPhase = SPI_PHASE_1EDGE;
 8000a22:	6143      	str	r3, [r0, #20]
	hspi2.Init.NSS = SPI_NSS_SOFT;
 8000a24:	f44f 7200 	mov.w	r2, #512	@ 0x200
 8000a28:	6182      	str	r2, [r0, #24]
	hspi2.Init.BaudRatePrescaler = SPI_BAUDRATEPRESCALER_4;
 8000a2a:	2208      	movs	r2, #8
 8000a2c:	61c2      	str	r2, [r0, #28]
	hspi2.Init.FirstBit = SPI_FIRSTBIT_MSB;
 8000a2e:	6203      	str	r3, [r0, #32]
	hspi2.Init.TIMode = SPI_TIMODE_DISABLE;
 8000a30:	6243      	str	r3, [r0, #36]	@ 0x24
	hspi2.Init.CRCCalculation = SPI_CRCCALCULATION_DISABLE;
 8000a32:	6283      	str	r3, [r0, #40]	@ 0x28
	hspi2.Init.CRCPolynomial = 10;
 8000a34:	230a      	movs	r3, #10
 8000a36:	62c3      	str	r3, [r0, #44]	@ 0x2c
	HAL_SPI_Init(&hspi2);
 8000a38:	f004 f99c 	bl	8004d74 <HAL_SPI_Init>
}
 8000a3c:	bd08      	pop	{r3, pc}
 8000a3e:	bf00      	nop
 8000a40:	200017d0 	.word	0x200017d0
 8000a44:	40003800 	.word	0x40003800

08000a48 <MX_ADC1_Init>:
static void MX_ADC1_Init(void) {
 8000a48:	b570      	push	{r4, r5, r6, lr}
 8000a4a:	b084      	sub	sp, #16
	ADC_ChannelConfTypeDef sConfig = { 0 };
 8000a4c:	2500      	movs	r5, #0
 8000a4e:	9501      	str	r5, [sp, #4]
 8000a50:	9502      	str	r5, [sp, #8]
 8000a52:	9503      	str	r5, [sp, #12]
	hadc1.Instance = ADC1;
 8000a54:	4c0b      	ldr	r4, [pc, #44]	@ (8000a84 <MX_ADC1_Init+0x3c>)
 8000a56:	4b0c      	ldr	r3, [pc, #48]	@ (8000a88 <MX_ADC1_Init+0x40>)
 8000a58:	6023      	str	r3, [r4, #0]
	hadc1.Init.ScanConvMode = ADC_SCAN_DISABLE;
 8000a5a:	60a5      	str	r5, [r4, #8]
	hadc1.Init.ContinuousConvMode = ENABLE;
 8000a5c:	2601      	movs	r6, #1
 8000a5e:	7326      	strb	r6, [r4, #12]
	hadc1.Init.DiscontinuousConvMode = DISABLE;
 8000a60:	7525      	strb	r5, [r4, #20]
	hadc1.Init.ExternalTrigConv = ADC_SOFTWARE_START;
 8000a62:	f44f 2360 	mov.w	r3, #917504	@ 0xe0000
 8000a66:	61e3      	str	r3, [r4, #28]
	hadc1.Init.DataAlign = ADC_DATAALIGN_RIGHT;
 8000a68:	6065      	str	r5, [r4, #4]
	hadc1.Init.NbrOfConversion = 1;
 8000a6a:	6126      	str	r6, [r4, #16]
	HAL_ADC_Init(&hadc1);
 8000a6c:	4620      	mov	r0, r4
 8000a6e:	f003 fab9 	bl	8003fe4 <HAL_ADC_Init>
	sConfig.Channel = ADC_CHANNEL_0;
 8000a72:	9501      	str	r5, [sp, #4]
	sConfig.Rank = ADC_REGULAR_RANK_1;
 8000a74:	9602      	str	r6, [sp, #8]
	sConfig.SamplingTime = ADC_SAMPLETIME_1CYCLE_5;
 8000a76:	9503      	str	r5, [sp, #12]
	HAL_ADC_ConfigChannel(&hadc1, &sConfig);
 8000a78:	a901      	add	r1, sp, #4
 8000a7a:	4620      	mov	r0, r4
 8000a7c:	f003 f92e 	bl	8003cdc <HAL_ADC_ConfigChannel>
}
 8000a80:	b004      	add	sp, #16
 8000a82:	bd70      	pop	{r4, r5, r6, pc}
 8000a84:	200018b0 	.word	0x200018b0
 8000a88:	40012400 	.word	0x40012400

08000a8c <MX_ADC2_Init>:
static void MX_ADC2_Init(void) {
 8000a8c:	b570      	push	{r4, r5, r6, lr}
 8000a8e:	b084      	sub	sp, #16
	ADC_ChannelConfTypeDef sConfig = { 0 };
 8000a90:	2500      	movs	r5, #0
 8000a92:	9501      	str	r5, [sp, #4]
 8000a94:	9502      	str	r5, [sp, #8]
 8000a96:	9503      	str	r5, [sp, #12]
	hadc2.Instance = ADC2;
 8000a98:	4c0b      	ldr	r4, [pc, #44]	@ (8000ac8 <MX_ADC2_Init+0x3c>)
 8000a9a:	4b0c      	ldr	r3, [pc, #48]	@ (8000acc <MX_ADC2_Init+0x40>)
 8000a9c:	6023      	str	r3, [r4, #0]
	hadc2.Init.ScanConvMode = ADC_SCAN_DISABLE;
 8000a9e:	60a5      	str	r5, [r4, #8]
	hadc2.Init.ContinuousConvMode = ENABLE;
 8000aa0:	2601      	movs	r6, #1
 8000aa2:	7326      	strb	r6, [r4, #12]
	hadc2.Init.DiscontinuousConvMode = DISABLE;
 8000aa4:	7525      	strb	r5, [r4, #20]
	hadc2.Init.ExternalTrigConv = ADC_SOFTWARE_START;
 8000aa6:	f44f 2360 	mov.w	r3, #917504	@ 0xe0000
 8000aaa:	61e3      	str	r3, [r4, #28]
	hadc2.Init.DataAlign = ADC_DATAALIGN_RIGHT;
 8000aac:	6065      	str	r5, [r4, #4]
	hadc2.Init.NbrOfConversion = 1;
 8000aae:	6126      	str	r6, [r4, #16]
	HAL_ADC_Init(&hadc2);
 8000ab0:	4620      	mov	r0, r4
 8000ab2:	f003 fa97 	bl	8003fe4 <HAL_ADC_Init>
	sConfig.Channel = ADC_CHANNEL_1;
 8000ab6:	9601      	str	r6, [sp, #4]
	sConfig.Rank = ADC_REGULAR_RANK_1;
 8000ab8:	9602      	str	r6, [sp, #8]
	sConfig.SamplingTime = ADC_SAMPLETIME_1CYCLE_5;
 8000aba:	9503      	str	r5, [sp, #12]
	HAL_ADC_ConfigChannel(&hadc2, &sConfig);
 8000abc:	a901      	add	r1, sp, #4
 8000abe:	4620      	mov	r0, r4
 8000ac0:	f003 f90c 	bl	8003cdc <HAL_ADC_ConfigChannel>
}
 8000ac4:	b004      	add	sp, #16
 8000ac6:	bd70      	pop	{r4, r5, r6, pc}
 8000ac8:	20001880 	.word	0x20001880
 8000acc:	40012800 	.word	0x40012800

08000ad0 <MX_USART3_UART_Init>:
static void MX_USART3_UART_Init(void) {
 8000ad0:	b508      	push	{r3, lr}
	huart3.Instance = USART3;
 8000ad2:	4808      	ldr	r0, [pc, #32]	@ (8000af4 <MX_USART3_UART_Init+0x24>)
 8000ad4:	4b08      	ldr	r3, [pc, #32]	@ (8000af8 <MX_USART3_UART_Init+0x28>)
 8000ad6:	6003      	str	r3, [r0, #0]
	huart3.Init.BaudRate = 921600;
 8000ad8:	f44f 2361 	mov.w	r3, #921600	@ 0xe1000
 8000adc:	6043      	str	r3, [r0, #4]
	huart3.Init.WordLength = UART_WORDLENGTH_8B;
 8000ade:	2300      	movs	r3, #0
 8000ae0:	6083      	str	r3, [r0, #8]
	huart3.Init.StopBits = UART_STOPBITS_1;
 8000ae2:	60c3      	str	r3, [r0, #12]
	huart3.Init.Parity = UART_PARITY_NONE;
 8000ae4:	6103      	str	r3, [r0, #16]
	huart3.Init.Mode = UART_MODE_TX_RX;
 8000ae6:	220c      	movs	r2, #12
 8000ae8:	6142      	str	r2, [r0, #20]
	huart3.Init.HwFlowCtl = UART_HWCONTROL_NONE;
 8000aea:	6183      	str	r3, [r0, #24]
	huart3.Init.OverSampling = UART_OVERSAMPLING_16;
 8000aec:	61c3      	str	r3, [r0, #28]
	HAL_UART_Init(&huart3);
 8000aee:	f004 fcc2 	bl	8005476 <HAL_UART_Init>
}
 8000af2:	bd08      	pop	{r3, pc}
 8000af4:	20001788 	.word	0x20001788
 8000af8:	40004800 	.word	0x40004800

08000afc <draw_rectangle>:
void draw_rectangle(int16_t x, int16_t y, int16_t w, int16_t h, uint16_t color) {
 8000afc:	b530      	push	{r4, r5, lr}
 8000afe:	b083      	sub	sp, #12
	duckDriver.DrawFilledRectangle(x, y, w, h, color);
 8000b00:	4c05      	ldr	r4, [pc, #20]	@ (8000b18 <draw_rectangle+0x1c>)
 8000b02:	68e4      	ldr	r4, [r4, #12]
 8000b04:	f8bd 5018 	ldrh.w	r5, [sp, #24]
 8000b08:	9500      	str	r5, [sp, #0]
 8000b0a:	b29b      	uxth	r3, r3
 8000b0c:	b292      	uxth	r2, r2
 8000b0e:	b289      	uxth	r1, r1
 8000b10:	b280      	uxth	r0, r0
 8000b12:	47a0      	blx	r4
}
 8000b14:	b003      	add	sp, #12
 8000b16:	bd30      	pop	{r4, r5, pc}
 8000b18:	20000010 	.word	0x20000010

08000b1c <my_filter_adc>:
	int32_t centered = (int32_t) raw_dir - 1967;
 8000b1c:	f2a0 73af 	subw	r3, r0, #1967	@ 0x7af
	int32_t scaled = (centered * 128) / 2048;
 8000b20:	2b00      	cmp	r3, #0
 8000b22:	db07      	blt.n	8000b34 <my_filter_adc+0x18>
 8000b24:	111b      	asrs	r3, r3, #4
	if (scaled > 127)
 8000b26:	f640 72ae 	movw	r2, #4014	@ 0xfae
 8000b2a:	4290      	cmp	r0, r2
 8000b2c:	d900      	bls.n	8000b30 <my_filter_adc+0x14>
		scaled = 127;
 8000b2e:	237f      	movs	r3, #127	@ 0x7f
}
 8000b30:	b258      	sxtb	r0, r3
 8000b32:	4770      	bx	lr
	int32_t scaled = (centered * 128) / 2048;
 8000b34:	330f      	adds	r3, #15
 8000b36:	e7f5      	b.n	8000b24 <my_filter_adc+0x8>

08000b38 <DuckEngineHanleInput>:
void DuckEngineHanleInput() {
 8000b38:	b570      	push	{r4, r5, r6, lr}
 8000b3a:	b082      	sub	sp, #8
	if (HAL_GetTick() - lastInputTime < 100)
 8000b3c:	f003 f8b0 	bl	8003ca0 <HAL_GetTick>
 8000b40:	4b63      	ldr	r3, [pc, #396]	@ (8000cd0 <DuckEngineHanleInput+0x198>)
 8000b42:	681b      	ldr	r3, [r3, #0]
 8000b44:	1ac0      	subs	r0, r0, r3
 8000b46:	2863      	cmp	r0, #99	@ 0x63
 8000b48:	d801      	bhi.n	8000b4e <DuckEngineHanleInput+0x16>
}
 8000b4a:	b002      	add	sp, #8
 8000b4c:	bd70      	pop	{r4, r5, r6, pc}
	lastInputTime = HAL_GetTick();
 8000b4e:	f003 f8a7 	bl	8003ca0 <HAL_GetTick>
 8000b52:	4b5f      	ldr	r3, [pc, #380]	@ (8000cd0 <DuckEngineHanleInput+0x198>)
 8000b54:	6018      	str	r0, [r3, #0]
	for (int i = 0; i < 5; i++) {
 8000b56:	2400      	movs	r4, #0
	int sumX = 0, sumY = 0;
 8000b58:	4625      	mov	r5, r4
 8000b5a:	4626      	mov	r6, r4
	for (int i = 0; i < 5; i++) {
 8000b5c:	e008      	b.n	8000b70 <DuckEngineHanleInput+0x38>
		sumX += HAL_ADC_GetValue(&hadc2);
 8000b5e:	485d      	ldr	r0, [pc, #372]	@ (8000cd4 <DuckEngineHanleInput+0x19c>)
 8000b60:	f003 f8b8 	bl	8003cd4 <HAL_ADC_GetValue>
 8000b64:	4406      	add	r6, r0
		sumY += HAL_ADC_GetValue(&hadc1);
 8000b66:	485c      	ldr	r0, [pc, #368]	@ (8000cd8 <DuckEngineHanleInput+0x1a0>)
 8000b68:	f003 f8b4 	bl	8003cd4 <HAL_ADC_GetValue>
 8000b6c:	4405      	add	r5, r0
	for (int i = 0; i < 5; i++) {
 8000b6e:	3401      	adds	r4, #1
 8000b70:	2c04      	cmp	r4, #4
 8000b72:	ddf4      	ble.n	8000b5e <DuckEngineHanleInput+0x26>
	int avgX = sumX / 5;
 8000b74:	4b59      	ldr	r3, [pc, #356]	@ (8000cdc <DuckEngineHanleInput+0x1a4>)
 8000b76:	fb83 1206 	smull	r1, r2, r3, r6
 8000b7a:	17f0      	asrs	r0, r6, #31
 8000b7c:	ebc0 0062 	rsb	r0, r0, r2, asr #1
	int avgY = sumY / 5;
 8000b80:	fb83 2305 	smull	r2, r3, r3, r5
 8000b84:	17ed      	asrs	r5, r5, #31
 8000b86:	ebc5 0563 	rsb	r5, r5, r3, asr #1
	int8_t joystick_x = my_filter_adc(avgX);
 8000b8a:	b280      	uxth	r0, r0
 8000b8c:	f7ff ffc6 	bl	8000b1c <my_filter_adc>
 8000b90:	4606      	mov	r6, r0
	int8_t joystick_y = my_filter_adc(avgY);
 8000b92:	b2a8      	uxth	r0, r5
 8000b94:	f7ff ffc2 	bl	8000b1c <my_filter_adc>
 8000b98:	4604      	mov	r4, r0
	if (joystick_x <= -100) {
 8000b9a:	f116 0f63 	cmn.w	r6, #99	@ 0x63
 8000b9e:	da12      	bge.n	8000bc6 <DuckEngineHanleInput+0x8e>
		if (!isLeftHeld) {
 8000ba0:	4b4f      	ldr	r3, [pc, #316]	@ (8000ce0 <DuckEngineHanleInput+0x1a8>)
 8000ba2:	781b      	ldrb	r3, [r3, #0]
 8000ba4:	b993      	cbnz	r3, 8000bcc <DuckEngineHanleInput+0x94>
			ipev = J_LEFT;
 8000ba6:	2303      	movs	r3, #3
 8000ba8:	f88d 3007 	strb.w	r3, [sp, #7]
			xQueueSend(InputEventHandle, &ipev, portMAX_DELAY);
 8000bac:	2300      	movs	r3, #0
 8000bae:	f04f 32ff 	mov.w	r2, #4294967295
 8000bb2:	f10d 0107 	add.w	r1, sp, #7
 8000bb6:	484b      	ldr	r0, [pc, #300]	@ (8000ce4 <DuckEngineHanleInput+0x1ac>)
 8000bb8:	6800      	ldr	r0, [r0, #0]
 8000bba:	f005 f926 	bl	8005e0a <xQueueGenericSend>
			isLeftHeld = 1;
 8000bbe:	4b48      	ldr	r3, [pc, #288]	@ (8000ce0 <DuckEngineHanleInput+0x1a8>)
 8000bc0:	2201      	movs	r2, #1
 8000bc2:	701a      	strb	r2, [r3, #0]
 8000bc4:	e002      	b.n	8000bcc <DuckEngineHanleInput+0x94>
		isLeftHeld = 0;
 8000bc6:	4b46      	ldr	r3, [pc, #280]	@ (8000ce0 <DuckEngineHanleInput+0x1a8>)
 8000bc8:	2200      	movs	r2, #0
 8000bca:	701a      	strb	r2, [r3, #0]
	if (joystick_x >= 90) {
 8000bcc:	2e59      	cmp	r6, #89	@ 0x59
 8000bce:	dd12      	ble.n	8000bf6 <DuckEngineHanleInput+0xbe>
		if (!isRightHeld) {
 8000bd0:	4b45      	ldr	r3, [pc, #276]	@ (8000ce8 <DuckEngineHanleInput+0x1b0>)
 8000bd2:	781b      	ldrb	r3, [r3, #0]
 8000bd4:	b993      	cbnz	r3, 8000bfc <DuckEngineHanleInput+0xc4>
			ipev = J_RIGHT;
 8000bd6:	2304      	movs	r3, #4
 8000bd8:	f88d 3007 	strb.w	r3, [sp, #7]
			xQueueSend(InputEventHandle, &ipev, portMAX_DELAY);
 8000bdc:	2300      	movs	r3, #0
 8000bde:	f04f 32ff 	mov.w	r2, #4294967295
 8000be2:	f10d 0107 	add.w	r1, sp, #7
 8000be6:	483f      	ldr	r0, [pc, #252]	@ (8000ce4 <DuckEngineHanleInput+0x1ac>)
 8000be8:	6800      	ldr	r0, [r0, #0]
 8000bea:	f005 f90e 	bl	8005e0a <xQueueGenericSend>
			isRightHeld = 1;
 8000bee:	4b3e      	ldr	r3, [pc, #248]	@ (8000ce8 <DuckEngineHanleInput+0x1b0>)
 8000bf0:	2201      	movs	r2, #1
 8000bf2:	701a      	strb	r2, [r3, #0]
 8000bf4:	e002      	b.n	8000bfc <DuckEngineHanleInput+0xc4>
		isRightHeld = 0;
 8000bf6:	4b3c      	ldr	r3, [pc, #240]	@ (8000ce8 <DuckEngineHanleInput+0x1b0>)
 8000bf8:	2200      	movs	r2, #0
 8000bfa:	701a      	strb	r2, [r3, #0]
	if (joystick_y >= 100) {
 8000bfc:	2c63      	cmp	r4, #99	@ 0x63
 8000bfe:	dd12      	ble.n	8000c26 <DuckEngineHanleInput+0xee>
		if (!isUpHeld) {
 8000c00:	4b3a      	ldr	r3, [pc, #232]	@ (8000cec <DuckEngineHanleInput+0x1b4>)
 8000c02:	781b      	ldrb	r3, [r3, #0]
 8000c04:	b993      	cbnz	r3, 8000c2c <DuckEngineHanleInput+0xf4>
			ipev = J_UP;
 8000c06:	2305      	movs	r3, #5
 8000c08:	f88d 3007 	strb.w	r3, [sp, #7]
			xQueueSend(InputEventHandle, &ipev, portMAX_DELAY);
 8000c0c:	2300      	movs	r3, #0
 8000c0e:	f04f 32ff 	mov.w	r2, #4294967295
 8000c12:	f10d 0107 	add.w	r1, sp, #7
 8000c16:	4833      	ldr	r0, [pc, #204]	@ (8000ce4 <DuckEngineHanleInput+0x1ac>)
 8000c18:	6800      	ldr	r0, [r0, #0]
 8000c1a:	f005 f8f6 	bl	8005e0a <xQueueGenericSend>
			isUpHeld = 1;
 8000c1e:	4b33      	ldr	r3, [pc, #204]	@ (8000cec <DuckEngineHanleInput+0x1b4>)
 8000c20:	2201      	movs	r2, #1
 8000c22:	701a      	strb	r2, [r3, #0]
 8000c24:	e002      	b.n	8000c2c <DuckEngineHanleInput+0xf4>
		isUpHeld = 0;
 8000c26:	4b31      	ldr	r3, [pc, #196]	@ (8000cec <DuckEngineHanleInput+0x1b4>)
 8000c28:	2200      	movs	r2, #0
 8000c2a:	701a      	strb	r2, [r3, #0]
	if (joystick_y <= -100) {
 8000c2c:	f114 0f63 	cmn.w	r4, #99	@ 0x63
 8000c30:	da12      	bge.n	8000c58 <DuckEngineHanleInput+0x120>
		if (!isDownHeld) {
 8000c32:	4b2f      	ldr	r3, [pc, #188]	@ (8000cf0 <DuckEngineHanleInput+0x1b8>)
 8000c34:	781b      	ldrb	r3, [r3, #0]
 8000c36:	b993      	cbnz	r3, 8000c5e <DuckEngineHanleInput+0x126>
			ipev = J_DOWN;
 8000c38:	2306      	movs	r3, #6
 8000c3a:	f88d 3007 	strb.w	r3, [sp, #7]
			xQueueSend(InputEventHandle, &ipev, portMAX_DELAY);
 8000c3e:	2300      	movs	r3, #0
 8000c40:	f04f 32ff 	mov.w	r2, #4294967295
 8000c44:	f10d 0107 	add.w	r1, sp, #7
 8000c48:	4826      	ldr	r0, [pc, #152]	@ (8000ce4 <DuckEngineHanleInput+0x1ac>)
 8000c4a:	6800      	ldr	r0, [r0, #0]
 8000c4c:	f005 f8dd 	bl	8005e0a <xQueueGenericSend>
			isDownHeld = 1;
 8000c50:	4b27      	ldr	r3, [pc, #156]	@ (8000cf0 <DuckEngineHanleInput+0x1b8>)
 8000c52:	2201      	movs	r2, #1
 8000c54:	701a      	strb	r2, [r3, #0]
 8000c56:	e002      	b.n	8000c5e <DuckEngineHanleInput+0x126>
		isDownHeld = 0;
 8000c58:	4b25      	ldr	r3, [pc, #148]	@ (8000cf0 <DuckEngineHanleInput+0x1b8>)
 8000c5a:	2200      	movs	r2, #0
 8000c5c:	701a      	strb	r2, [r3, #0]
	if (HAL_GPIO_ReadPin(GPIOA, GPIO_PIN_4) == 1) {
 8000c5e:	2110      	movs	r1, #16
 8000c60:	4824      	ldr	r0, [pc, #144]	@ (8000cf4 <DuckEngineHanleInput+0x1bc>)
 8000c62:	f003 fc25 	bl	80044b0 <HAL_GPIO_ReadPin>
 8000c66:	2801      	cmp	r0, #1
 8000c68:	d00c      	beq.n	8000c84 <DuckEngineHanleInput+0x14c>
		isAHeld = 0;
 8000c6a:	4b23      	ldr	r3, [pc, #140]	@ (8000cf8 <DuckEngineHanleInput+0x1c0>)
 8000c6c:	2200      	movs	r2, #0
 8000c6e:	701a      	strb	r2, [r3, #0]
	if (HAL_GPIO_ReadPin(GPIOA, GPIO_PIN_6) == 1) {
 8000c70:	2140      	movs	r1, #64	@ 0x40
 8000c72:	4820      	ldr	r0, [pc, #128]	@ (8000cf4 <DuckEngineHanleInput+0x1bc>)
 8000c74:	f003 fc1c 	bl	80044b0 <HAL_GPIO_ReadPin>
 8000c78:	2801      	cmp	r0, #1
 8000c7a:	d015      	beq.n	8000ca8 <DuckEngineHanleInput+0x170>
		isBHeld = 0;
 8000c7c:	4b1f      	ldr	r3, [pc, #124]	@ (8000cfc <DuckEngineHanleInput+0x1c4>)
 8000c7e:	2200      	movs	r2, #0
 8000c80:	701a      	strb	r2, [r3, #0]
 8000c82:	e762      	b.n	8000b4a <DuckEngineHanleInput+0x12>
		if (!isAHeld) {
 8000c84:	4b1c      	ldr	r3, [pc, #112]	@ (8000cf8 <DuckEngineHanleInput+0x1c0>)
 8000c86:	781b      	ldrb	r3, [r3, #0]
 8000c88:	2b00      	cmp	r3, #0
 8000c8a:	d1f1      	bne.n	8000c70 <DuckEngineHanleInput+0x138>
			ipev = BUTTON_A_CLICK;
 8000c8c:	f88d 3007 	strb.w	r3, [sp, #7]
			xQueueSend(InputEventHandle, &ipev, portMAX_DELAY);
 8000c90:	f04f 32ff 	mov.w	r2, #4294967295
 8000c94:	f10d 0107 	add.w	r1, sp, #7
 8000c98:	4812      	ldr	r0, [pc, #72]	@ (8000ce4 <DuckEngineHanleInput+0x1ac>)
 8000c9a:	6800      	ldr	r0, [r0, #0]
 8000c9c:	f005 f8b5 	bl	8005e0a <xQueueGenericSend>
			isAHeld = 1;
 8000ca0:	4b15      	ldr	r3, [pc, #84]	@ (8000cf8 <DuckEngineHanleInput+0x1c0>)
 8000ca2:	2201      	movs	r2, #1
 8000ca4:	701a      	strb	r2, [r3, #0]
 8000ca6:	e7e3      	b.n	8000c70 <DuckEngineHanleInput+0x138>
		if (!isBHeld) {
 8000ca8:	4b14      	ldr	r3, [pc, #80]	@ (8000cfc <DuckEngineHanleInput+0x1c4>)
 8000caa:	781b      	ldrb	r3, [r3, #0]
 8000cac:	2b00      	cmp	r3, #0
 8000cae:	f47f af4c 	bne.w	8000b4a <DuckEngineHanleInput+0x12>
			ipev = BUTTON_B_CLICK;
 8000cb2:	2401      	movs	r4, #1
 8000cb4:	f88d 4007 	strb.w	r4, [sp, #7]
			xQueueSend(InputEventHandle, &ipev, portMAX_DELAY);
 8000cb8:	f04f 32ff 	mov.w	r2, #4294967295
 8000cbc:	f10d 0107 	add.w	r1, sp, #7
 8000cc0:	4808      	ldr	r0, [pc, #32]	@ (8000ce4 <DuckEngineHanleInput+0x1ac>)
 8000cc2:	6800      	ldr	r0, [r0, #0]
 8000cc4:	f005 f8a1 	bl	8005e0a <xQueueGenericSend>
			isBHeld = 1;
 8000cc8:	4b0c      	ldr	r3, [pc, #48]	@ (8000cfc <DuckEngineHanleInput+0x1c4>)
 8000cca:	701c      	strb	r4, [r3, #0]
 8000ccc:	e73d      	b.n	8000b4a <DuckEngineHanleInput+0x12>
 8000cce:	bf00      	nop
 8000cd0:	20001358 	.word	0x20001358
 8000cd4:	20001880 	.word	0x20001880
 8000cd8:	200018b0 	.word	0x200018b0
 8000cdc:	66666667 	.word	0x66666667
 8000ce0:	20001355 	.word	0x20001355
 8000ce4:	2000177c 	.word	0x2000177c
 8000ce8:	20001354 	.word	0x20001354
 8000cec:	20001353 	.word	0x20001353
 8000cf0:	20001352 	.word	0x20001352
 8000cf4:	40010800 	.word	0x40010800
 8000cf8:	20001351 	.word	0x20001351
 8000cfc:	20001350 	.word	0x20001350

08000d00 <InputTask>:
 * @brief Function implementing the StartInputTask thread.
 * @param argument: Not used
 * @retval None
 */
/* USER CODE END Header_InputTask */
void InputTask(void const *argument) {
 8000d00:	b508      	push	{r3, lr}
	for (;;) {
		DuckEngineHanleInput();
 8000d02:	f7ff ff19 	bl	8000b38 <DuckEngineHanleInput>
		osDelay(1);
 8000d06:	2001      	movs	r0, #1
 8000d08:	f004 fec0 	bl	8005a8c <osDelay>
	for (;;) {
 8000d0c:	e7f9      	b.n	8000d02 <InputTask+0x2>
	...

08000d10 <DuckEngine_Draw_Header>:
void DuckEngine_Draw_Header() {
 8000d10:	b510      	push	{r4, lr}
 8000d12:	b082      	sub	sp, #8
	duckDriver.DrawLine(0, 26, 280, 26, WHITE);
 8000d14:	4b06      	ldr	r3, [pc, #24]	@ (8000d30 <DuckEngine_Draw_Header+0x20>)
 8000d16:	685c      	ldr	r4, [r3, #4]
 8000d18:	f64f 73ff 	movw	r3, #65535	@ 0xffff
 8000d1c:	9300      	str	r3, [sp, #0]
 8000d1e:	231a      	movs	r3, #26
 8000d20:	f44f 728c 	mov.w	r2, #280	@ 0x118
 8000d24:	4619      	mov	r1, r3
 8000d26:	2000      	movs	r0, #0
 8000d28:	47a0      	blx	r4
}
 8000d2a:	b002      	add	sp, #8
 8000d2c:	bd10      	pop	{r4, pc}
 8000d2e:	bf00      	nop
 8000d30:	20000010 	.word	0x20000010

08000d34 <DuckEngine_Draw_Footer>:
void DuckEngine_Draw_Footer() {
 8000d34:	b510      	push	{r4, lr}
 8000d36:	b082      	sub	sp, #8
	duckDriver.DrawFilledRectangle(0, 210, 280, 30, DEEPPURPLE);
 8000d38:	4b06      	ldr	r3, [pc, #24]	@ (8000d54 <DuckEngine_Draw_Footer+0x20>)
 8000d3a:	68dc      	ldr	r4, [r3, #12]
 8000d3c:	f246 2394 	movw	r3, #25236	@ 0x6294
 8000d40:	9300      	str	r3, [sp, #0]
 8000d42:	231e      	movs	r3, #30
 8000d44:	f44f 728c 	mov.w	r2, #280	@ 0x118
 8000d48:	21d2      	movs	r1, #210	@ 0xd2
 8000d4a:	2000      	movs	r0, #0
 8000d4c:	47a0      	blx	r4
}
 8000d4e:	b002      	add	sp, #8
 8000d50:	bd10      	pop	{r4, pc}
 8000d52:	bf00      	nop
 8000d54:	20000010 	.word	0x20000010

08000d58 <_write>:
int _write(int fd, unsigned char *buf, int len) {
 8000d58:	b510      	push	{r4, lr}
 8000d5a:	4614      	mov	r4, r2
	if (fd == 1 || fd == 2) {
 8000d5c:	3801      	subs	r0, #1
 8000d5e:	2801      	cmp	r0, #1
 8000d60:	d901      	bls.n	8000d66 <_write+0xe>
}
 8000d62:	4620      	mov	r0, r4
 8000d64:	bd10      	pop	{r4, pc}
		HAL_UART_Transmit(&huart3, buf, len, 999);
 8000d66:	f240 33e7 	movw	r3, #999	@ 0x3e7
 8000d6a:	b292      	uxth	r2, r2
 8000d6c:	4801      	ldr	r0, [pc, #4]	@ (8000d74 <_write+0x1c>)
 8000d6e:	f004 fbb2 	bl	80054d6 <HAL_UART_Transmit>
 8000d72:	e7f6      	b.n	8000d62 <_write+0xa>
 8000d74:	20001788 	.word	0x20001788

08000d78 <sendUARTCommand>:
		uint16_t response_size) {
 8000d78:	b5f0      	push	{r4, r5, r6, r7, lr}
 8000d7a:	b083      	sub	sp, #12
 8000d7c:	4604      	mov	r4, r0
 8000d7e:	460f      	mov	r7, r1
 8000d80:	4615      	mov	r5, r2
	memset(response, '\0', response_size);
 8000d82:	2100      	movs	r1, #0
 8000d84:	4638      	mov	r0, r7
 8000d86:	f006 fbd1 	bl	800752c <memset>
	while (HAL_UART_Receive(&huart3, &dummy_read, 1, 10) == HAL_OK)
 8000d8a:	230a      	movs	r3, #10
 8000d8c:	2201      	movs	r2, #1
 8000d8e:	f10d 0107 	add.w	r1, sp, #7
 8000d92:	481d      	ldr	r0, [pc, #116]	@ (8000e08 <sendUARTCommand+0x90>)
 8000d94:	f004 fc05 	bl	80055a2 <HAL_UART_Receive>
 8000d98:	2800      	cmp	r0, #0
 8000d9a:	d0f6      	beq.n	8000d8a <sendUARTCommand+0x12>
	HAL_UART_Transmit(&huart3, (uint8_t*) command, strlen(command),
 8000d9c:	4620      	mov	r0, r4
 8000d9e:	f7ff f9d7 	bl	8000150 <strlen>
 8000da2:	4e19      	ldr	r6, [pc, #100]	@ (8000e08 <sendUARTCommand+0x90>)
 8000da4:	f04f 33ff 	mov.w	r3, #4294967295
 8000da8:	b282      	uxth	r2, r0
 8000daa:	4621      	mov	r1, r4
 8000dac:	4630      	mov	r0, r6
 8000dae:	f004 fb92 	bl	80054d6 <HAL_UART_Transmit>
	HAL_UART_Transmit(&huart3, (uint8_t*) "\n", 1, HAL_MAX_DELAY);
 8000db2:	f04f 33ff 	mov.w	r3, #4294967295
 8000db6:	2201      	movs	r2, #1
 8000db8:	4914      	ldr	r1, [pc, #80]	@ (8000e0c <sendUARTCommand+0x94>)
 8000dba:	4630      	mov	r0, r6
 8000dbc:	f004 fb8b 	bl	80054d6 <HAL_UART_Transmit>
	uint32_t startTime = HAL_GetTick();
 8000dc0:	f002 ff6e 	bl	8003ca0 <HAL_GetTick>
 8000dc4:	4606      	mov	r6, r0
	uint16_t index = 0;
 8000dc6:	2400      	movs	r4, #0
	while (index < response_size - 1 && (HAL_GetTick() - startTime) < timeout) {
 8000dc8:	1e6b      	subs	r3, r5, #1
 8000dca:	429c      	cmp	r4, r3
 8000dcc:	da18      	bge.n	8000e00 <sendUARTCommand+0x88>
 8000dce:	f002 ff67 	bl	8003ca0 <HAL_GetTick>
 8000dd2:	1b80      	subs	r0, r0, r6
 8000dd4:	f5b0 7f7a 	cmp.w	r0, #1000	@ 0x3e8
 8000dd8:	d212      	bcs.n	8000e00 <sendUARTCommand+0x88>
		if (HAL_UART_Receive(&huart3, &c, 1, 10) == HAL_OK) {
 8000dda:	230a      	movs	r3, #10
 8000ddc:	2201      	movs	r2, #1
 8000dde:	f10d 0106 	add.w	r1, sp, #6
 8000de2:	4809      	ldr	r0, [pc, #36]	@ (8000e08 <sendUARTCommand+0x90>)
 8000de4:	f004 fbdd 	bl	80055a2 <HAL_UART_Receive>
 8000de8:	2800      	cmp	r0, #0
 8000dea:	d1ed      	bne.n	8000dc8 <sendUARTCommand+0x50>
			if (c == '\n' || c == '\r') {
 8000dec:	f89d 3006 	ldrb.w	r3, [sp, #6]
 8000df0:	2b0a      	cmp	r3, #10
 8000df2:	d005      	beq.n	8000e00 <sendUARTCommand+0x88>
 8000df4:	2b0d      	cmp	r3, #13
 8000df6:	d003      	beq.n	8000e00 <sendUARTCommand+0x88>
			response[index++] = c;
 8000df8:	1c62      	adds	r2, r4, #1
 8000dfa:	553b      	strb	r3, [r7, r4]
 8000dfc:	b294      	uxth	r4, r2
 8000dfe:	e7e3      	b.n	8000dc8 <sendUARTCommand+0x50>
	response[index] = '\0';
 8000e00:	2300      	movs	r3, #0
 8000e02:	553b      	strb	r3, [r7, r4]
}
 8000e04:	b003      	add	sp, #12
 8000e06:	bdf0      	pop	{r4, r5, r6, r7, pc}
 8000e08:	20001788 	.word	0x20001788
 8000e0c:	08009a08 	.word	0x08009a08

08000e10 <getStorageInfo>:
void getStorageInfo(char *response, uint16_t response_size) {
 8000e10:	b538      	push	{r3, r4, r5, lr}
 8000e12:	4604      	mov	r4, r0
 8000e14:	460d      	mov	r5, r1
	sendUARTCommand("GET_STORAGE", response, response_size);
 8000e16:	460a      	mov	r2, r1
 8000e18:	4601      	mov	r1, r0
 8000e1a:	4808      	ldr	r0, [pc, #32]	@ (8000e3c <getStorageInfo+0x2c>)
 8000e1c:	f7ff ffac 	bl	8000d78 <sendUARTCommand>
	if (strncmp(response, "ERROR", 5) == 0) {
 8000e20:	2205      	movs	r2, #5
 8000e22:	4907      	ldr	r1, [pc, #28]	@ (8000e40 <getStorageInfo+0x30>)
 8000e24:	4620      	mov	r0, r4
 8000e26:	f006 fb96 	bl	8007556 <strncmp>
 8000e2a:	b100      	cbz	r0, 8000e2e <getStorageInfo+0x1e>
}
 8000e2c:	bd38      	pop	{r3, r4, r5, pc}
		snprintf(response, response_size, "Error: GET_STORAGE");
 8000e2e:	4a05      	ldr	r2, [pc, #20]	@ (8000e44 <getStorageInfo+0x34>)
 8000e30:	4629      	mov	r1, r5
 8000e32:	4620      	mov	r0, r4
 8000e34:	f006 fa52 	bl	80072dc <sniprintf>
}
 8000e38:	e7f8      	b.n	8000e2c <getStorageInfo+0x1c>
 8000e3a:	bf00      	nop
 8000e3c:	08009a0c 	.word	0x08009a0c
 8000e40:	08009a18 	.word	0x08009a18
 8000e44:	08009a20 	.word	0x08009a20

08000e48 <getFilesInfo>:
void getFilesInfo(char *response, uint16_t response_size) {
 8000e48:	b538      	push	{r3, r4, r5, lr}
 8000e4a:	4604      	mov	r4, r0
 8000e4c:	460d      	mov	r5, r1
	sendUARTCommand("GET_FILES", response, response_size);
 8000e4e:	460a      	mov	r2, r1
 8000e50:	4601      	mov	r1, r0
 8000e52:	480a      	ldr	r0, [pc, #40]	@ (8000e7c <getFilesInfo+0x34>)
 8000e54:	f7ff ff90 	bl	8000d78 <sendUARTCommand>
	if (strncmp(response, "ERROR", 5) == 0
 8000e58:	2205      	movs	r2, #5
 8000e5a:	4909      	ldr	r1, [pc, #36]	@ (8000e80 <getFilesInfo+0x38>)
 8000e5c:	4620      	mov	r0, r4
 8000e5e:	f006 fb7a 	bl	8007556 <strncmp>
 8000e62:	b128      	cbz	r0, 8000e70 <getFilesInfo+0x28>
			|| strncmp(response, "Files: ", 7) != 0) {
 8000e64:	2207      	movs	r2, #7
 8000e66:	4907      	ldr	r1, [pc, #28]	@ (8000e84 <getFilesInfo+0x3c>)
 8000e68:	4620      	mov	r0, r4
 8000e6a:	f006 fb74 	bl	8007556 <strncmp>
 8000e6e:	b120      	cbz	r0, 8000e7a <getFilesInfo+0x32>
		snprintf(response, response_size, "Files: 0");
 8000e70:	4a05      	ldr	r2, [pc, #20]	@ (8000e88 <getFilesInfo+0x40>)
 8000e72:	4629      	mov	r1, r5
 8000e74:	4620      	mov	r0, r4
 8000e76:	f006 fa31 	bl	80072dc <sniprintf>
}
 8000e7a:	bd38      	pop	{r3, r4, r5, pc}
 8000e7c:	08009a34 	.word	0x08009a34
 8000e80:	08009a18 	.word	0x08009a18
 8000e84:	08009a40 	.word	0x08009a40
 8000e88:	08009a48 	.word	0x08009a48

08000e8c <getUptime>:
void getUptime(char *response, uint16_t response_size) {
 8000e8c:	b538      	push	{r3, r4, r5, lr}
 8000e8e:	4604      	mov	r4, r0
 8000e90:	460d      	mov	r5, r1
	sendUARTCommand("GET_UPTIME", response, response_size);
 8000e92:	460a      	mov	r2, r1
 8000e94:	4601      	mov	r1, r0
 8000e96:	4808      	ldr	r0, [pc, #32]	@ (8000eb8 <getUptime+0x2c>)
 8000e98:	f7ff ff6e 	bl	8000d78 <sendUARTCommand>
	if (strncmp(response, "ERROR", 5) == 0) {
 8000e9c:	2205      	movs	r2, #5
 8000e9e:	4907      	ldr	r1, [pc, #28]	@ (8000ebc <getUptime+0x30>)
 8000ea0:	4620      	mov	r0, r4
 8000ea2:	f006 fb58 	bl	8007556 <strncmp>
 8000ea6:	b100      	cbz	r0, 8000eaa <getUptime+0x1e>
}
 8000ea8:	bd38      	pop	{r3, r4, r5, pc}
		snprintf(response, response_size, "Error: GET_UPTIME");
 8000eaa:	4a05      	ldr	r2, [pc, #20]	@ (8000ec0 <getUptime+0x34>)
 8000eac:	4629      	mov	r1, r5
 8000eae:	4620      	mov	r0, r4
 8000eb0:	f006 fa14 	bl	80072dc <sniprintf>
}
 8000eb4:	e7f8      	b.n	8000ea8 <getUptime+0x1c>
 8000eb6:	bf00      	nop
 8000eb8:	08009a54 	.word	0x08009a54
 8000ebc:	08009a18 	.word	0x08009a18
 8000ec0:	08009a60 	.word	0x08009a60

08000ec4 <getMemoryInfo>:
void getMemoryInfo(char *response, uint16_t response_size) {
 8000ec4:	b538      	push	{r3, r4, r5, lr}
 8000ec6:	4604      	mov	r4, r0
 8000ec8:	460d      	mov	r5, r1
	sendUARTCommand("GET_MEMORY", response, response_size);
 8000eca:	460a      	mov	r2, r1
 8000ecc:	4601      	mov	r1, r0
 8000ece:	4808      	ldr	r0, [pc, #32]	@ (8000ef0 <getMemoryInfo+0x2c>)
 8000ed0:	f7ff ff52 	bl	8000d78 <sendUARTCommand>
	if (strncmp(response, "ERROR", 5) == 0) {
 8000ed4:	2205      	movs	r2, #5
 8000ed6:	4907      	ldr	r1, [pc, #28]	@ (8000ef4 <getMemoryInfo+0x30>)
 8000ed8:	4620      	mov	r0, r4
 8000eda:	f006 fb3c 	bl	8007556 <strncmp>
 8000ede:	b100      	cbz	r0, 8000ee2 <getMemoryInfo+0x1e>
}
 8000ee0:	bd38      	pop	{r3, r4, r5, pc}
		snprintf(response, response_size, "Error: GET_MEMORY");
 8000ee2:	4a05      	ldr	r2, [pc, #20]	@ (8000ef8 <getMemoryInfo+0x34>)
 8000ee4:	4629      	mov	r1, r5
 8000ee6:	4620      	mov	r0, r4
 8000ee8:	f006 f9f8 	bl	80072dc <sniprintf>
}
 8000eec:	e7f8      	b.n	8000ee0 <getMemoryInfo+0x1c>
 8000eee:	bf00      	nop
 8000ef0:	08009a74 	.word	0x08009a74
 8000ef4:	08009a18 	.word	0x08009a18
 8000ef8:	08009a80 	.word	0x08009a80

08000efc <getWiFiStatus>:
void getWiFiStatus(char *response, uint16_t response_size) {
 8000efc:	b538      	push	{r3, r4, r5, lr}
 8000efe:	4604      	mov	r4, r0
 8000f00:	460d      	mov	r5, r1
	sendUARTCommand("GET_WIFI", response, response_size);
 8000f02:	460a      	mov	r2, r1
 8000f04:	4601      	mov	r1, r0
 8000f06:	4808      	ldr	r0, [pc, #32]	@ (8000f28 <getWiFiStatus+0x2c>)
 8000f08:	f7ff ff36 	bl	8000d78 <sendUARTCommand>
	if (strncmp(response, "ERROR", 5) == 0) {
 8000f0c:	2205      	movs	r2, #5
 8000f0e:	4907      	ldr	r1, [pc, #28]	@ (8000f2c <getWiFiStatus+0x30>)
 8000f10:	4620      	mov	r0, r4
 8000f12:	f006 fb20 	bl	8007556 <strncmp>
 8000f16:	b100      	cbz	r0, 8000f1a <getWiFiStatus+0x1e>
}
 8000f18:	bd38      	pop	{r3, r4, r5, pc}
		snprintf(response, response_size, "Error: GET_WIFI");
 8000f1a:	4a05      	ldr	r2, [pc, #20]	@ (8000f30 <getWiFiStatus+0x34>)
 8000f1c:	4629      	mov	r1, r5
 8000f1e:	4620      	mov	r0, r4
 8000f20:	f006 f9dc 	bl	80072dc <sniprintf>
}
 8000f24:	e7f8      	b.n	8000f18 <getWiFiStatus+0x1c>
 8000f26:	bf00      	nop
 8000f28:	08009a94 	.word	0x08009a94
 8000f2c:	08009a18 	.word	0x08009a18
 8000f30:	08009aa0 	.word	0x08009aa0

08000f34 <UpdateWifiModal>:
void UpdateWifiModal() {
 8000f34:	e92d 41f0 	stmdb	sp!, {r4, r5, r6, r7, r8, lr}
 8000f38:	f5ad 5df5 	sub.w	sp, sp, #7840	@ 0x1ea0
 8000f3c:	b084      	sub	sp, #16
    if (DuckEngine_Get_CurrentPage()->type != PAGE_WIFI_MODAL) {
 8000f3e:	f7ff f98d 	bl	800025c <DuckEngine_Get_CurrentPage>
 8000f42:	f890 312f 	ldrb.w	r3, [r0, #303]	@ 0x12f
 8000f46:	2b05      	cmp	r3, #5
 8000f48:	d102      	bne.n	8000f50 <UpdateWifiModal+0x1c>
    if (!wifiModalState.qr_generated) {
 8000f4a:	4b44      	ldr	r3, [pc, #272]	@ (800105c <UpdateWifiModal+0x128>)
 8000f4c:	781b      	ldrb	r3, [r3, #0]
 8000f4e:	b123      	cbz	r3, 8000f5a <UpdateWifiModal+0x26>
}
 8000f50:	f50d 5df5 	add.w	sp, sp, #7840	@ 0x1ea0
 8000f54:	b004      	add	sp, #16
 8000f56:	e8bd 81f0 	ldmia.w	sp!, {r4, r5, r6, r7, r8, pc}
        memset(wifiModalState.wifi_data, 0, sizeof(wifiModalState.wifi_data));
 8000f5a:	4c41      	ldr	r4, [pc, #260]	@ (8001060 <UpdateWifiModal+0x12c>)
 8000f5c:	2280      	movs	r2, #128	@ 0x80
 8000f5e:	2100      	movs	r1, #0
 8000f60:	4620      	mov	r0, r4
 8000f62:	f006 fae3 	bl	800752c <memset>
        sendUARTCommand("GET_WIFI_QR", wifiModalState.wifi_data, sizeof(wifiModalState.wifi_data) - 1);
 8000f66:	227f      	movs	r2, #127	@ 0x7f
 8000f68:	4621      	mov	r1, r4
 8000f6a:	483e      	ldr	r0, [pc, #248]	@ (8001064 <UpdateWifiModal+0x130>)
 8000f6c:	f7ff ff04 	bl	8000d78 <sendUARTCommand>
        wifiModalState.wifi_data[sizeof(wifiModalState.wifi_data) - 1] = '\0';
 8000f70:	2300      	movs	r3, #0
 8000f72:	f884 307f 	strb.w	r3, [r4, #127]	@ 0x7f
 8000f76:	3c01      	subs	r4, #1
        if (strlen(wifiModalState.wifi_data) == 0) {
 8000f78:	7863      	ldrb	r3, [r4, #1]
 8000f7a:	b99b      	cbnz	r3, 8000fa4 <UpdateWifiModal+0x70>
            duckDriver.WriteString(60, 100, "No WiFi data received", Font_7x10, RED, WHITE);
 8000f7c:	4b3a      	ldr	r3, [pc, #232]	@ (8001068 <UpdateWifiModal+0x134>)
 8000f7e:	6adc      	ldr	r4, [r3, #44]	@ 0x2c
 8000f80:	4b3a      	ldr	r3, [pc, #232]	@ (800106c <UpdateWifiModal+0x138>)
 8000f82:	f64f 72ff 	movw	r2, #65535	@ 0xffff
 8000f86:	9202      	str	r2, [sp, #8]
 8000f88:	f44f 4278 	mov.w	r2, #63488	@ 0xf800
 8000f8c:	9201      	str	r2, [sp, #4]
 8000f8e:	685a      	ldr	r2, [r3, #4]
 8000f90:	9200      	str	r2, [sp, #0]
 8000f92:	681b      	ldr	r3, [r3, #0]
 8000f94:	4a36      	ldr	r2, [pc, #216]	@ (8001070 <UpdateWifiModal+0x13c>)
 8000f96:	2164      	movs	r1, #100	@ 0x64
 8000f98:	203c      	movs	r0, #60	@ 0x3c
 8000f9a:	47a0      	blx	r4
            wifiModalState.qr_generated = true; // Không cần vẽ nữa
 8000f9c:	4b2f      	ldr	r3, [pc, #188]	@ (800105c <UpdateWifiModal+0x128>)
 8000f9e:	2201      	movs	r2, #1
 8000fa0:	701a      	strb	r2, [r3, #0]
            return;
 8000fa2:	e7d5      	b.n	8000f50 <UpdateWifiModal+0x1c>
        bool ok = qrcodegen_encodeText(wifiModalState.wifi_data, tempBuffer, qrcode,
 8000fa4:	2301      	movs	r3, #1
 8000fa6:	9303      	str	r3, [sp, #12]
 8000fa8:	f04f 32ff 	mov.w	r2, #4294967295
 8000fac:	9202      	str	r2, [sp, #8]
 8000fae:	2228      	movs	r2, #40	@ 0x28
 8000fb0:	9201      	str	r2, [sp, #4]
 8000fb2:	9300      	str	r3, [sp, #0]
 8000fb4:	2300      	movs	r3, #0
 8000fb6:	aa04      	add	r2, sp, #16
 8000fb8:	f50d 6176 	add.w	r1, sp, #3936	@ 0xf60
 8000fbc:	4828      	ldr	r0, [pc, #160]	@ (8001060 <UpdateWifiModal+0x12c>)
 8000fbe:	f001 fdc1 	bl	8002b44 <qrcodegen_encodeText>
        if (!ok) {
 8000fc2:	b998      	cbnz	r0, 8000fec <UpdateWifiModal+0xb8>
            duckDriver.WriteString(40, 100, "QR encode failed", Font_7x10, RED, WHITE);
 8000fc4:	4b28      	ldr	r3, [pc, #160]	@ (8001068 <UpdateWifiModal+0x134>)
 8000fc6:	6adc      	ldr	r4, [r3, #44]	@ 0x2c
 8000fc8:	4b28      	ldr	r3, [pc, #160]	@ (800106c <UpdateWifiModal+0x138>)
 8000fca:	f64f 72ff 	movw	r2, #65535	@ 0xffff
 8000fce:	9202      	str	r2, [sp, #8]
 8000fd0:	f44f 4278 	mov.w	r2, #63488	@ 0xf800
 8000fd4:	9201      	str	r2, [sp, #4]
 8000fd6:	685a      	ldr	r2, [r3, #4]
 8000fd8:	9200      	str	r2, [sp, #0]
 8000fda:	681b      	ldr	r3, [r3, #0]
 8000fdc:	4a25      	ldr	r2, [pc, #148]	@ (8001074 <UpdateWifiModal+0x140>)
 8000fde:	2164      	movs	r1, #100	@ 0x64
 8000fe0:	2028      	movs	r0, #40	@ 0x28
 8000fe2:	47a0      	blx	r4
            wifiModalState.qr_generated = true;
 8000fe4:	4b1d      	ldr	r3, [pc, #116]	@ (800105c <UpdateWifiModal+0x128>)
 8000fe6:	2201      	movs	r2, #1
 8000fe8:	701a      	strb	r2, [r3, #0]
            return;
 8000fea:	e7b1      	b.n	8000f50 <UpdateWifiModal+0x1c>
        int size = qrcodegen_getSize(qrcode);
 8000fec:	a804      	add	r0, sp, #16
 8000fee:	f000 fedf 	bl	8001db0 <qrcodegen_getSize>
 8000ff2:	4606      	mov	r6, r0
        int offset_x = (280 - size * scale) / 2;
 8000ff4:	0083      	lsls	r3, r0, #2
 8000ff6:	f5c3 788c 	rsb	r8, r3, #280	@ 0x118
 8000ffa:	ea4f 0868 	mov.w	r8, r8, asr #1
        int offset_y = (240 - size * scale) / 2;
 8000ffe:	f1c3 03f0 	rsb	r3, r3, #240	@ 0xf0
 8001002:	105f      	asrs	r7, r3, #1
        for (int y = 0; y < size; y++) {
 8001004:	2500      	movs	r5, #0
 8001006:	e019      	b.n	800103c <UpdateWifiModal+0x108>
                uint16_t color = qrcodegen_getModule(qrcode, x, y) ? BLACK : WHITE;
 8001008:	f64f 73ff 	movw	r3, #65535	@ 0xffff
                draw_rectangle(offset_x + x * scale, offset_y + y * scale, scale, scale, color);
 800100c:	eb08 0084 	add.w	r0, r8, r4, lsl #2
 8001010:	eb07 0185 	add.w	r1, r7, r5, lsl #2
 8001014:	9300      	str	r3, [sp, #0]
 8001016:	2304      	movs	r3, #4
 8001018:	461a      	mov	r2, r3
 800101a:	b209      	sxth	r1, r1
 800101c:	b200      	sxth	r0, r0
 800101e:	f7ff fd6d 	bl	8000afc <draw_rectangle>
            for (int x = 0; x < size; x++) {
 8001022:	3401      	adds	r4, #1
 8001024:	42b4      	cmp	r4, r6
 8001026:	da08      	bge.n	800103a <UpdateWifiModal+0x106>
                uint16_t color = qrcodegen_getModule(qrcode, x, y) ? BLACK : WHITE;
 8001028:	462a      	mov	r2, r5
 800102a:	4621      	mov	r1, r4
 800102c:	a804      	add	r0, sp, #16
 800102e:	f001 fc0f 	bl	8002850 <qrcodegen_getModule>
 8001032:	2800      	cmp	r0, #0
 8001034:	d0e8      	beq.n	8001008 <UpdateWifiModal+0xd4>
 8001036:	2300      	movs	r3, #0
 8001038:	e7e8      	b.n	800100c <UpdateWifiModal+0xd8>
        for (int y = 0; y < size; y++) {
 800103a:	3501      	adds	r5, #1
 800103c:	42b5      	cmp	r5, r6
 800103e:	da07      	bge.n	8001050 <UpdateWifiModal+0x11c>
            if (DuckEngine_Get_CurrentPage()->type != PAGE_WIFI_MODAL) {
 8001040:	f7ff f90c 	bl	800025c <DuckEngine_Get_CurrentPage>
 8001044:	f890 312f 	ldrb.w	r3, [r0, #303]	@ 0x12f
 8001048:	2b05      	cmp	r3, #5
 800104a:	d181      	bne.n	8000f50 <UpdateWifiModal+0x1c>
            for (int x = 0; x < size; x++) {
 800104c:	2400      	movs	r4, #0
 800104e:	e7e9      	b.n	8001024 <UpdateWifiModal+0xf0>
        DuckEngine_Render();
 8001050:	f7ff f92f 	bl	80002b2 <DuckEngine_Render>
        wifiModalState.qr_generated = true;
 8001054:	4b01      	ldr	r3, [pc, #4]	@ (800105c <UpdateWifiModal+0x128>)
 8001056:	2201      	movs	r2, #1
 8001058:	701a      	strb	r2, [r3, #0]
 800105a:	e779      	b.n	8000f50 <UpdateWifiModal+0x1c>
 800105c:	2000135c 	.word	0x2000135c
 8001060:	2000135d 	.word	0x2000135d
 8001064:	08009ab0 	.word	0x08009ab0
 8001068:	20000010 	.word	0x20000010
 800106c:	20000008 	.word	0x20000008
 8001070:	08009abc 	.word	0x08009abc
 8001074:	08009ad4 	.word	0x08009ad4

08001078 <HomePage>:
void HomePage(DuckPage *page) {
 8001078:	e92d 43f0 	stmdb	sp!, {r4, r5, r6, r7, r8, r9, lr}
 800107c:	b09b      	sub	sp, #108	@ 0x6c
 800107e:	4605      	mov	r5, r0
	DuckEngine_Create_Label(80, 5, "NAS MANAGER", &Font_11x18, SOFTWHITE, BLACK,
 8001080:	2400      	movs	r4, #0
 8001082:	9403      	str	r4, [sp, #12]
 8001084:	9002      	str	r0, [sp, #8]
 8001086:	9401      	str	r4, [sp, #4]
 8001088:	f64e 775d 	movw	r7, #61277	@ 0xef5d
 800108c:	9700      	str	r7, [sp, #0]
 800108e:	4b51      	ldr	r3, [pc, #324]	@ (80011d4 <HomePage+0x15c>)
 8001090:	4a51      	ldr	r2, [pc, #324]	@ (80011d8 <HomePage+0x160>)
 8001092:	2105      	movs	r1, #5
 8001094:	2050      	movs	r0, #80	@ 0x50
 8001096:	f7ff f927 	bl	80002e8 <DuckEngine_Create_Label>
	getStorageInfo(response, sizeof(response));
 800109a:	2140      	movs	r1, #64	@ 0x40
 800109c:	a80a      	add	r0, sp, #40	@ 0x28
 800109e:	f7ff feb7 	bl	8000e10 <getStorageInfo>
	page->storage_label = DuckEngine_Create_Label(10, 35, response, &Font_7x10,
 80010a2:	4e4e      	ldr	r6, [pc, #312]	@ (80011dc <HomePage+0x164>)
 80010a4:	9403      	str	r4, [sp, #12]
 80010a6:	9502      	str	r5, [sp, #8]
 80010a8:	9401      	str	r4, [sp, #4]
 80010aa:	f249 78f6 	movw	r8, #38902	@ 0x97f6
 80010ae:	f8cd 8000 	str.w	r8, [sp]
 80010b2:	4633      	mov	r3, r6
 80010b4:	aa0a      	add	r2, sp, #40	@ 0x28
 80010b6:	2123      	movs	r1, #35	@ 0x23
 80010b8:	200a      	movs	r0, #10
 80010ba:	f7ff f915 	bl	80002e8 <DuckEngine_Create_Label>
 80010be:	6028      	str	r0, [r5, #0]
	getFilesInfo(response, sizeof(response));
 80010c0:	2140      	movs	r1, #64	@ 0x40
 80010c2:	a80a      	add	r0, sp, #40	@ 0x28
 80010c4:	f7ff fec0 	bl	8000e48 <getFilesInfo>
	page->files_label = DuckEngine_Create_Label(10, 50, response, &Font_7x10,
 80010c8:	9403      	str	r4, [sp, #12]
 80010ca:	9502      	str	r5, [sp, #8]
 80010cc:	9401      	str	r4, [sp, #4]
 80010ce:	f8cd 8000 	str.w	r8, [sp]
 80010d2:	4633      	mov	r3, r6
 80010d4:	aa0a      	add	r2, sp, #40	@ 0x28
 80010d6:	2132      	movs	r1, #50	@ 0x32
 80010d8:	200a      	movs	r0, #10
 80010da:	f7ff f905 	bl	80002e8 <DuckEngine_Create_Label>
 80010de:	6068      	str	r0, [r5, #4]
	getUptime(response, sizeof(response));
 80010e0:	2140      	movs	r1, #64	@ 0x40
 80010e2:	a80a      	add	r0, sp, #40	@ 0x28
 80010e4:	f7ff fed2 	bl	8000e8c <getUptime>
	page->uptime_label = DuckEngine_Create_Label(10, 70, response, &Font_7x10,
 80010e8:	9403      	str	r4, [sp, #12]
 80010ea:	9502      	str	r5, [sp, #8]
 80010ec:	9401      	str	r4, [sp, #4]
 80010ee:	f24c 78ff 	movw	r8, #51199	@ 0xc7ff
 80010f2:	f8cd 8000 	str.w	r8, [sp]
 80010f6:	4633      	mov	r3, r6
 80010f8:	aa0a      	add	r2, sp, #40	@ 0x28
 80010fa:	2146      	movs	r1, #70	@ 0x46
 80010fc:	200a      	movs	r0, #10
 80010fe:	f7ff f8f3 	bl	80002e8 <DuckEngine_Create_Label>
 8001102:	60a8      	str	r0, [r5, #8]
	getMemoryInfo(response, sizeof(response));
 8001104:	2140      	movs	r1, #64	@ 0x40
 8001106:	a80a      	add	r0, sp, #40	@ 0x28
 8001108:	f7ff fedc 	bl	8000ec4 <getMemoryInfo>
	page->memory_label = DuckEngine_Create_Label(10, 85, response, &Font_7x10,
 800110c:	9403      	str	r4, [sp, #12]
 800110e:	9502      	str	r5, [sp, #8]
 8001110:	9401      	str	r4, [sp, #4]
 8001112:	f8cd 8000 	str.w	r8, [sp]
 8001116:	4633      	mov	r3, r6
 8001118:	aa0a      	add	r2, sp, #40	@ 0x28
 800111a:	2155      	movs	r1, #85	@ 0x55
 800111c:	200a      	movs	r0, #10
 800111e:	f7ff f8e3 	bl	80002e8 <DuckEngine_Create_Label>
 8001122:	60e8      	str	r0, [r5, #12]
	DuckEngine_Create_Label(10, 110, "WiFi:", &Font_7x10, PASTELPINK, BLACK,
 8001124:	9403      	str	r4, [sp, #12]
 8001126:	9502      	str	r5, [sp, #8]
 8001128:	9401      	str	r4, [sp, #4]
 800112a:	f64f 58b8 	movw	r8, #64952	@ 0xfdb8
 800112e:	f8cd 8000 	str.w	r8, [sp]
 8001132:	4633      	mov	r3, r6
 8001134:	4a2a      	ldr	r2, [pc, #168]	@ (80011e0 <HomePage+0x168>)
 8001136:	216e      	movs	r1, #110	@ 0x6e
 8001138:	200a      	movs	r0, #10
 800113a:	f7ff f8d5 	bl	80002e8 <DuckEngine_Create_Label>
	getWiFiStatus(response, sizeof(response));
 800113e:	2140      	movs	r1, #64	@ 0x40
 8001140:	a80a      	add	r0, sp, #40	@ 0x28
 8001142:	f7ff fedb 	bl	8000efc <getWiFiStatus>
	page->wifi_label = DuckEngine_Create_Label(60, 110, response, &Font_7x10,
 8001146:	9403      	str	r4, [sp, #12]
 8001148:	9502      	str	r5, [sp, #8]
 800114a:	9401      	str	r4, [sp, #4]
 800114c:	f8cd 8000 	str.w	r8, [sp]
 8001150:	4633      	mov	r3, r6
 8001152:	aa0a      	add	r2, sp, #40	@ 0x28
 8001154:	216e      	movs	r1, #110	@ 0x6e
 8001156:	203c      	movs	r0, #60	@ 0x3c
 8001158:	f7ff f8c6 	bl	80002e8 <DuckEngine_Create_Label>
 800115c:	6128      	str	r0, [r5, #16]
	DuckEngine_Create_Button(30, 140, 100, 30, "Connect to WiFi", LABEL_CENTER,
 800115e:	4b21      	ldr	r3, [pc, #132]	@ (80011e4 <HomePage+0x16c>)
 8001160:	9308      	str	r3, [sp, #32]
 8001162:	f04f 0901 	mov.w	r9, #1
 8001166:	f8cd 901c 	str.w	r9, [sp, #28]
 800116a:	9506      	str	r5, [sp, #24]
 800116c:	f64a 63dc 	movw	r3, #44764	@ 0xaedc
 8001170:	9305      	str	r3, [sp, #20]
 8001172:	9404      	str	r4, [sp, #16]
 8001174:	9403      	str	r4, [sp, #12]
 8001176:	9602      	str	r6, [sp, #8]
 8001178:	f04f 0804 	mov.w	r8, #4
 800117c:	f8cd 8004 	str.w	r8, [sp, #4]
 8001180:	4b19      	ldr	r3, [pc, #100]	@ (80011e8 <HomePage+0x170>)
 8001182:	9300      	str	r3, [sp, #0]
 8001184:	231e      	movs	r3, #30
 8001186:	2264      	movs	r2, #100	@ 0x64
 8001188:	218c      	movs	r1, #140	@ 0x8c
 800118a:	4618      	mov	r0, r3
 800118c:	f7ff f8f2 	bl	8000374 <DuckEngine_Create_Button>
	DuckEngine_Create_Button(150, 140, 100, 30, "Change Config", LABEL_CENTER,
 8001190:	4b16      	ldr	r3, [pc, #88]	@ (80011ec <HomePage+0x174>)
 8001192:	9308      	str	r3, [sp, #32]
 8001194:	f8cd 901c 	str.w	r9, [sp, #28]
 8001198:	9506      	str	r5, [sp, #24]
 800119a:	f64f 73f8 	movw	r3, #65528	@ 0xfff8
 800119e:	9305      	str	r3, [sp, #20]
 80011a0:	9404      	str	r4, [sp, #16]
 80011a2:	9403      	str	r4, [sp, #12]
 80011a4:	9602      	str	r6, [sp, #8]
 80011a6:	f8cd 8004 	str.w	r8, [sp, #4]
 80011aa:	4b11      	ldr	r3, [pc, #68]	@ (80011f0 <HomePage+0x178>)
 80011ac:	9300      	str	r3, [sp, #0]
 80011ae:	231e      	movs	r3, #30
 80011b0:	2264      	movs	r2, #100	@ 0x64
 80011b2:	218c      	movs	r1, #140	@ 0x8c
 80011b4:	2096      	movs	r0, #150	@ 0x96
 80011b6:	f7ff f8dd 	bl	8000374 <DuckEngine_Create_Button>
	DuckEngine_Create_Label(100, 200, "Version: 1.0", &Font_7x10, SOFTWHITE,
 80011ba:	9403      	str	r4, [sp, #12]
 80011bc:	9502      	str	r5, [sp, #8]
 80011be:	9401      	str	r4, [sp, #4]
 80011c0:	9700      	str	r7, [sp, #0]
 80011c2:	4633      	mov	r3, r6
 80011c4:	4a0b      	ldr	r2, [pc, #44]	@ (80011f4 <HomePage+0x17c>)
 80011c6:	21c8      	movs	r1, #200	@ 0xc8
 80011c8:	2064      	movs	r0, #100	@ 0x64
 80011ca:	f7ff f88d 	bl	80002e8 <DuckEngine_Create_Label>
}
 80011ce:	b01b      	add	sp, #108	@ 0x6c
 80011d0:	e8bd 83f0 	ldmia.w	sp!, {r4, r5, r6, r7, r8, r9, pc}
 80011d4:	20000000 	.word	0x20000000
 80011d8:	08009ae8 	.word	0x08009ae8
 80011dc:	20000008 	.word	0x20000008
 80011e0:	08009af4 	.word	0x08009af4
 80011e4:	08000709 	.word	0x08000709
 80011e8:	08009afc 	.word	0x08009afc
 80011ec:	080007a1 	.word	0x080007a1
 80011f0:	08009b0c 	.word	0x08009b0c
 80011f4:	08009b1c 	.word	0x08009b1c

080011f8 <UpdateHomePageLabels>:
void UpdateHomePageLabels(DuckPage *page) {
 80011f8:	b570      	push	{r4, r5, r6, lr}
 80011fa:	b0a0      	sub	sp, #128	@ 0x80
 80011fc:	4604      	mov	r4, r0
	getStorageInfo(response, sizeof(response));
 80011fe:	2180      	movs	r1, #128	@ 0x80
 8001200:	4668      	mov	r0, sp
 8001202:	f7ff fe05 	bl	8000e10 <getStorageInfo>
	if (page->storage_label) {
 8001206:	6825      	ldr	r5, [r4, #0]
 8001208:	b16d      	cbz	r5, 8001226 <UpdateHomePageLabels+0x2e>
		memset(label->text, 0, sizeof(label->text));
 800120a:	f105 0614 	add.w	r6, r5, #20
 800120e:	2232      	movs	r2, #50	@ 0x32
 8001210:	2100      	movs	r1, #0
 8001212:	4630      	mov	r0, r6
 8001214:	f006 f98a 	bl	800752c <memset>
		strncpy(label->text, response, sizeof(label->text) - 1);
 8001218:	2231      	movs	r2, #49	@ 0x31
 800121a:	4669      	mov	r1, sp
 800121c:	4630      	mov	r0, r6
 800121e:	f006 f9ac 	bl	800757a <strncpy>
		label->base.isNeedUpdate = 1;
 8001222:	2301      	movs	r3, #1
 8001224:	726b      	strb	r3, [r5, #9]
	getFilesInfo(response, sizeof(response));
 8001226:	2180      	movs	r1, #128	@ 0x80
 8001228:	4668      	mov	r0, sp
 800122a:	f7ff fe0d 	bl	8000e48 <getFilesInfo>
	if (page->files_label) {
 800122e:	6865      	ldr	r5, [r4, #4]
 8001230:	b16d      	cbz	r5, 800124e <UpdateHomePageLabels+0x56>
		memset(label->text, 0, sizeof(label->text));
 8001232:	f105 0614 	add.w	r6, r5, #20
 8001236:	2232      	movs	r2, #50	@ 0x32
 8001238:	2100      	movs	r1, #0
 800123a:	4630      	mov	r0, r6
 800123c:	f006 f976 	bl	800752c <memset>
		strncpy(label->text, response, sizeof(label->text) - 1);
 8001240:	2231      	movs	r2, #49	@ 0x31
 8001242:	4669      	mov	r1, sp
 8001244:	4630      	mov	r0, r6
 8001246:	f006 f998 	bl	800757a <strncpy>
		label->base.isNeedUpdate = 1;
 800124a:	2301      	movs	r3, #1
 800124c:	726b      	strb	r3, [r5, #9]
	getUptime(response, sizeof(response));
 800124e:	2180      	movs	r1, #128	@ 0x80
 8001250:	4668      	mov	r0, sp
 8001252:	f7ff fe1b 	bl	8000e8c <getUptime>
	if (page->uptime_label) {
 8001256:	68a5      	ldr	r5, [r4, #8]
 8001258:	b16d      	cbz	r5, 8001276 <UpdateHomePageLabels+0x7e>
		memset(label->text, 0, sizeof(label->text));
 800125a:	f105 0614 	add.w	r6, r5, #20
 800125e:	2232      	movs	r2, #50	@ 0x32
 8001260:	2100      	movs	r1, #0
 8001262:	4630      	mov	r0, r6
 8001264:	f006 f962 	bl	800752c <memset>
		strncpy(label->text, response, sizeof(label->text) - 1);
 8001268:	2231      	movs	r2, #49	@ 0x31
 800126a:	4669      	mov	r1, sp
 800126c:	4630      	mov	r0, r6
 800126e:	f006 f984 	bl	800757a <strncpy>
		label->base.isNeedUpdate = 1;
 8001272:	2301      	movs	r3, #1
 8001274:	726b      	strb	r3, [r5, #9]
	getMemoryInfo(response, sizeof(response));
 8001276:	2180      	movs	r1, #128	@ 0x80
 8001278:	4668      	mov	r0, sp
 800127a:	f7ff fe23 	bl	8000ec4 <getMemoryInfo>
	if (page->memory_label) {
 800127e:	68e5      	ldr	r5, [r4, #12]
 8001280:	b16d      	cbz	r5, 800129e <UpdateHomePageLabels+0xa6>
		memset(label->text, 0, sizeof(label->text));
 8001282:	f105 0614 	add.w	r6, r5, #20
 8001286:	2232      	movs	r2, #50	@ 0x32
 8001288:	2100      	movs	r1, #0
 800128a:	4630      	mov	r0, r6
 800128c:	f006 f94e 	bl	800752c <memset>
		strncpy(label->text, response, sizeof(label->text) - 1);
 8001290:	2231      	movs	r2, #49	@ 0x31
 8001292:	4669      	mov	r1, sp
 8001294:	4630      	mov	r0, r6
 8001296:	f006 f970 	bl	800757a <strncpy>
		label->base.isNeedUpdate = 1;
 800129a:	2301      	movs	r3, #1
 800129c:	726b      	strb	r3, [r5, #9]
	getWiFiStatus(response, sizeof(response));
 800129e:	2180      	movs	r1, #128	@ 0x80
 80012a0:	4668      	mov	r0, sp
 80012a2:	f7ff fe2b 	bl	8000efc <getWiFiStatus>
	if (page->wifi_label) {
 80012a6:	6924      	ldr	r4, [r4, #16]
 80012a8:	b16c      	cbz	r4, 80012c6 <UpdateHomePageLabels+0xce>
		memset(label->text, 0, sizeof(label->text));
 80012aa:	f104 0514 	add.w	r5, r4, #20
 80012ae:	2232      	movs	r2, #50	@ 0x32
 80012b0:	2100      	movs	r1, #0
 80012b2:	4628      	mov	r0, r5
 80012b4:	f006 f93a 	bl	800752c <memset>
		strncpy(label->text, response, sizeof(label->text) - 1);
 80012b8:	2231      	movs	r2, #49	@ 0x31
 80012ba:	4669      	mov	r1, sp
 80012bc:	4628      	mov	r0, r5
 80012be:	f006 f95c 	bl	800757a <strncpy>
		label->base.isNeedUpdate = 1;
 80012c2:	2301      	movs	r3, #1
 80012c4:	7263      	strb	r3, [r4, #9]
}
 80012c6:	b020      	add	sp, #128	@ 0x80
 80012c8:	bd70      	pop	{r4, r5, r6, pc}
	...

080012cc <StartDefaultTask>:
void StartDefaultTask(void const *argument) {
 80012cc:	b530      	push	{r4, r5, lr}
 80012ce:	b083      	sub	sp, #12
	uint32_t lastUpdateTime = 0;
 80012d0:	2500      	movs	r5, #0
 80012d2:	e013      	b.n	80012fc <StartDefaultTask+0x30>
				&& (HAL_GetTick() - lastUpdateTime >= updateInterval)) {
 80012d4:	f002 fce4 	bl	8003ca0 <HAL_GetTick>
 80012d8:	1b43      	subs	r3, r0, r5
 80012da:	f5b3 7f7a 	cmp.w	r3, #1000	@ 0x3e8
 80012de:	d316      	bcc.n	800130e <StartDefaultTask+0x42>
			UpdateHomePageLabels(page);
 80012e0:	4620      	mov	r0, r4
 80012e2:	f7ff ff89 	bl	80011f8 <UpdateHomePageLabels>
			lastUpdateTime = HAL_GetTick();
 80012e6:	f002 fcdb 	bl	8003ca0 <HAL_GetTick>
 80012ea:	4605      	mov	r5, r0
 80012ec:	e00f      	b.n	800130e <StartDefaultTask+0x42>
				if (page->type != PAGE_HOME) {
 80012ee:	f894 012f 	ldrb.w	r0, [r4, #303]	@ 0x12f
 80012f2:	2801      	cmp	r0, #1
 80012f4:	d128      	bne.n	8001348 <StartDefaultTask+0x7c>
		osDelay(30);
 80012f6:	201e      	movs	r0, #30
 80012f8:	f004 fbc8 	bl	8005a8c <osDelay>
		UpdateWifiModal();
 80012fc:	f7ff fe1a 	bl	8000f34 <UpdateWifiModal>
		DuckPage *page = DuckEngine_Get_CurrentPage();
 8001300:	f7fe ffac 	bl	800025c <DuckEngine_Get_CurrentPage>
 8001304:	4604      	mov	r4, r0
		if (page->type == PAGE_HOME
 8001306:	f890 312f 	ldrb.w	r3, [r0, #303]	@ 0x12f
 800130a:	2b01      	cmp	r3, #1
 800130c:	d0e2      	beq.n	80012d4 <StartDefaultTask+0x8>
		DuckEngine_Render();
 800130e:	f7fe ffd0 	bl	80002b2 <DuckEngine_Render>
		if (xQueueReceive(InputEventHandle, &ipev, 0) == pdPASS) {
 8001312:	2200      	movs	r2, #0
 8001314:	f10d 0107 	add.w	r1, sp, #7
 8001318:	4b20      	ldr	r3, [pc, #128]	@ (800139c <StartDefaultTask+0xd0>)
 800131a:	6818      	ldr	r0, [r3, #0]
 800131c:	f004 fe39 	bl	8005f92 <xQueueReceive>
 8001320:	2801      	cmp	r0, #1
 8001322:	d1e8      	bne.n	80012f6 <StartDefaultTask+0x2a>
			switch (ipev) {
 8001324:	f89d 3007 	ldrb.w	r3, [sp, #7]
 8001328:	2b04      	cmp	r3, #4
 800132a:	d8e4      	bhi.n	80012f6 <StartDefaultTask+0x2a>
 800132c:	a201      	add	r2, pc, #4	@ (adr r2, 8001334 <StartDefaultTask+0x68>)
 800132e:	f852 f023 	ldr.w	pc, [r2, r3, lsl #2]
 8001332:	bf00      	nop
 8001334:	08001351 	.word	0x08001351
 8001338:	080012ef 	.word	0x080012ef
 800133c:	080012f7 	.word	0x080012f7
 8001340:	08001371 	.word	0x08001371
 8001344:	08001387 	.word	0x08001387
					DuckEngine_Set_CurrentPage(page->type, PAGE_HOME);
 8001348:	2101      	movs	r1, #1
 800134a:	f7ff f93f 	bl	80005cc <DuckEngine_Set_CurrentPage>
 800134e:	e7d2      	b.n	80012f6 <StartDefaultTask+0x2a>
				if (page->currentNav
 8001350:	f894 312e 	ldrb.w	r3, [r4, #302]	@ 0x12e
						< page->n_nav&& page->Nav[page->currentNav] != NULL) {
 8001354:	f894 212d 	ldrb.w	r2, [r4, #301]	@ 0x12d
				if (page->currentNav
 8001358:	4293      	cmp	r3, r2
 800135a:	d2cc      	bcs.n	80012f6 <StartDefaultTask+0x2a>
						< page->n_nav&& page->Nav[page->currentNav] != NULL) {
 800135c:	3328      	adds	r3, #40	@ 0x28
 800135e:	f854 0023 	ldr.w	r0, [r4, r3, lsl #2]
 8001362:	2800      	cmp	r0, #0
 8001364:	d0c7      	beq.n	80012f6 <StartDefaultTask+0x2a>
					if (cfm_btn->Callback) {
 8001366:	6903      	ldr	r3, [r0, #16]
 8001368:	2b00      	cmp	r3, #0
 800136a:	d0c4      	beq.n	80012f6 <StartDefaultTask+0x2a>
						cfm_btn->Callback(cfm_btn);
 800136c:	4798      	blx	r3
 800136e:	e7c2      	b.n	80012f6 <StartDefaultTask+0x2a>
				if (page->type == PAGE_WIFI_MODAL) {
 8001370:	f894 312f 	ldrb.w	r3, [r4, #303]	@ 0x12f
 8001374:	2b05      	cmp	r3, #5
 8001376:	d103      	bne.n	8001380 <StartDefaultTask+0xb4>
					page->currentNav = 0; // Ensure navigation to Back button
 8001378:	2300      	movs	r3, #0
 800137a:	f884 312e 	strb.w	r3, [r4, #302]	@ 0x12e
 800137e:	e7ba      	b.n	80012f6 <StartDefaultTask+0x2a>
					DuckEngine_MoveNav_Left();
 8001380:	f7ff f964 	bl	800064c <DuckEngine_MoveNav_Left>
 8001384:	e7b7      	b.n	80012f6 <StartDefaultTask+0x2a>
				if (page->type == PAGE_WIFI_MODAL) {
 8001386:	f894 312f 	ldrb.w	r3, [r4, #303]	@ 0x12f
 800138a:	2b05      	cmp	r3, #5
 800138c:	d103      	bne.n	8001396 <StartDefaultTask+0xca>
					page->currentNav = 0; // Ensure navigation to Back button
 800138e:	2300      	movs	r3, #0
 8001390:	f884 312e 	strb.w	r3, [r4, #302]	@ 0x12e
 8001394:	e7af      	b.n	80012f6 <StartDefaultTask+0x2a>
					DuckEngine_MoveNav_Right();
 8001396:	f7ff f983 	bl	80006a0 <DuckEngine_MoveNav_Right>
 800139a:	e7ac      	b.n	80012f6 <StartDefaultTask+0x2a>
 800139c:	2000177c 	.word	0x2000177c

080013a0 <SystemClock_Config>:
void SystemClock_Config(void) {
 80013a0:	b530      	push	{r4, r5, lr}
 80013a2:	b095      	sub	sp, #84	@ 0x54
	RCC_OscInitTypeDef RCC_OscInitStruct = { 0 };
 80013a4:	2228      	movs	r2, #40	@ 0x28
 80013a6:	2100      	movs	r1, #0
 80013a8:	eb0d 0002 	add.w	r0, sp, r2
 80013ac:	f006 f8be 	bl	800752c <memset>
	RCC_ClkInitTypeDef RCC_ClkInitStruct = { 0 };
 80013b0:	2400      	movs	r4, #0
 80013b2:	9405      	str	r4, [sp, #20]
 80013b4:	9406      	str	r4, [sp, #24]
 80013b6:	9407      	str	r4, [sp, #28]
 80013b8:	9408      	str	r4, [sp, #32]
 80013ba:	9409      	str	r4, [sp, #36]	@ 0x24
	RCC_PeriphCLKInitTypeDef PeriphClkInit = { 0 };
 80013bc:	9401      	str	r4, [sp, #4]
 80013be:	9402      	str	r4, [sp, #8]
 80013c0:	9403      	str	r4, [sp, #12]
 80013c2:	9404      	str	r4, [sp, #16]
	RCC_OscInitStruct.OscillatorType = RCC_OSCILLATORTYPE_HSE;
 80013c4:	2201      	movs	r2, #1
 80013c6:	920a      	str	r2, [sp, #40]	@ 0x28
	RCC_OscInitStruct.HSEState = RCC_HSE_ON;
 80013c8:	f44f 3380 	mov.w	r3, #65536	@ 0x10000
 80013cc:	930b      	str	r3, [sp, #44]	@ 0x2c
	RCC_OscInitStruct.HSIState = RCC_HSI_ON;
 80013ce:	920e      	str	r2, [sp, #56]	@ 0x38
	RCC_OscInitStruct.PLL.PLLState = RCC_PLL_ON;
 80013d0:	2502      	movs	r5, #2
 80013d2:	9511      	str	r5, [sp, #68]	@ 0x44
	RCC_OscInitStruct.PLL.PLLSource = RCC_PLLSOURCE_HSE;
 80013d4:	9312      	str	r3, [sp, #72]	@ 0x48
	RCC_OscInitStruct.PLL.PLLMUL = RCC_PLL_MUL9;
 80013d6:	f44f 13e0 	mov.w	r3, #1835008	@ 0x1c0000
 80013da:	9313      	str	r3, [sp, #76]	@ 0x4c
	HAL_RCC_OscConfig(&RCC_OscInitStruct);
 80013dc:	a80a      	add	r0, sp, #40	@ 0x28
 80013de:	f003 f88b 	bl	80044f8 <HAL_RCC_OscConfig>
	RCC_ClkInitStruct.ClockType = RCC_CLOCKTYPE_HCLK | RCC_CLOCKTYPE_SYSCLK
 80013e2:	230f      	movs	r3, #15
 80013e4:	9305      	str	r3, [sp, #20]
	RCC_ClkInitStruct.SYSCLKSource = RCC_SYSCLKSOURCE_PLLCLK;
 80013e6:	9506      	str	r5, [sp, #24]
	RCC_ClkInitStruct.AHBCLKDivider = RCC_SYSCLK_DIV1;
 80013e8:	9407      	str	r4, [sp, #28]
	RCC_ClkInitStruct.APB1CLKDivider = RCC_HCLK_DIV2;
 80013ea:	f44f 6380 	mov.w	r3, #1024	@ 0x400
 80013ee:	9308      	str	r3, [sp, #32]
	RCC_ClkInitStruct.APB2CLKDivider = RCC_HCLK_DIV1;
 80013f0:	9409      	str	r4, [sp, #36]	@ 0x24
	HAL_RCC_ClockConfig(&RCC_ClkInitStruct, FLASH_LATENCY_2);
 80013f2:	4629      	mov	r1, r5
 80013f4:	a805      	add	r0, sp, #20
 80013f6:	f003 fab1 	bl	800495c <HAL_RCC_ClockConfig>
	PeriphClkInit.PeriphClockSelection = RCC_PERIPHCLK_ADC;
 80013fa:	9501      	str	r5, [sp, #4]
	PeriphClkInit.AdcClockSelection = RCC_ADCPCLK2_DIV6;
 80013fc:	f44f 4300 	mov.w	r3, #32768	@ 0x8000
 8001400:	9303      	str	r3, [sp, #12]
	HAL_RCCEx_PeriphCLKConfig(&PeriphClkInit);
 8001402:	a801      	add	r0, sp, #4
 8001404:	f003 fba4 	bl	8004b50 <HAL_RCCEx_PeriphCLKConfig>
}
 8001408:	b015      	add	sp, #84	@ 0x54
 800140a:	bd30      	pop	{r4, r5, pc}

0800140c <main>:
int main(void) {
 800140c:	b500      	push	{lr}
 800140e:	b093      	sub	sp, #76	@ 0x4c
	HAL_Init();
 8001410:	f002 fc28 	bl	8003c64 <HAL_Init>
	SystemClock_Config();
 8001414:	f7ff ffc4 	bl	80013a0 <SystemClock_Config>
	MX_GPIO_Init();
 8001418:	f7ff fa68 	bl	80008ec <MX_GPIO_Init>
	MX_SPI1_Init();
 800141c:	f7ff fad4 	bl	80009c8 <MX_SPI1_Init>
	MX_ADC1_Init();
 8001420:	f7ff fb12 	bl	8000a48 <MX_ADC1_Init>
	MX_ADC2_Init();
 8001424:	f7ff fb32 	bl	8000a8c <MX_ADC2_Init>
	MX_SPI2_Init();
 8001428:	f7ff faf0 	bl	8000a0c <MX_SPI2_Init>
	MX_USART3_UART_Init();
 800142c:	f7ff fb50 	bl	8000ad0 <MX_USART3_UART_Init>
	HAL_ADC_Start(&hadc1);
 8001430:	4829      	ldr	r0, [pc, #164]	@ (80014d8 <main+0xcc>)
 8001432:	f002 fd37 	bl	8003ea4 <HAL_ADC_Start>
	HAL_ADC_Start(&hadc2);
 8001436:	4829      	ldr	r0, [pc, #164]	@ (80014dc <main+0xd0>)
 8001438:	f002 fd34 	bl	8003ea4 <HAL_ADC_Start>
	DuckEngine_Bind_ST7789();
 800143c:	f002 fa08 	bl	8003850 <DuckEngine_Bind_ST7789>
	usr_home.type = PAGE_HOME;
 8001440:	4c27      	ldr	r4, [pc, #156]	@ (80014e0 <main+0xd4>)
 8001442:	2101      	movs	r1, #1
 8001444:	f884 112f 	strb.w	r1, [r4, #303]	@ 0x12f
	WifiModal.type = PAGE_WIFI_MODAL;
 8001448:	4d26      	ldr	r5, [pc, #152]	@ (80014e4 <main+0xd8>)
 800144a:	2605      	movs	r6, #5
 800144c:	f885 612f 	strb.w	r6, [r5, #303]	@ 0x12f
	DuckEngine_Init_Page(&usr_home, usr_home.type);
 8001450:	4620      	mov	r0, r4
 8001452:	f7fe fec9 	bl	80001e8 <DuckEngine_Init_Page>
	DuckEngine_Init_Page(&WifiModal, PAGE_WIFI_MODAL);
 8001456:	4631      	mov	r1, r6
 8001458:	4628      	mov	r0, r5
 800145a:	f7fe fec5 	bl	80001e8 <DuckEngine_Init_Page>
	DuckEngine_Init_Page(&ConfigModal, PAGE_CONFIG_MODAL);
 800145e:	2106      	movs	r1, #6
 8001460:	4821      	ldr	r0, [pc, #132]	@ (80014e8 <main+0xdc>)
 8001462:	f7fe fec1 	bl	80001e8 <DuckEngine_Init_Page>
	HomePage(&usr_home);
 8001466:	4620      	mov	r0, r4
 8001468:	f7ff fe06 	bl	8001078 <HomePage>
	DuckEngine_Set_StartUpPage(&usr_home);
 800146c:	4620      	mov	r0, r4
 800146e:	f7fe ff19 	bl	80002a4 <DuckEngine_Set_StartUpPage>
	osMessageQDef(InputEvent, 16, InputEvent);
 8001472:	4c1e      	ldr	r4, [pc, #120]	@ (80014ec <main+0xe0>)
 8001474:	f10d 0c38 	add.w	ip, sp, #56	@ 0x38
 8001478:	e894 000f 	ldmia.w	r4, {r0, r1, r2, r3}
 800147c:	e88c 000f 	stmia.w	ip, {r0, r1, r2, r3}
	InputEventHandle = osMessageCreate(osMessageQ(InputEvent), NULL);
 8001480:	2100      	movs	r1, #0
 8001482:	4660      	mov	r0, ip
 8001484:	f004 fb09 	bl	8005a9a <osMessageCreate>
 8001488:	4b19      	ldr	r3, [pc, #100]	@ (80014f0 <main+0xe4>)
 800148a:	6018      	str	r0, [r3, #0]
	osThreadDef(defaultTask, StartDefaultTask, osPriorityNormal, 0, 1000);
 800148c:	f10d 0c1c 	add.w	ip, sp, #28
 8001490:	f104 0e10 	add.w	lr, r4, #16
 8001494:	e8be 000f 	ldmia.w	lr!, {r0, r1, r2, r3}
 8001498:	e8ac 000f 	stmia.w	ip!, {r0, r1, r2, r3}
 800149c:	e89e 0007 	ldmia.w	lr, {r0, r1, r2}
 80014a0:	e88c 0007 	stmia.w	ip, {r0, r1, r2}
	defaultTaskHandle = osThreadCreate(osThread(defaultTask), NULL);
 80014a4:	2100      	movs	r1, #0
 80014a6:	a807      	add	r0, sp, #28
 80014a8:	f004 fabd 	bl	8005a26 <osThreadCreate>
 80014ac:	4b11      	ldr	r3, [pc, #68]	@ (80014f4 <main+0xe8>)
 80014ae:	6018      	str	r0, [r3, #0]
	osThreadDef(StartInputTask, InputTask, osPriorityAboveNormal, 0, 512);
 80014b0:	46ee      	mov	lr, sp
 80014b2:	f104 0c2c 	add.w	ip, r4, #44	@ 0x2c
 80014b6:	e8bc 000f 	ldmia.w	ip!, {r0, r1, r2, r3}
 80014ba:	e8ae 000f 	stmia.w	lr!, {r0, r1, r2, r3}
 80014be:	e89c 0007 	ldmia.w	ip, {r0, r1, r2}
 80014c2:	e88e 0007 	stmia.w	lr, {r0, r1, r2}
	StartInputTaskHandle = osThreadCreate(osThread(StartInputTask), NULL);
 80014c6:	2100      	movs	r1, #0
 80014c8:	4668      	mov	r0, sp
 80014ca:	f004 faac 	bl	8005a26 <osThreadCreate>
 80014ce:	4b0a      	ldr	r3, [pc, #40]	@ (80014f8 <main+0xec>)
 80014d0:	6018      	str	r0, [r3, #0]
	osKernelStart();
 80014d2:	f004 faa3 	bl	8005a1c <osKernelStart>
	for (;;) {
 80014d6:	e7fe      	b.n	80014d6 <main+0xca>
 80014d8:	200018b0 	.word	0x200018b0
 80014dc:	20001880 	.word	0x20001880
 80014e0:	20001648 	.word	0x20001648
 80014e4:	20001514 	.word	0x20001514
 80014e8:	200013e0 	.word	0x200013e0
 80014ec:	080083ec 	.word	0x080083ec
 80014f0:	2000177c 	.word	0x2000177c
 80014f4:	20001784 	.word	0x20001784
 80014f8:	20001780 	.word	0x20001780

080014fc <HAL_TIM_PeriodElapsedCallback>:
/**
 * @brief  Period elapsed callback in non blocking mode
 * @param  htim : TIM handle
 * @retval None
 */
void HAL_TIM_PeriodElapsedCallback(TIM_HandleTypeDef *htim) {
 80014fc:	b508      	push	{r3, lr}
	if (htim->Instance == TIM2) {
 80014fe:	6803      	ldr	r3, [r0, #0]
 8001500:	f1b3 4f80 	cmp.w	r3, #1073741824	@ 0x40000000
 8001504:	d000      	beq.n	8001508 <HAL_TIM_PeriodElapsedCallback+0xc>
		HAL_IncTick();
	}
}
 8001506:	bd08      	pop	{r3, pc}
		HAL_IncTick();
 8001508:	f002 fbbe 	bl	8003c88 <HAL_IncTick>
}
 800150c:	e7fb      	b.n	8001506 <HAL_TIM_PeriodElapsedCallback+0xa>

0800150e <reedSolomonMultiply>:
#undef qrcodegen_REED_SOLOMON_DEGREE_MAX


// Returns the product of the two given field elements modulo GF(2^8/0x11D).
// All inputs are valid. This could be implemented as a 256*256 lookup table.
testable uint8_t reedSolomonMultiply(uint8_t x, uint8_t y) {
 800150e:	b500      	push	{lr}
 8001510:	4686      	mov	lr, r0
	// Russian peasant multiplication
	uint8_t z = 0;
	for (int i = 7; i >= 0; i--) {
 8001512:	2207      	movs	r2, #7
	uint8_t z = 0;
 8001514:	2000      	movs	r0, #0
	for (int i = 7; i >= 0; i--) {
 8001516:	e010      	b.n	800153a <reedSolomonMultiply+0x2c>
		z = (uint8_t)((z << 1) ^ ((z >> 7) * 0x11D));
 8001518:	09c3      	lsrs	r3, r0, #7
 800151a:	ebc3 0cc3 	rsb	ip, r3, r3, lsl #3
 800151e:	eb03 038c 	add.w	r3, r3, ip, lsl #2
 8001522:	ea83 0340 	eor.w	r3, r3, r0, lsl #1
 8001526:	b25b      	sxtb	r3, r3
		z ^= ((y >> i) & 1) * x;
 8001528:	fa41 f002 	asr.w	r0, r1, r2
 800152c:	f000 0001 	and.w	r0, r0, #1
 8001530:	fb00 f00e 	mul.w	r0, r0, lr
 8001534:	4058      	eors	r0, r3
 8001536:	b2c0      	uxtb	r0, r0
	for (int i = 7; i >= 0; i--) {
 8001538:	3a01      	subs	r2, #1
 800153a:	2a00      	cmp	r2, #0
 800153c:	daec      	bge.n	8001518 <reedSolomonMultiply+0xa>
	}
	return z;
}
 800153e:	f85d fb04 	ldr.w	pc, [sp], #4
	...

08001544 <getAlignmentPatternPositions>:
// Calculates and stores an ascending list of positions of alignment patterns
// for this version number, returning the length of the list (in the range [0,7]).
// Each position is in the range [0,177), and are used on both the x and y axes.
// This could be implemented as lookup table of 40 variable-length lists of unsigned bytes.
testable int getAlignmentPatternPositions(int version, uint8_t result[7]) {
	if (version == 1)
 8001544:	2801      	cmp	r0, #1
 8001546:	d023      	beq.n	8001590 <getAlignmentPatternPositions+0x4c>
testable int getAlignmentPatternPositions(int version, uint8_t result[7]) {
 8001548:	b500      	push	{lr}
 800154a:	4602      	mov	r2, r0
		return 0;
	int numAlign = version / 7 + 2;
 800154c:	4811      	ldr	r0, [pc, #68]	@ (8001594 <getAlignmentPatternPositions+0x50>)
 800154e:	fb80 3002 	smull	r3, r0, r0, r2
 8001552:	4410      	add	r0, r2
 8001554:	17d3      	asrs	r3, r2, #31
 8001556:	ebc3 03a0 	rsb	r3, r3, r0, asr #2
 800155a:	1c98      	adds	r0, r3, #2
	int step = (version * 8 + numAlign * 3 + 5) / (numAlign * 4 - 4) * 2;
 800155c:	eb00 0c40 	add.w	ip, r0, r0, lsl #1
 8001560:	eb0c 0cc2 	add.w	ip, ip, r2, lsl #3
 8001564:	f10c 0c05 	add.w	ip, ip, #5
 8001568:	3301      	adds	r3, #1
 800156a:	ea4f 0e83 	mov.w	lr, r3, lsl #2
 800156e:	fb9c fcfe 	sdiv	ip, ip, lr
 8001572:	ea4f 0c4c 	mov.w	ip, ip, lsl #1
	for (int i = numAlign - 1, pos = version * 4 + 10; i >= 1; i--, pos -= step)
 8001576:	0092      	lsls	r2, r2, #2
 8001578:	320a      	adds	r2, #10
 800157a:	e003      	b.n	8001584 <getAlignmentPatternPositions+0x40>
		result[i] = (uint8_t)pos;
 800157c:	54ca      	strb	r2, [r1, r3]
	for (int i = numAlign - 1, pos = version * 4 + 10; i >= 1; i--, pos -= step)
 800157e:	3b01      	subs	r3, #1
 8001580:	eba2 020c 	sub.w	r2, r2, ip
 8001584:	2b00      	cmp	r3, #0
 8001586:	dcf9      	bgt.n	800157c <getAlignmentPatternPositions+0x38>
	result[0] = 6;
 8001588:	2306      	movs	r3, #6
 800158a:	700b      	strb	r3, [r1, #0]
	return numAlign;
}
 800158c:	f85d fb04 	ldr.w	pc, [sp], #4
		return 0;
 8001590:	2000      	movs	r0, #0
}
 8001592:	4770      	bx	lr
 8001594:	92492493 	.word	0x92492493

08001598 <getBit>:
}


// Returns true iff the i'th bit of x is set to 1. Requires x >= 0 and 0 <= i <= 14.
static bool getBit(int x, int i) {
	return ((x >> i) & 1) != 0;
 8001598:	4108      	asrs	r0, r1
}
 800159a:	f000 0001 	and.w	r0, r0, #1
 800159e:	4770      	bx	lr

080015a0 <calcSegmentBitLength>:
// - For byte mode, numChars measures the number of bytes, not Unicode code points.
// - For ECI mode, numChars must be 0, and the worst-case number of bits is returned.
//   An actual ECI segment can have shorter data. For non-ECI modes, the result is exact.
testable int calcSegmentBitLength(enum qrcodegen_Mode mode, size_t numChars) {
	// All calculations are designed to avoid overflow on all platforms
	if (numChars > (unsigned int)INT16_MAX)
 80015a0:	f5b1 4f00 	cmp.w	r1, #32768	@ 0x8000
 80015a4:	d239      	bcs.n	800161a <calcSegmentBitLength+0x7a>
testable int calcSegmentBitLength(enum qrcodegen_Mode mode, size_t numChars) {
 80015a6:	b508      	push	{r3, lr}
		return LENGTH_OVERFLOW;
	long result = (long)numChars;
	if (mode == qrcodegen_Mode_NUMERIC)
 80015a8:	3801      	subs	r0, #1
 80015aa:	2807      	cmp	r0, #7
 80015ac:	d827      	bhi.n	80015fe <calcSegmentBitLength+0x5e>
 80015ae:	e8df f000 	tbb	[pc, r0]
 80015b2:	1304      	.short	0x1304
 80015b4:	26261c26 	.word	0x26261c26
 80015b8:	1e23      	.short	0x1e23
		result = (result * 10 + 2) / 3;  // ceil(10/3 * n)
 80015ba:	eb01 0181 	add.w	r1, r1, r1, lsl #2
 80015be:	0049      	lsls	r1, r1, #1
 80015c0:	3102      	adds	r1, #2
 80015c2:	4b19      	ldr	r3, [pc, #100]	@ (8001628 <calcSegmentBitLength+0x88>)
 80015c4:	fb83 2301 	smull	r2, r3, r3, r1
 80015c8:	eba3 70e1 	sub.w	r0, r3, r1, asr #31
		result = 3 * 8;
	else {  // Invalid argument
		assert(false);
		return LENGTH_OVERFLOW;
	}
	assert(result >= 0);
 80015cc:	2800      	cmp	r0, #0
 80015ce:	db1d      	blt.n	800160c <calcSegmentBitLength+0x6c>
	if (result > INT16_MAX)
 80015d0:	f5b0 4f00 	cmp.w	r0, #32768	@ 0x8000
 80015d4:	da24      	bge.n	8001620 <calcSegmentBitLength+0x80>
		return LENGTH_OVERFLOW;
	return (int)result;
}
 80015d6:	bd08      	pop	{r3, pc}
		result = (result * 11 + 1) / 2;  // ceil(11/2 * n)
 80015d8:	eb01 0381 	add.w	r3, r1, r1, lsl #2
 80015dc:	eb01 0143 	add.w	r1, r1, r3, lsl #1
 80015e0:	3101      	adds	r1, #1
 80015e2:	eb01 71d1 	add.w	r1, r1, r1, lsr #31
 80015e6:	1048      	asrs	r0, r1, #1
 80015e8:	e7f0      	b.n	80015cc <calcSegmentBitLength+0x2c>
		result *= 8;
 80015ea:	00c8      	lsls	r0, r1, #3
 80015ec:	e7ee      	b.n	80015cc <calcSegmentBitLength+0x2c>
		result *= 13;
 80015ee:	eb01 0341 	add.w	r3, r1, r1, lsl #1
 80015f2:	eb01 0083 	add.w	r0, r1, r3, lsl #2
 80015f6:	e7e9      	b.n	80015cc <calcSegmentBitLength+0x2c>
	else if (mode == qrcodegen_Mode_ECI && numChars == 0)
 80015f8:	b909      	cbnz	r1, 80015fe <calcSegmentBitLength+0x5e>
		result = 3 * 8;
 80015fa:	2018      	movs	r0, #24
 80015fc:	e7e8      	b.n	80015d0 <calcSegmentBitLength+0x30>
		assert(false);
 80015fe:	4b0b      	ldr	r3, [pc, #44]	@ (800162c <calcSegmentBitLength+0x8c>)
 8001600:	4a0b      	ldr	r2, [pc, #44]	@ (8001630 <calcSegmentBitLength+0x90>)
 8001602:	f240 3163 	movw	r1, #867	@ 0x363
 8001606:	480b      	ldr	r0, [pc, #44]	@ (8001634 <calcSegmentBitLength+0x94>)
 8001608:	f005 fcc8 	bl	8006f9c <__assert_func>
	assert(result >= 0);
 800160c:	4b0a      	ldr	r3, [pc, #40]	@ (8001638 <calcSegmentBitLength+0x98>)
 800160e:	4a08      	ldr	r2, [pc, #32]	@ (8001630 <calcSegmentBitLength+0x90>)
 8001610:	f240 3166 	movw	r1, #870	@ 0x366
 8001614:	4807      	ldr	r0, [pc, #28]	@ (8001634 <calcSegmentBitLength+0x94>)
 8001616:	f005 fcc1 	bl	8006f9c <__assert_func>
		return LENGTH_OVERFLOW;
 800161a:	f04f 30ff 	mov.w	r0, #4294967295
}
 800161e:	4770      	bx	lr
		return LENGTH_OVERFLOW;
 8001620:	f04f 30ff 	mov.w	r0, #4294967295
 8001624:	e7d7      	b.n	80015d6 <calcSegmentBitLength+0x36>
 8001626:	bf00      	nop
 8001628:	55555556 	.word	0x55555556
 800162c:	08009b48 	.word	0x08009b48
 8001630:	0800a368 	.word	0x0800a368
 8001634:	08009b50 	.word	0x08009b50
 8001638:	08009b68 	.word	0x08009b68

0800163c <numCharCountBits>:
}


// Returns the bit width of the character count field for a segment in the given mode
// in a QR Code at the given version number. The result is in the range [0, 16].
static int numCharCountBits(enum qrcodegen_Mode mode, int version) {
 800163c:	b508      	push	{r3, lr}
	assert(qrcodegen_VERSION_MIN <= version && version <= qrcodegen_VERSION_MAX);
 800163e:	1e4b      	subs	r3, r1, #1
 8001640:	2b27      	cmp	r3, #39	@ 0x27
 8001642:	d80f      	bhi.n	8001664 <numCharCountBits+0x28>
	int i = (version + 7) / 17;
 8001644:	3107      	adds	r1, #7
 8001646:	4b17      	ldr	r3, [pc, #92]	@ (80016a4 <numCharCountBits+0x68>)
 8001648:	fb83 2301 	smull	r2, r3, r3, r1
 800164c:	17c9      	asrs	r1, r1, #31
 800164e:	ebc1 01e3 	rsb	r1, r1, r3, asr #3
	switch (mode) {
 8001652:	3801      	subs	r0, #1
 8001654:	2807      	cmp	r0, #7
 8001656:	d81c      	bhi.n	8001692 <numCharCountBits+0x56>
 8001658:	e8df f000 	tbb	[pc, r0]
 800165c:	131b0f0b 	.word	0x131b0f0b
 8001660:	17221b1b 	.word	0x17221b1b
	assert(qrcodegen_VERSION_MIN <= version && version <= qrcodegen_VERSION_MAX);
 8001664:	4b10      	ldr	r3, [pc, #64]	@ (80016a8 <numCharCountBits+0x6c>)
 8001666:	4a11      	ldr	r2, [pc, #68]	@ (80016ac <numCharCountBits+0x70>)
 8001668:	f240 31f6 	movw	r1, #1014	@ 0x3f6
 800166c:	4810      	ldr	r0, [pc, #64]	@ (80016b0 <numCharCountBits+0x74>)
 800166e:	f005 fc95 	bl	8006f9c <__assert_func>
		case qrcodegen_Mode_NUMERIC     : { static const int temp[] = {10, 12, 14}; return temp[i]; }
 8001672:	4b10      	ldr	r3, [pc, #64]	@ (80016b4 <numCharCountBits+0x78>)
 8001674:	f853 0021 	ldr.w	r0, [r3, r1, lsl #2]
		case qrcodegen_Mode_BYTE        : { static const int temp[] = { 8, 16, 16}; return temp[i]; }
		case qrcodegen_Mode_KANJI       : { static const int temp[] = { 8, 10, 12}; return temp[i]; }
		case qrcodegen_Mode_ECI         : return 0;
		default:  assert(false);  return -1;  // Dummy value
	}
}
 8001678:	bd08      	pop	{r3, pc}
		case qrcodegen_Mode_ALPHANUMERIC: { static const int temp[] = { 9, 11, 13}; return temp[i]; }
 800167a:	4b0f      	ldr	r3, [pc, #60]	@ (80016b8 <numCharCountBits+0x7c>)
 800167c:	f853 0021 	ldr.w	r0, [r3, r1, lsl #2]
 8001680:	e7fa      	b.n	8001678 <numCharCountBits+0x3c>
		case qrcodegen_Mode_BYTE        : { static const int temp[] = { 8, 16, 16}; return temp[i]; }
 8001682:	4b0e      	ldr	r3, [pc, #56]	@ (80016bc <numCharCountBits+0x80>)
 8001684:	f853 0021 	ldr.w	r0, [r3, r1, lsl #2]
 8001688:	e7f6      	b.n	8001678 <numCharCountBits+0x3c>
		case qrcodegen_Mode_KANJI       : { static const int temp[] = { 8, 10, 12}; return temp[i]; }
 800168a:	4b0d      	ldr	r3, [pc, #52]	@ (80016c0 <numCharCountBits+0x84>)
 800168c:	f853 0021 	ldr.w	r0, [r3, r1, lsl #2]
 8001690:	e7f2      	b.n	8001678 <numCharCountBits+0x3c>
		default:  assert(false);  return -1;  // Dummy value
 8001692:	4b0c      	ldr	r3, [pc, #48]	@ (80016c4 <numCharCountBits+0x88>)
 8001694:	4a05      	ldr	r2, [pc, #20]	@ (80016ac <numCharCountBits+0x70>)
 8001696:	f240 31fe 	movw	r1, #1022	@ 0x3fe
 800169a:	4805      	ldr	r0, [pc, #20]	@ (80016b0 <numCharCountBits+0x74>)
 800169c:	f005 fc7e 	bl	8006f9c <__assert_func>
	switch (mode) {
 80016a0:	2000      	movs	r0, #0
 80016a2:	e7e9      	b.n	8001678 <numCharCountBits+0x3c>
 80016a4:	78787879 	.word	0x78787879
 80016a8:	08009b74 	.word	0x08009b74
 80016ac:	0800a320 	.word	0x0800a320
 80016b0:	08009b50 	.word	0x08009b50
 80016b4:	0800a314 	.word	0x0800a314
 80016b8:	0800a308 	.word	0x0800a308
 80016bc:	0800a2fc 	.word	0x0800a2fc
 80016c0:	0800a2f0 	.word	0x0800a2f0
 80016c4:	08009b48 	.word	0x08009b48

080016c8 <getTotalBits>:
testable int getTotalBits(const struct qrcodegen_Segment segs[], size_t len, int version) {
 80016c8:	e92d 47f0 	stmdb	sp!, {r4, r5, r6, r7, r8, r9, sl, lr}
 80016cc:	4689      	mov	r9, r1
 80016ce:	4692      	mov	sl, r2
	assert(segs != NULL || len == 0);
 80016d0:	4680      	mov	r8, r0
 80016d2:	b308      	cbz	r0, 8001718 <getTotalBits+0x50>
 80016d4:	2400      	movs	r4, #0
 80016d6:	4625      	mov	r5, r4
	for (size_t i = 0; i < len; i++) {
 80016d8:	454c      	cmp	r4, r9
 80016da:	d23d      	bcs.n	8001758 <getTotalBits+0x90>
		int numChars  = segs[i].numChars;
 80016dc:	0122      	lsls	r2, r4, #4
 80016de:	eb08 1304 	add.w	r3, r8, r4, lsl #4
 80016e2:	685e      	ldr	r6, [r3, #4]
		int bitLength = segs[i].bitLength;
 80016e4:	68df      	ldr	r7, [r3, #12]
		assert(0 <= numChars  && numChars  <= INT16_MAX);
 80016e6:	f5b6 4f00 	cmp.w	r6, #32768	@ 0x8000
 80016ea:	d220      	bcs.n	800172e <getTotalBits+0x66>
		assert(0 <= bitLength && bitLength <= INT16_MAX);
 80016ec:	f5b7 4f00 	cmp.w	r7, #32768	@ 0x8000
 80016f0:	d224      	bcs.n	800173c <getTotalBits+0x74>
		int ccbits = numCharCountBits(segs[i].mode, version);
 80016f2:	4651      	mov	r1, sl
 80016f4:	f818 0002 	ldrb.w	r0, [r8, r2]
 80016f8:	f7ff ffa0 	bl	800163c <numCharCountBits>
		assert(0 <= ccbits && ccbits <= 16);
 80016fc:	2810      	cmp	r0, #16
 80016fe:	d824      	bhi.n	800174a <getTotalBits+0x82>
		if (numChars >= (1L << ccbits))
 8001700:	2301      	movs	r3, #1
 8001702:	4083      	lsls	r3, r0
 8001704:	42b3      	cmp	r3, r6
 8001706:	dd34      	ble.n	8001772 <getTotalBits+0xaa>
		result += 4L + ccbits + bitLength;
 8001708:	3004      	adds	r0, #4
 800170a:	4438      	add	r0, r7
 800170c:	4405      	add	r5, r0
		if (result > INT16_MAX)
 800170e:	f5b5 4f00 	cmp.w	r5, #32768	@ 0x8000
 8001712:	da31      	bge.n	8001778 <getTotalBits+0xb0>
	for (size_t i = 0; i < len; i++) {
 8001714:	3401      	adds	r4, #1
 8001716:	e7df      	b.n	80016d8 <getTotalBits+0x10>
	assert(segs != NULL || len == 0);
 8001718:	b911      	cbnz	r1, 8001720 <getTotalBits+0x58>
 800171a:	460c      	mov	r4, r1
 800171c:	2500      	movs	r5, #0
 800171e:	e7db      	b.n	80016d8 <getTotalBits+0x10>
 8001720:	4b17      	ldr	r3, [pc, #92]	@ (8001780 <getTotalBits+0xb8>)
 8001722:	4a18      	ldr	r2, [pc, #96]	@ (8001784 <getTotalBits+0xbc>)
 8001724:	f240 31df 	movw	r1, #991	@ 0x3df
 8001728:	4817      	ldr	r0, [pc, #92]	@ (8001788 <getTotalBits+0xc0>)
 800172a:	f005 fc37 	bl	8006f9c <__assert_func>
		assert(0 <= numChars  && numChars  <= INT16_MAX);
 800172e:	4b17      	ldr	r3, [pc, #92]	@ (800178c <getTotalBits+0xc4>)
 8001730:	4a14      	ldr	r2, [pc, #80]	@ (8001784 <getTotalBits+0xbc>)
 8001732:	f44f 7179 	mov.w	r1, #996	@ 0x3e4
 8001736:	4814      	ldr	r0, [pc, #80]	@ (8001788 <getTotalBits+0xc0>)
 8001738:	f005 fc30 	bl	8006f9c <__assert_func>
		assert(0 <= bitLength && bitLength <= INT16_MAX);
 800173c:	4b14      	ldr	r3, [pc, #80]	@ (8001790 <getTotalBits+0xc8>)
 800173e:	4a11      	ldr	r2, [pc, #68]	@ (8001784 <getTotalBits+0xbc>)
 8001740:	f240 31e5 	movw	r1, #997	@ 0x3e5
 8001744:	4810      	ldr	r0, [pc, #64]	@ (8001788 <getTotalBits+0xc0>)
 8001746:	f005 fc29 	bl	8006f9c <__assert_func>
		assert(0 <= ccbits && ccbits <= 16);
 800174a:	4b12      	ldr	r3, [pc, #72]	@ (8001794 <getTotalBits+0xcc>)
 800174c:	4a0d      	ldr	r2, [pc, #52]	@ (8001784 <getTotalBits+0xbc>)
 800174e:	f240 31e7 	movw	r1, #999	@ 0x3e7
 8001752:	480d      	ldr	r0, [pc, #52]	@ (8001788 <getTotalBits+0xc0>)
 8001754:	f005 fc22 	bl	8006f9c <__assert_func>
	assert(0 <= result && result <= INT16_MAX);
 8001758:	f5b5 4f00 	cmp.w	r5, #32768	@ 0x8000
 800175c:	d202      	bcs.n	8001764 <getTotalBits+0x9c>
}
 800175e:	4628      	mov	r0, r5
 8001760:	e8bd 87f0 	ldmia.w	sp!, {r4, r5, r6, r7, r8, r9, sl, pc}
	assert(0 <= result && result <= INT16_MAX);
 8001764:	4b0c      	ldr	r3, [pc, #48]	@ (8001798 <getTotalBits+0xd0>)
 8001766:	4a07      	ldr	r2, [pc, #28]	@ (8001784 <getTotalBits+0xbc>)
 8001768:	f240 31ee 	movw	r1, #1006	@ 0x3ee
 800176c:	4806      	ldr	r0, [pc, #24]	@ (8001788 <getTotalBits+0xc0>)
 800176e:	f005 fc15 	bl	8006f9c <__assert_func>
			return LENGTH_OVERFLOW;  // The segment's length doesn't fit the field's bit width
 8001772:	f04f 35ff 	mov.w	r5, #4294967295
 8001776:	e7f2      	b.n	800175e <getTotalBits+0x96>
			return LENGTH_OVERFLOW;  // The sum might overflow an int type
 8001778:	f04f 35ff 	mov.w	r5, #4294967295
 800177c:	e7ef      	b.n	800175e <getTotalBits+0x96>
 800177e:	bf00      	nop
 8001780:	08009bbc 	.word	0x08009bbc
 8001784:	0800a334 	.word	0x0800a334
 8001788:	08009b50 	.word	0x08009b50
 800178c:	08009bd8 	.word	0x08009bd8
 8001790:	08009c00 	.word	0x08009c00
 8001794:	08009c2c 	.word	0x08009c2c
 8001798:	08009c48 	.word	0x08009c48

0800179c <appendBitsToBuffer>:
testable void appendBitsToBuffer(unsigned int val, int numBits, uint8_t buffer[], int *bitLen) {
 800179c:	b538      	push	{r3, r4, r5, lr}
	assert(0 <= numBits && numBits <= 16 && (unsigned long)val >> numBits == 0);
 800179e:	2910      	cmp	r1, #16
 80017a0:	d805      	bhi.n	80017ae <appendBitsToBuffer+0x12>
 80017a2:	fa30 f401 	lsrs.w	r4, r0, r1
 80017a6:	d102      	bne.n	80017ae <appendBitsToBuffer+0x12>
	for (int i = numBits - 1; i >= 0; i--, (*bitLen)++)
 80017a8:	f101 3eff 	add.w	lr, r1, #4294967295
 80017ac:	e018      	b.n	80017e0 <appendBitsToBuffer+0x44>
	assert(0 <= numBits && numBits <= 16 && (unsigned long)val >> numBits == 0);
 80017ae:	4b0e      	ldr	r3, [pc, #56]	@ (80017e8 <appendBitsToBuffer+0x4c>)
 80017b0:	4a0e      	ldr	r2, [pc, #56]	@ (80017ec <appendBitsToBuffer+0x50>)
 80017b2:	21bd      	movs	r1, #189	@ 0xbd
 80017b4:	480e      	ldr	r0, [pc, #56]	@ (80017f0 <appendBitsToBuffer+0x54>)
 80017b6:	f005 fbf1 	bl	8006f9c <__assert_func>
		buffer[*bitLen >> 3] |= ((val >> i) & 1) << (7 - (*bitLen & 7));
 80017ba:	6819      	ldr	r1, [r3, #0]
 80017bc:	10cd      	asrs	r5, r1, #3
 80017be:	5d54      	ldrb	r4, [r2, r5]
 80017c0:	fa20 fc0e 	lsr.w	ip, r0, lr
 80017c4:	f00c 0c01 	and.w	ip, ip, #1
 80017c8:	43c9      	mvns	r1, r1
 80017ca:	f001 0107 	and.w	r1, r1, #7
 80017ce:	fa0c f101 	lsl.w	r1, ip, r1
 80017d2:	4321      	orrs	r1, r4
 80017d4:	5551      	strb	r1, [r2, r5]
	for (int i = numBits - 1; i >= 0; i--, (*bitLen)++)
 80017d6:	f10e 3eff 	add.w	lr, lr, #4294967295
 80017da:	6819      	ldr	r1, [r3, #0]
 80017dc:	3101      	adds	r1, #1
 80017de:	6019      	str	r1, [r3, #0]
 80017e0:	f1be 0f00 	cmp.w	lr, #0
 80017e4:	dae9      	bge.n	80017ba <appendBitsToBuffer+0x1e>
}
 80017e6:	bd38      	pop	{r3, r4, r5, pc}
 80017e8:	08009c6c 	.word	0x08009c6c
 80017ec:	0800a2c8 	.word	0x0800a2c8
 80017f0:	08009b50 	.word	0x08009b50

080017f4 <getNumRawDataModules>:
testable int getNumRawDataModules(int ver) {
 80017f4:	b508      	push	{r3, lr}
	assert(qrcodegen_VERSION_MIN <= ver && ver <= qrcodegen_VERSION_MAX);
 80017f6:	1e43      	subs	r3, r0, #1
 80017f8:	2b27      	cmp	r3, #39	@ 0x27
 80017fa:	d822      	bhi.n	8001842 <getNumRawDataModules+0x4e>
 80017fc:	4602      	mov	r2, r0
	int result = (16 * ver + 128) * ver + 64;
 80017fe:	f100 0308 	add.w	r3, r0, #8
 8001802:	fb00 f303 	mul.w	r3, r0, r3
 8001806:	3304      	adds	r3, #4
 8001808:	0118      	lsls	r0, r3, #4
	if (ver >= 2) {
 800180a:	2a01      	cmp	r2, #1
 800180c:	dd13      	ble.n	8001836 <getNumRawDataModules+0x42>
		int numAlign = ver / 7 + 2;
 800180e:	4b14      	ldr	r3, [pc, #80]	@ (8001860 <getNumRawDataModules+0x6c>)
 8001810:	fb83 1302 	smull	r1, r3, r3, r2
 8001814:	4413      	add	r3, r2
 8001816:	17d1      	asrs	r1, r2, #31
 8001818:	ebc1 01a3 	rsb	r1, r1, r3, asr #2
 800181c:	3102      	adds	r1, #2
		result -= (25 * numAlign - 10) * numAlign - 55;
 800181e:	eb01 0381 	add.w	r3, r1, r1, lsl #2
 8001822:	eb03 0383 	add.w	r3, r3, r3, lsl #2
 8001826:	3b0a      	subs	r3, #10
 8001828:	fb01 f303 	mul.w	r3, r1, r3
 800182c:	3b37      	subs	r3, #55	@ 0x37
 800182e:	1ac0      	subs	r0, r0, r3
		if (ver >= 7)
 8001830:	2a06      	cmp	r2, #6
 8001832:	dd00      	ble.n	8001836 <getNumRawDataModules+0x42>
			result -= 36;
 8001834:	3824      	subs	r0, #36	@ 0x24
	assert(208 <= result && result <= 29648);
 8001836:	f1a0 03d0 	sub.w	r3, r0, #208	@ 0xd0
 800183a:	f5b3 4fe6 	cmp.w	r3, #29440	@ 0x7300
 800183e:	d807      	bhi.n	8001850 <getNumRawDataModules+0x5c>
}
 8001840:	bd08      	pop	{r3, pc}
	assert(qrcodegen_VERSION_MIN <= ver && ver <= qrcodegen_VERSION_MAX);
 8001842:	4b08      	ldr	r3, [pc, #32]	@ (8001864 <getNumRawDataModules+0x70>)
 8001844:	4a08      	ldr	r2, [pc, #32]	@ (8001868 <getNumRawDataModules+0x74>)
 8001846:	f240 1157 	movw	r1, #343	@ 0x157
 800184a:	4808      	ldr	r0, [pc, #32]	@ (800186c <getNumRawDataModules+0x78>)
 800184c:	f005 fba6 	bl	8006f9c <__assert_func>
	assert(208 <= result && result <= 29648);
 8001850:	4b07      	ldr	r3, [pc, #28]	@ (8001870 <getNumRawDataModules+0x7c>)
 8001852:	4a05      	ldr	r2, [pc, #20]	@ (8001868 <getNumRawDataModules+0x74>)
 8001854:	f240 115f 	movw	r1, #351	@ 0x15f
 8001858:	4804      	ldr	r0, [pc, #16]	@ (800186c <getNumRawDataModules+0x78>)
 800185a:	f005 fb9f 	bl	8006f9c <__assert_func>
 800185e:	bf00      	nop
 8001860:	92492493 	.word	0x92492493
 8001864:	08009cb0 	.word	0x08009cb0
 8001868:	0800a264 	.word	0x0800a264
 800186c:	08009b50 	.word	0x08009b50
 8001870:	08009cf0 	.word	0x08009cf0

08001874 <getNumDataCodewords>:
testable int getNumDataCodewords(int version, enum qrcodegen_Ecc ecl) {
 8001874:	b538      	push	{r3, r4, r5, lr}
	assert(0 <= e && e < 4);
 8001876:	2903      	cmp	r1, #3
 8001878:	d814      	bhi.n	80018a4 <getNumDataCodewords+0x30>
 800187a:	4605      	mov	r5, r0
 800187c:	460c      	mov	r4, r1
	return getNumRawDataModules(v) / 8
 800187e:	f7ff ffb9 	bl	80017f4 <getNumRawDataModules>
 8001882:	2800      	cmp	r0, #0
 8001884:	db15      	blt.n	80018b2 <getNumDataCodewords+0x3e>
		- ECC_CODEWORDS_PER_BLOCK    [e][v]
 8001886:	eb04 0384 	add.w	r3, r4, r4, lsl #2
 800188a:	eb04 04c3 	add.w	r4, r4, r3, lsl #3
 800188e:	4b0a      	ldr	r3, [pc, #40]	@ (80018b8 <getNumDataCodewords+0x44>)
 8001890:	4423      	add	r3, r4
 8001892:	575b      	ldrsb	r3, [r3, r5]
		* NUM_ERROR_CORRECTION_BLOCKS[e][v];
 8001894:	4a09      	ldr	r2, [pc, #36]	@ (80018bc <getNumDataCodewords+0x48>)
 8001896:	4422      	add	r2, r4
 8001898:	5752      	ldrsb	r2, [r2, r5]
 800189a:	fb02 f303 	mul.w	r3, r2, r3
}
 800189e:	ebc3 00e0 	rsb	r0, r3, r0, asr #3
 80018a2:	bd38      	pop	{r3, r4, r5, pc}
	assert(0 <= e && e < 4);
 80018a4:	4b06      	ldr	r3, [pc, #24]	@ (80018c0 <getNumDataCodewords+0x4c>)
 80018a6:	4a07      	ldr	r2, [pc, #28]	@ (80018c4 <getNumDataCodewords+0x50>)
 80018a8:	f44f 71a6 	mov.w	r1, #332	@ 0x14c
 80018ac:	4806      	ldr	r0, [pc, #24]	@ (80018c8 <getNumDataCodewords+0x54>)
 80018ae:	f005 fb75 	bl	8006f9c <__assert_func>
	return getNumRawDataModules(v) / 8
 80018b2:	3007      	adds	r0, #7
 80018b4:	e7e7      	b.n	8001886 <getNumDataCodewords+0x12>
 80018b6:	bf00      	nop
 80018b8:	0800a424 	.word	0x0800a424
 80018bc:	0800a380 	.word	0x0800a380
 80018c0:	08009d14 	.word	0x08009d14
 80018c4:	0800a2dc 	.word	0x0800a2dc
 80018c8:	08009b50 	.word	0x08009b50

080018cc <getModuleBounded>:
testable bool getModuleBounded(const uint8_t qrcode[], int x, int y) {
 80018cc:	b508      	push	{r3, lr}
	int qrsize = qrcode[0];
 80018ce:	7803      	ldrb	r3, [r0, #0]
	assert(21 <= qrsize && qrsize <= 177 && 0 <= x && x < qrsize && 0 <= y && y < qrsize);
 80018d0:	f1a3 0c15 	sub.w	ip, r3, #21
 80018d4:	f1bc 0f9c 	cmp.w	ip, #156	@ 0x9c
 80018d8:	d811      	bhi.n	80018fe <getModuleBounded+0x32>
 80018da:	2900      	cmp	r1, #0
 80018dc:	db0f      	blt.n	80018fe <getModuleBounded+0x32>
 80018de:	428b      	cmp	r3, r1
 80018e0:	dd0d      	ble.n	80018fe <getModuleBounded+0x32>
 80018e2:	2a00      	cmp	r2, #0
 80018e4:	db0b      	blt.n	80018fe <getModuleBounded+0x32>
 80018e6:	4293      	cmp	r3, r2
 80018e8:	dd09      	ble.n	80018fe <getModuleBounded+0x32>
	int index = y * qrsize + x;
 80018ea:	fb02 1103 	mla	r1, r2, r3, r1
	return getBit(qrcode[(index >> 3) + 1], index & 7);
 80018ee:	eb00 00e1 	add.w	r0, r0, r1, asr #3
 80018f2:	f001 0107 	and.w	r1, r1, #7
 80018f6:	7840      	ldrb	r0, [r0, #1]
 80018f8:	f7ff fe4e 	bl	8001598 <getBit>
}
 80018fc:	bd08      	pop	{r3, pc}
	assert(21 <= qrsize && qrsize <= 177 && 0 <= x && x < qrsize && 0 <= y && y < qrsize);
 80018fe:	4b03      	ldr	r3, [pc, #12]	@ (800190c <getModuleBounded+0x40>)
 8001900:	4a03      	ldr	r2, [pc, #12]	@ (8001910 <getModuleBounded+0x44>)
 8001902:	f240 3106 	movw	r1, #774	@ 0x306
 8001906:	4803      	ldr	r0, [pc, #12]	@ (8001914 <getModuleBounded+0x48>)
 8001908:	f005 fb48 	bl	8006f9c <__assert_func>
 800190c:	08009d24 	.word	0x08009d24
 8001910:	0800a240 	.word	0x0800a240
 8001914:	08009b50 	.word	0x08009b50

08001918 <setModuleBounded>:
testable void setModuleBounded(uint8_t qrcode[], int x, int y, bool isDark) {
 8001918:	b508      	push	{r3, lr}
	int qrsize = qrcode[0];
 800191a:	f890 c000 	ldrb.w	ip, [r0]
	assert(21 <= qrsize && qrsize <= 177 && 0 <= x && x < qrsize && 0 <= y && y < qrsize);
 800191e:	f1ac 0e15 	sub.w	lr, ip, #21
 8001922:	f1be 0f9c 	cmp.w	lr, #156	@ 0x9c
 8001926:	d815      	bhi.n	8001954 <setModuleBounded+0x3c>
 8001928:	2900      	cmp	r1, #0
 800192a:	db13      	blt.n	8001954 <setModuleBounded+0x3c>
 800192c:	458c      	cmp	ip, r1
 800192e:	dd11      	ble.n	8001954 <setModuleBounded+0x3c>
 8001930:	2a00      	cmp	r2, #0
 8001932:	db0f      	blt.n	8001954 <setModuleBounded+0x3c>
 8001934:	4594      	cmp	ip, r2
 8001936:	dd0d      	ble.n	8001954 <setModuleBounded+0x3c>
	int index = y * qrsize + x;
 8001938:	fb02 110c 	mla	r1, r2, ip, r1
	int bitIndex = index & 7;
 800193c:	f001 0c07 	and.w	ip, r1, #7
	int byteIndex = (index >> 3) + 1;
 8001940:	10c9      	asrs	r1, r1, #3
 8001942:	3101      	adds	r1, #1
	if (isDark)
 8001944:	b16b      	cbz	r3, 8001962 <setModuleBounded+0x4a>
		qrcode[byteIndex] |= 1 << bitIndex;
 8001946:	5c43      	ldrb	r3, [r0, r1]
 8001948:	2201      	movs	r2, #1
 800194a:	fa02 f20c 	lsl.w	r2, r2, ip
 800194e:	4313      	orrs	r3, r2
 8001950:	5443      	strb	r3, [r0, r1]
}
 8001952:	bd08      	pop	{r3, pc}
	assert(21 <= qrsize && qrsize <= 177 && 0 <= x && x < qrsize && 0 <= y && y < qrsize);
 8001954:	4b07      	ldr	r3, [pc, #28]	@ (8001974 <setModuleBounded+0x5c>)
 8001956:	4a08      	ldr	r2, [pc, #32]	@ (8001978 <setModuleBounded+0x60>)
 8001958:	f240 310f 	movw	r1, #783	@ 0x30f
 800195c:	4807      	ldr	r0, [pc, #28]	@ (800197c <setModuleBounded+0x64>)
 800195e:	f005 fb1d 	bl	8006f9c <__assert_func>
		qrcode[byteIndex] &= (1 << bitIndex) ^ 0xFF;
 8001962:	5c42      	ldrb	r2, [r0, r1]
 8001964:	2301      	movs	r3, #1
 8001966:	fa03 f30c 	lsl.w	r3, r3, ip
 800196a:	43db      	mvns	r3, r3
 800196c:	b25b      	sxtb	r3, r3
 800196e:	4013      	ands	r3, r2
 8001970:	5443      	strb	r3, [r0, r1]
}
 8001972:	e7ee      	b.n	8001952 <setModuleBounded+0x3a>
 8001974:	08009d24 	.word	0x08009d24
 8001978:	0800a22c 	.word	0x0800a22c
 800197c:	08009b50 	.word	0x08009b50

08001980 <setModuleUnbounded>:
	int qrsize = qrcode[0];
 8001980:	f890 c000 	ldrb.w	ip, [r0]
	if (0 <= x && x < qrsize && 0 <= y && y < qrsize)
 8001984:	2900      	cmp	r1, #0
 8001986:	db05      	blt.n	8001994 <setModuleUnbounded+0x14>
 8001988:	458c      	cmp	ip, r1
 800198a:	dd03      	ble.n	8001994 <setModuleUnbounded+0x14>
 800198c:	2a00      	cmp	r2, #0
 800198e:	db01      	blt.n	8001994 <setModuleUnbounded+0x14>
 8001990:	4594      	cmp	ip, r2
 8001992:	dc00      	bgt.n	8001996 <setModuleUnbounded+0x16>
 8001994:	4770      	bx	lr
testable void setModuleUnbounded(uint8_t qrcode[], int x, int y, bool isDark) {
 8001996:	b508      	push	{r3, lr}
		setModuleBounded(qrcode, x, y, isDark);
 8001998:	f7ff ffbe 	bl	8001918 <setModuleBounded>
}
 800199c:	bd08      	pop	{r3, pc}

0800199e <fillRectangle>:
static void fillRectangle(int left, int top, int width, int height, uint8_t qrcode[]) {
 800199e:	e92d 47f0 	stmdb	sp!, {r4, r5, r6, r7, r8, r9, sl, lr}
 80019a2:	4680      	mov	r8, r0
 80019a4:	460f      	mov	r7, r1
 80019a6:	4616      	mov	r6, r2
 80019a8:	469a      	mov	sl, r3
 80019aa:	f8dd 9020 	ldr.w	r9, [sp, #32]
	for (int dy = 0; dy < height; dy++) {
 80019ae:	2500      	movs	r5, #0
 80019b0:	e00a      	b.n	80019c8 <fillRectangle+0x2a>
			setModuleBounded(qrcode, left + dx, top + dy, true);
 80019b2:	2301      	movs	r3, #1
 80019b4:	19ea      	adds	r2, r5, r7
 80019b6:	eb04 0108 	add.w	r1, r4, r8
 80019ba:	4648      	mov	r0, r9
 80019bc:	f7ff ffac 	bl	8001918 <setModuleBounded>
		for (int dx = 0; dx < width; dx++)
 80019c0:	3401      	adds	r4, #1
 80019c2:	42b4      	cmp	r4, r6
 80019c4:	dbf5      	blt.n	80019b2 <fillRectangle+0x14>
	for (int dy = 0; dy < height; dy++) {
 80019c6:	3501      	adds	r5, #1
 80019c8:	4555      	cmp	r5, sl
 80019ca:	da01      	bge.n	80019d0 <fillRectangle+0x32>
		for (int dx = 0; dx < width; dx++)
 80019cc:	2400      	movs	r4, #0
 80019ce:	e7f8      	b.n	80019c2 <fillRectangle+0x24>
}
 80019d0:	e8bd 87f0 	ldmia.w	sp!, {r4, r5, r6, r7, r8, r9, sl, pc}

080019d4 <finderPenaltyCountPatterns>:
static int finderPenaltyCountPatterns(const int runHistory[7], int qrsize) {
 80019d4:	b508      	push	{r3, lr}
	int n = runHistory[1];
 80019d6:	6843      	ldr	r3, [r0, #4]
	assert(n <= qrsize * 3);  (void)qrsize;
 80019d8:	eb01 0141 	add.w	r1, r1, r1, lsl #1
 80019dc:	4299      	cmp	r1, r3
 80019de:	db07      	blt.n	80019f0 <finderPenaltyCountPatterns+0x1c>
	bool core = n > 0 && runHistory[2] == n && runHistory[3] == n * 3 && runHistory[4] == n && runHistory[5] == n;
 80019e0:	2b00      	cmp	r3, #0
 80019e2:	dd35      	ble.n	8001a50 <finderPenaltyCountPatterns+0x7c>
 80019e4:	6882      	ldr	r2, [r0, #8]
 80019e6:	429a      	cmp	r2, r3
 80019e8:	d009      	beq.n	80019fe <finderPenaltyCountPatterns+0x2a>
	return (core && runHistory[0] >= n * 4 && runHistory[6] >= n ? 1 : 0)
 80019ea:	2200      	movs	r2, #0
	     + (core && runHistory[6] >= n * 4 && runHistory[0] >= n ? 1 : 0);
 80019ec:	4610      	mov	r0, r2
 80019ee:	e031      	b.n	8001a54 <finderPenaltyCountPatterns+0x80>
	assert(n <= qrsize * 3);  (void)qrsize;
 80019f0:	4b1b      	ldr	r3, [pc, #108]	@ (8001a60 <finderPenaltyCountPatterns+0x8c>)
 80019f2:	4a1c      	ldr	r2, [pc, #112]	@ (8001a64 <finderPenaltyCountPatterns+0x90>)
 80019f4:	f44f 7134 	mov.w	r1, #720	@ 0x2d0
 80019f8:	481b      	ldr	r0, [pc, #108]	@ (8001a68 <finderPenaltyCountPatterns+0x94>)
 80019fa:	f005 facf 	bl	8006f9c <__assert_func>
	bool core = n > 0 && runHistory[2] == n && runHistory[3] == n * 3 && runHistory[4] == n && runHistory[5] == n;
 80019fe:	68c1      	ldr	r1, [r0, #12]
 8001a00:	eb03 0243 	add.w	r2, r3, r3, lsl #1
 8001a04:	4291      	cmp	r1, r2
 8001a06:	d002      	beq.n	8001a0e <finderPenaltyCountPatterns+0x3a>
	return (core && runHistory[0] >= n * 4 && runHistory[6] >= n ? 1 : 0)
 8001a08:	2200      	movs	r2, #0
	     + (core && runHistory[6] >= n * 4 && runHistory[0] >= n ? 1 : 0);
 8001a0a:	4610      	mov	r0, r2
 8001a0c:	e022      	b.n	8001a54 <finderPenaltyCountPatterns+0x80>
	bool core = n > 0 && runHistory[2] == n && runHistory[3] == n * 3 && runHistory[4] == n && runHistory[5] == n;
 8001a0e:	6902      	ldr	r2, [r0, #16]
 8001a10:	429a      	cmp	r2, r3
 8001a12:	d002      	beq.n	8001a1a <finderPenaltyCountPatterns+0x46>
	return (core && runHistory[0] >= n * 4 && runHistory[6] >= n ? 1 : 0)
 8001a14:	2200      	movs	r2, #0
	     + (core && runHistory[6] >= n * 4 && runHistory[0] >= n ? 1 : 0);
 8001a16:	4610      	mov	r0, r2
 8001a18:	e01c      	b.n	8001a54 <finderPenaltyCountPatterns+0x80>
	bool core = n > 0 && runHistory[2] == n && runHistory[3] == n * 3 && runHistory[4] == n && runHistory[5] == n;
 8001a1a:	6942      	ldr	r2, [r0, #20]
 8001a1c:	429a      	cmp	r2, r3
 8001a1e:	d002      	beq.n	8001a26 <finderPenaltyCountPatterns+0x52>
	return (core && runHistory[0] >= n * 4 && runHistory[6] >= n ? 1 : 0)
 8001a20:	2200      	movs	r2, #0
	     + (core && runHistory[6] >= n * 4 && runHistory[0] >= n ? 1 : 0);
 8001a22:	4610      	mov	r0, r2
 8001a24:	e016      	b.n	8001a54 <finderPenaltyCountPatterns+0x80>
	return (core && runHistory[0] >= n * 4 && runHistory[6] >= n ? 1 : 0)
 8001a26:	6801      	ldr	r1, [r0, #0]
 8001a28:	ea4f 0c83 	mov.w	ip, r3, lsl #2
 8001a2c:	ebb1 0f83 	cmp.w	r1, r3, lsl #2
 8001a30:	db04      	blt.n	8001a3c <finderPenaltyCountPatterns+0x68>
 8001a32:	6982      	ldr	r2, [r0, #24]
 8001a34:	429a      	cmp	r2, r3
 8001a36:	da09      	bge.n	8001a4c <finderPenaltyCountPatterns+0x78>
 8001a38:	2200      	movs	r2, #0
 8001a3a:	e000      	b.n	8001a3e <finderPenaltyCountPatterns+0x6a>
 8001a3c:	2200      	movs	r2, #0
	     + (core && runHistory[6] >= n * 4 && runHistory[0] >= n ? 1 : 0);
 8001a3e:	6980      	ldr	r0, [r0, #24]
 8001a40:	4584      	cmp	ip, r0
 8001a42:	dc09      	bgt.n	8001a58 <finderPenaltyCountPatterns+0x84>
 8001a44:	4299      	cmp	r1, r3
 8001a46:	db09      	blt.n	8001a5c <finderPenaltyCountPatterns+0x88>
 8001a48:	2001      	movs	r0, #1
 8001a4a:	e003      	b.n	8001a54 <finderPenaltyCountPatterns+0x80>
	return (core && runHistory[0] >= n * 4 && runHistory[6] >= n ? 1 : 0)
 8001a4c:	2201      	movs	r2, #1
 8001a4e:	e7f6      	b.n	8001a3e <finderPenaltyCountPatterns+0x6a>
 8001a50:	2200      	movs	r2, #0
	     + (core && runHistory[6] >= n * 4 && runHistory[0] >= n ? 1 : 0);
 8001a52:	4610      	mov	r0, r2
}
 8001a54:	4410      	add	r0, r2
 8001a56:	bd08      	pop	{r3, pc}
	     + (core && runHistory[6] >= n * 4 && runHistory[0] >= n ? 1 : 0);
 8001a58:	2000      	movs	r0, #0
 8001a5a:	e7fb      	b.n	8001a54 <finderPenaltyCountPatterns+0x80>
 8001a5c:	2000      	movs	r0, #0
 8001a5e:	e7f9      	b.n	8001a54 <finderPenaltyCountPatterns+0x80>
 8001a60:	08009d74 	.word	0x08009d74
 8001a64:	0800a1e4 	.word	0x0800a1e4
 8001a68:	08009b50 	.word	0x08009b50

08001a6c <reedSolomonComputeDivisor>:
testable void reedSolomonComputeDivisor(int degree, uint8_t result[]) {
 8001a6c:	e92d 47f0 	stmdb	sp!, {r4, r5, r6, r7, r8, r9, sl, lr}
	assert(1 <= degree && degree <= qrcodegen_REED_SOLOMON_DEGREE_MAX);
 8001a70:	1e44      	subs	r4, r0, #1
 8001a72:	2c1d      	cmp	r4, #29
 8001a74:	d80d      	bhi.n	8001a92 <reedSolomonComputeDivisor+0x26>
 8001a76:	4607      	mov	r7, r0
 8001a78:	460d      	mov	r5, r1
	memset(result, 0, (size_t)degree * sizeof(result[0]));
 8001a7a:	4602      	mov	r2, r0
 8001a7c:	2100      	movs	r1, #0
 8001a7e:	4628      	mov	r0, r5
 8001a80:	f005 fd54 	bl	800752c <memset>
	result[degree - 1] = 1;  // Start off with the monomial x^0
 8001a84:	f04f 0901 	mov.w	r9, #1
 8001a88:	f805 9004 	strb.w	r9, [r5, r4]
	for (int i = 0; i < degree; i++) {
 8001a8c:	f04f 0a00 	mov.w	sl, #0
 8001a90:	e00d      	b.n	8001aae <reedSolomonComputeDivisor+0x42>
	assert(1 <= degree && degree <= qrcodegen_REED_SOLOMON_DEGREE_MAX);
 8001a92:	4b12      	ldr	r3, [pc, #72]	@ (8001adc <reedSolomonComputeDivisor+0x70>)
 8001a94:	4a12      	ldr	r2, [pc, #72]	@ (8001ae0 <reedSolomonComputeDivisor+0x74>)
 8001a96:	f44f 71b5 	mov.w	r1, #362	@ 0x16a
 8001a9a:	4812      	ldr	r0, [pc, #72]	@ (8001ae4 <reedSolomonComputeDivisor+0x78>)
 8001a9c:	f005 fa7e 	bl	8006f9c <__assert_func>
		root = reedSolomonMultiply(root, 0x02);
 8001aa0:	2102      	movs	r1, #2
 8001aa2:	4648      	mov	r0, r9
 8001aa4:	f7ff fd33 	bl	800150e <reedSolomonMultiply>
 8001aa8:	4681      	mov	r9, r0
	for (int i = 0; i < degree; i++) {
 8001aaa:	f10a 0a01 	add.w	sl, sl, #1
 8001aae:	45ba      	cmp	sl, r7
 8001ab0:	da12      	bge.n	8001ad8 <reedSolomonComputeDivisor+0x6c>
		for (int j = 0; j < degree; j++) {
 8001ab2:	2400      	movs	r4, #0
 8001ab4:	42bc      	cmp	r4, r7
 8001ab6:	daf3      	bge.n	8001aa0 <reedSolomonComputeDivisor+0x34>
			result[j] = reedSolomonMultiply(result[j], root);
 8001ab8:	eb05 0804 	add.w	r8, r5, r4
 8001abc:	4649      	mov	r1, r9
 8001abe:	5d28      	ldrb	r0, [r5, r4]
 8001ac0:	f7ff fd25 	bl	800150e <reedSolomonMultiply>
 8001ac4:	5528      	strb	r0, [r5, r4]
			if (j + 1 < degree)
 8001ac6:	3401      	adds	r4, #1
 8001ac8:	42bc      	cmp	r4, r7
 8001aca:	daf3      	bge.n	8001ab4 <reedSolomonComputeDivisor+0x48>
				result[j] ^= result[j + 1];
 8001acc:	f898 3001 	ldrb.w	r3, [r8, #1]
 8001ad0:	4058      	eors	r0, r3
 8001ad2:	f888 0000 	strb.w	r0, [r8]
 8001ad6:	e7ed      	b.n	8001ab4 <reedSolomonComputeDivisor+0x48>
}
 8001ad8:	e8bd 87f0 	ldmia.w	sp!, {r4, r5, r6, r7, r8, r9, sl, pc}
 8001adc:	08009d84 	.word	0x08009d84
 8001ae0:	0800a298 	.word	0x0800a298
 8001ae4:	08009b50 	.word	0x08009b50

08001ae8 <initializeFunctionModules>:
testable void initializeFunctionModules(int version, uint8_t qrcode[]) {
 8001ae8:	e92d 43f0 	stmdb	sp!, {r4, r5, r6, r7, r8, r9, lr}
 8001aec:	b085      	sub	sp, #20
 8001aee:	4680      	mov	r8, r0
 8001af0:	460f      	mov	r7, r1
	int qrsize = version * 4 + 17;
 8001af2:	ea4f 0980 	mov.w	r9, r0, lsl #2
 8001af6:	f109 0411 	add.w	r4, r9, #17
	memset(qrcode, 0, (size_t)((qrsize * qrsize + 7) / 8 + 1) * sizeof(qrcode[0]));
 8001afa:	fb04 f304 	mul.w	r3, r4, r4
 8001afe:	3307      	adds	r3, #7
 8001b00:	d432      	bmi.n	8001b68 <initializeFunctionModules+0x80>
 8001b02:	10db      	asrs	r3, r3, #3
 8001b04:	1c5a      	adds	r2, r3, #1
 8001b06:	2100      	movs	r1, #0
 8001b08:	4638      	mov	r0, r7
 8001b0a:	f005 fd0f 	bl	800752c <memset>
	qrcode[0] = (uint8_t)qrsize;
 8001b0e:	703c      	strb	r4, [r7, #0]
	fillRectangle(6, 0, 1, qrsize, qrcode);
 8001b10:	9700      	str	r7, [sp, #0]
 8001b12:	4623      	mov	r3, r4
 8001b14:	2201      	movs	r2, #1
 8001b16:	2100      	movs	r1, #0
 8001b18:	2006      	movs	r0, #6
 8001b1a:	f7ff ff40 	bl	800199e <fillRectangle>
	fillRectangle(0, 6, qrsize, 1, qrcode);
 8001b1e:	9700      	str	r7, [sp, #0]
 8001b20:	2301      	movs	r3, #1
 8001b22:	4622      	mov	r2, r4
 8001b24:	2106      	movs	r1, #6
 8001b26:	2000      	movs	r0, #0
 8001b28:	f7ff ff39 	bl	800199e <fillRectangle>
	fillRectangle(0, 0, 9, 9, qrcode);
 8001b2c:	9700      	str	r7, [sp, #0]
 8001b2e:	2309      	movs	r3, #9
 8001b30:	461a      	mov	r2, r3
 8001b32:	2100      	movs	r1, #0
 8001b34:	4608      	mov	r0, r1
 8001b36:	f7ff ff32 	bl	800199e <fillRectangle>
	fillRectangle(qrsize - 8, 0, 8, 9, qrcode);
 8001b3a:	f109 0409 	add.w	r4, r9, #9
 8001b3e:	9700      	str	r7, [sp, #0]
 8001b40:	2309      	movs	r3, #9
 8001b42:	2208      	movs	r2, #8
 8001b44:	2100      	movs	r1, #0
 8001b46:	4620      	mov	r0, r4
 8001b48:	f7ff ff29 	bl	800199e <fillRectangle>
	fillRectangle(0, qrsize - 8, 9, 8, qrcode);
 8001b4c:	9700      	str	r7, [sp, #0]
 8001b4e:	2308      	movs	r3, #8
 8001b50:	2209      	movs	r2, #9
 8001b52:	4621      	mov	r1, r4
 8001b54:	2000      	movs	r0, #0
 8001b56:	f7ff ff22 	bl	800199e <fillRectangle>
	int numAlign = getAlignmentPatternPositions(version, alignPatPos);
 8001b5a:	a902      	add	r1, sp, #8
 8001b5c:	4640      	mov	r0, r8
 8001b5e:	f7ff fcf1 	bl	8001544 <getAlignmentPatternPositions>
 8001b62:	4606      	mov	r6, r0
	for (int i = 0; i < numAlign; i++) {
 8001b64:	2500      	movs	r5, #0
 8001b66:	e023      	b.n	8001bb0 <initializeFunctionModules+0xc8>
	memset(qrcode, 0, (size_t)((qrsize * qrsize + 7) / 8 + 1) * sizeof(qrcode[0]));
 8001b68:	3307      	adds	r3, #7
 8001b6a:	e7ca      	b.n	8001b02 <initializeFunctionModules+0x1a>
			if (!((i == 0 && j == 0) || (i == 0 && j == numAlign - 1) || (i == numAlign - 1 && j == 0)))
 8001b6c:	b1a4      	cbz	r4, 8001b98 <initializeFunctionModules+0xb0>
 8001b6e:	1e73      	subs	r3, r6, #1
 8001b70:	42a3      	cmp	r3, r4
 8001b72:	d116      	bne.n	8001ba2 <initializeFunctionModules+0xba>
 8001b74:	e010      	b.n	8001b98 <initializeFunctionModules+0xb0>
				fillRectangle(alignPatPos[i] - 2, alignPatPos[j] - 2, 5, 5, qrcode);
 8001b76:	f105 0310 	add.w	r3, r5, #16
 8001b7a:	446b      	add	r3, sp
 8001b7c:	f813 0c08 	ldrb.w	r0, [r3, #-8]
 8001b80:	f104 0310 	add.w	r3, r4, #16
 8001b84:	446b      	add	r3, sp
 8001b86:	f813 1c08 	ldrb.w	r1, [r3, #-8]
 8001b8a:	9700      	str	r7, [sp, #0]
 8001b8c:	2305      	movs	r3, #5
 8001b8e:	461a      	mov	r2, r3
 8001b90:	3902      	subs	r1, #2
 8001b92:	3802      	subs	r0, #2
 8001b94:	f7ff ff03 	bl	800199e <fillRectangle>
		for (int j = 0; j < numAlign; j++) {
 8001b98:	3401      	adds	r4, #1
 8001b9a:	42b4      	cmp	r4, r6
 8001b9c:	da07      	bge.n	8001bae <initializeFunctionModules+0xc6>
			if (!((i == 0 && j == 0) || (i == 0 && j == numAlign - 1) || (i == numAlign - 1 && j == 0)))
 8001b9e:	2d00      	cmp	r5, #0
 8001ba0:	d0e4      	beq.n	8001b6c <initializeFunctionModules+0x84>
 8001ba2:	1e73      	subs	r3, r6, #1
 8001ba4:	42ab      	cmp	r3, r5
 8001ba6:	d1e6      	bne.n	8001b76 <initializeFunctionModules+0x8e>
 8001ba8:	2c00      	cmp	r4, #0
 8001baa:	d1e4      	bne.n	8001b76 <initializeFunctionModules+0x8e>
 8001bac:	e7f4      	b.n	8001b98 <initializeFunctionModules+0xb0>
	for (int i = 0; i < numAlign; i++) {
 8001bae:	3501      	adds	r5, #1
 8001bb0:	42b5      	cmp	r5, r6
 8001bb2:	da01      	bge.n	8001bb8 <initializeFunctionModules+0xd0>
		for (int j = 0; j < numAlign; j++) {
 8001bb4:	2400      	movs	r4, #0
 8001bb6:	e7f0      	b.n	8001b9a <initializeFunctionModules+0xb2>
	if (version >= 7) {
 8001bb8:	f1b8 0f06 	cmp.w	r8, #6
 8001bbc:	dc02      	bgt.n	8001bc4 <initializeFunctionModules+0xdc>
}
 8001bbe:	b005      	add	sp, #20
 8001bc0:	e8bd 83f0 	ldmia.w	sp!, {r4, r5, r6, r7, r8, r9, pc}
		fillRectangle(qrsize - 11, 0, 3, 6, qrcode);
 8001bc4:	f109 0906 	add.w	r9, r9, #6
 8001bc8:	9700      	str	r7, [sp, #0]
 8001bca:	2306      	movs	r3, #6
 8001bcc:	2203      	movs	r2, #3
 8001bce:	2100      	movs	r1, #0
 8001bd0:	4648      	mov	r0, r9
 8001bd2:	f7ff fee4 	bl	800199e <fillRectangle>
		fillRectangle(0, qrsize - 11, 6, 3, qrcode);
 8001bd6:	9700      	str	r7, [sp, #0]
 8001bd8:	2303      	movs	r3, #3
 8001bda:	2206      	movs	r2, #6
 8001bdc:	4649      	mov	r1, r9
 8001bde:	2000      	movs	r0, #0
 8001be0:	f7ff fedd 	bl	800199e <fillRectangle>
}
 8001be4:	e7eb      	b.n	8001bbe <initializeFunctionModules+0xd6>
	...

08001be8 <reedSolomonComputeRemainder>:
		const uint8_t generator[], int degree, uint8_t result[]) {
 8001be8:	e92d 4ff0 	stmdb	sp!, {r4, r5, r6, r7, r8, r9, sl, fp, lr}
 8001bec:	b083      	sub	sp, #12
 8001bee:	9001      	str	r0, [sp, #4]
 8001bf0:	9d0c      	ldr	r5, [sp, #48]	@ 0x30
	assert(1 <= degree && degree <= qrcodegen_REED_SOLOMON_DEGREE_MAX);
 8001bf2:	f103 3aff 	add.w	sl, r3, #4294967295
 8001bf6:	f1ba 0f1d 	cmp.w	sl, #29
 8001bfa:	d80a      	bhi.n	8001c12 <reedSolomonComputeRemainder+0x2a>
 8001bfc:	468b      	mov	fp, r1
 8001bfe:	4690      	mov	r8, r2
 8001c00:	461f      	mov	r7, r3
	memset(result, 0, (size_t)degree * sizeof(result[0]));
 8001c02:	461a      	mov	r2, r3
 8001c04:	2100      	movs	r1, #0
 8001c06:	4628      	mov	r0, r5
 8001c08:	f005 fc90 	bl	800752c <memset>
	for (int i = 0; i < dataLen; i++) {  // Polynomial division
 8001c0c:	f04f 0900 	mov.w	r9, #0
 8001c10:	e013      	b.n	8001c3a <reedSolomonComputeRemainder+0x52>
	assert(1 <= degree && degree <= qrcodegen_REED_SOLOMON_DEGREE_MAX);
 8001c12:	4b14      	ldr	r3, [pc, #80]	@ (8001c64 <reedSolomonComputeRemainder+0x7c>)
 8001c14:	4a14      	ldr	r2, [pc, #80]	@ (8001c68 <reedSolomonComputeRemainder+0x80>)
 8001c16:	f240 1185 	movw	r1, #389	@ 0x185
 8001c1a:	4814      	ldr	r0, [pc, #80]	@ (8001c6c <reedSolomonComputeRemainder+0x84>)
 8001c1c:	f005 f9be 	bl	8006f9c <__assert_func>
			result[j] ^= reedSolomonMultiply(generator[j], factor);
 8001c20:	4631      	mov	r1, r6
 8001c22:	f818 0004 	ldrb.w	r0, [r8, r4]
 8001c26:	f7ff fc72 	bl	800150e <reedSolomonMultiply>
 8001c2a:	5d2b      	ldrb	r3, [r5, r4]
 8001c2c:	4043      	eors	r3, r0
 8001c2e:	552b      	strb	r3, [r5, r4]
		for (int j = 0; j < degree; j++)
 8001c30:	3401      	adds	r4, #1
 8001c32:	42bc      	cmp	r4, r7
 8001c34:	dbf4      	blt.n	8001c20 <reedSolomonComputeRemainder+0x38>
	for (int i = 0; i < dataLen; i++) {  // Polynomial division
 8001c36:	f109 0901 	add.w	r9, r9, #1
 8001c3a:	45d9      	cmp	r9, fp
 8001c3c:	da0e      	bge.n	8001c5c <reedSolomonComputeRemainder+0x74>
		uint8_t factor = data[i] ^ result[0];
 8001c3e:	9b01      	ldr	r3, [sp, #4]
 8001c40:	f813 6009 	ldrb.w	r6, [r3, r9]
 8001c44:	4629      	mov	r1, r5
 8001c46:	f811 3b01 	ldrb.w	r3, [r1], #1
 8001c4a:	405e      	eors	r6, r3
		memmove(&result[0], &result[1], (size_t)(degree - 1) * sizeof(result[0]));
 8001c4c:	4652      	mov	r2, sl
 8001c4e:	4628      	mov	r0, r5
 8001c50:	f005 fc52 	bl	80074f8 <memmove>
		result[degree - 1] = 0;
 8001c54:	2400      	movs	r4, #0
 8001c56:	f805 400a 	strb.w	r4, [r5, sl]
		for (int j = 0; j < degree; j++)
 8001c5a:	e7ea      	b.n	8001c32 <reedSolomonComputeRemainder+0x4a>
}
 8001c5c:	b003      	add	sp, #12
 8001c5e:	e8bd 8ff0 	ldmia.w	sp!, {r4, r5, r6, r7, r8, r9, sl, fp, pc}
 8001c62:	bf00      	nop
 8001c64:	08009d84 	.word	0x08009d84
 8001c68:	0800a27c 	.word	0x0800a27c
 8001c6c:	08009b50 	.word	0x08009b50

08001c70 <addEccAndInterleave>:
testable void addEccAndInterleave(uint8_t data[], int version, enum qrcodegen_Ecc ecl, uint8_t result[]) {
 8001c70:	e92d 4ff0 	stmdb	sp!, {r4, r5, r6, r7, r8, r9, sl, fp, lr}
 8001c74:	b08f      	sub	sp, #60	@ 0x3c
 8001c76:	9005      	str	r0, [sp, #20]
	assert(0 <= (int)ecl && (int)ecl < 4 && qrcodegen_VERSION_MIN <= version && version <= qrcodegen_VERSION_MAX);
 8001c78:	2a03      	cmp	r2, #3
 8001c7a:	d82c      	bhi.n	8001cd6 <addEccAndInterleave+0x66>
 8001c7c:	460f      	mov	r7, r1
 8001c7e:	4691      	mov	r9, r2
 8001c80:	461d      	mov	r5, r3
 8001c82:	2900      	cmp	r1, #0
 8001c84:	dd27      	ble.n	8001cd6 <addEccAndInterleave+0x66>
 8001c86:	2928      	cmp	r1, #40	@ 0x28
 8001c88:	dc25      	bgt.n	8001cd6 <addEccAndInterleave+0x66>
	int numBlocks = NUM_ERROR_CORRECTION_BLOCKS[(int)ecl][version];
 8001c8a:	eb02 0382 	add.w	r3, r2, r2, lsl #2
 8001c8e:	eb02 03c3 	add.w	r3, r2, r3, lsl #3
 8001c92:	4a2f      	ldr	r2, [pc, #188]	@ (8001d50 <addEccAndInterleave+0xe0>)
 8001c94:	441a      	add	r2, r3
 8001c96:	5654      	ldrsb	r4, [r2, r1]
	int blockEccLen = ECC_CODEWORDS_PER_BLOCK  [(int)ecl][version];
 8001c98:	4a2e      	ldr	r2, [pc, #184]	@ (8001d54 <addEccAndInterleave+0xe4>)
 8001c9a:	4413      	add	r3, r2
 8001c9c:	f913 8001 	ldrsb.w	r8, [r3, r1]
	int rawCodewords = getNumRawDataModules(version) / 8;
 8001ca0:	4608      	mov	r0, r1
 8001ca2:	f7ff fda7 	bl	80017f4 <getNumRawDataModules>
 8001ca6:	2800      	cmp	r0, #0
 8001ca8:	db1c      	blt.n	8001ce4 <addEccAndInterleave+0x74>
 8001caa:	10c6      	asrs	r6, r0, #3
	int dataLen = getNumDataCodewords(version, ecl);
 8001cac:	4649      	mov	r1, r9
 8001cae:	4638      	mov	r0, r7
 8001cb0:	f7ff fde0 	bl	8001874 <getNumDataCodewords>
 8001cb4:	9004      	str	r0, [sp, #16]
	int numShortBlocks = numBlocks - rawCodewords % numBlocks;
 8001cb6:	fb96 faf4 	sdiv	sl, r6, r4
 8001cba:	fb04 661a 	mls	r6, r4, sl, r6
 8001cbe:	1ba3      	subs	r3, r4, r6
 8001cc0:	9303      	str	r3, [sp, #12]
	int shortBlockDataLen = rawCodewords / numBlocks - blockEccLen;
 8001cc2:	ebaa 0a08 	sub.w	sl, sl, r8
	reedSolomonComputeDivisor(blockEccLen, rsdiv);
 8001cc6:	a906      	add	r1, sp, #24
 8001cc8:	4640      	mov	r0, r8
 8001cca:	f7ff fecf 	bl	8001a6c <reedSolomonComputeDivisor>
	const uint8_t *dat = data;
 8001cce:	9f05      	ldr	r7, [sp, #20]
	for (int i = 0; i < numBlocks; i++) {
 8001cd0:	f04f 0b00 	mov.w	fp, #0
 8001cd4:	e022      	b.n	8001d1c <addEccAndInterleave+0xac>
	assert(0 <= (int)ecl && (int)ecl < 4 && qrcodegen_VERSION_MIN <= version && version <= qrcodegen_VERSION_MAX);
 8001cd6:	4b20      	ldr	r3, [pc, #128]	@ (8001d58 <addEccAndInterleave+0xe8>)
 8001cd8:	4a20      	ldr	r2, [pc, #128]	@ (8001d5c <addEccAndInterleave+0xec>)
 8001cda:	f240 112b 	movw	r1, #299	@ 0x12b
 8001cde:	4820      	ldr	r0, [pc, #128]	@ (8001d60 <addEccAndInterleave+0xf0>)
 8001ce0:	f005 f95c 	bl	8006f9c <__assert_func>
	int rawCodewords = getNumRawDataModules(version) / 8;
 8001ce4:	3007      	adds	r0, #7
 8001ce6:	e7e0      	b.n	8001caa <addEccAndInterleave+0x3a>
			result[k] = dat[j];
 8001ce8:	5cf9      	ldrb	r1, [r7, r3]
 8001cea:	54a9      	strb	r1, [r5, r2]
		for (int j = 0, k = i; j < datLen; j++, k += numBlocks) {  // Copy data
 8001cec:	3301      	adds	r3, #1
 8001cee:	4422      	add	r2, r4
 8001cf0:	42b3      	cmp	r3, r6
 8001cf2:	da04      	bge.n	8001cfe <addEccAndInterleave+0x8e>
			if (j == shortBlockDataLen)
 8001cf4:	4553      	cmp	r3, sl
 8001cf6:	d1f7      	bne.n	8001ce8 <addEccAndInterleave+0x78>
				k -= numShortBlocks;
 8001cf8:	9903      	ldr	r1, [sp, #12]
 8001cfa:	1a52      	subs	r2, r2, r1
 8001cfc:	e7f4      	b.n	8001ce8 <addEccAndInterleave+0x78>
		for (int j = 0, k = dataLen + i; j < blockEccLen; j++, k += numBlocks)  // Copy ECC
 8001cfe:	9b04      	ldr	r3, [sp, #16]
 8001d00:	eb0b 0203 	add.w	r2, fp, r3
 8001d04:	2300      	movs	r3, #0
 8001d06:	e004      	b.n	8001d12 <addEccAndInterleave+0xa2>
			result[k] = ecc[j];
 8001d08:	f819 1003 	ldrb.w	r1, [r9, r3]
 8001d0c:	54a9      	strb	r1, [r5, r2]
		for (int j = 0, k = dataLen + i; j < blockEccLen; j++, k += numBlocks)  // Copy ECC
 8001d0e:	3301      	adds	r3, #1
 8001d10:	4422      	add	r2, r4
 8001d12:	4543      	cmp	r3, r8
 8001d14:	dbf8      	blt.n	8001d08 <addEccAndInterleave+0x98>
		dat += datLen;
 8001d16:	4437      	add	r7, r6
	for (int i = 0; i < numBlocks; i++) {
 8001d18:	f10b 0b01 	add.w	fp, fp, #1
 8001d1c:	45a3      	cmp	fp, r4
 8001d1e:	da14      	bge.n	8001d4a <addEccAndInterleave+0xda>
		int datLen = shortBlockDataLen + (i < numShortBlocks ? 0 : 1);
 8001d20:	9b03      	ldr	r3, [sp, #12]
 8001d22:	459b      	cmp	fp, r3
 8001d24:	bfb4      	ite	lt
 8001d26:	4656      	movlt	r6, sl
 8001d28:	f10a 0601 	addge.w	r6, sl, #1
		uint8_t *ecc = &data[dataLen];  // Temporary storage
 8001d2c:	9b05      	ldr	r3, [sp, #20]
 8001d2e:	9a04      	ldr	r2, [sp, #16]
 8001d30:	eb03 0902 	add.w	r9, r3, r2
		reedSolomonComputeRemainder(dat, datLen, rsdiv, blockEccLen, ecc);
 8001d34:	f8cd 9000 	str.w	r9, [sp]
 8001d38:	4643      	mov	r3, r8
 8001d3a:	aa06      	add	r2, sp, #24
 8001d3c:	4631      	mov	r1, r6
 8001d3e:	4638      	mov	r0, r7
 8001d40:	f7ff ff52 	bl	8001be8 <reedSolomonComputeRemainder>
		for (int j = 0, k = i; j < datLen; j++, k += numBlocks) {  // Copy data
 8001d44:	465a      	mov	r2, fp
 8001d46:	2300      	movs	r3, #0
 8001d48:	e7d2      	b.n	8001cf0 <addEccAndInterleave+0x80>
}
 8001d4a:	b00f      	add	sp, #60	@ 0x3c
 8001d4c:	e8bd 8ff0 	ldmia.w	sp!, {r4, r5, r6, r7, r8, r9, sl, fp, pc}
 8001d50:	0800a380 	.word	0x0800a380
 8001d54:	0800a424 	.word	0x0800a424
 8001d58:	08009dc0 	.word	0x08009dc0
 8001d5c:	0800a2b4 	.word	0x0800a2b4
 8001d60:	08009b50 	.word	0x08009b50

08001d64 <finderPenaltyAddHistory>:
static void finderPenaltyAddHistory(int currentRunLength, int runHistory[7], int qrsize) {
 8001d64:	b538      	push	{r3, r4, r5, lr}
 8001d66:	4605      	mov	r5, r0
 8001d68:	460c      	mov	r4, r1
	if (runHistory[0] == 0)
 8001d6a:	680b      	ldr	r3, [r1, #0]
 8001d6c:	b903      	cbnz	r3, 8001d70 <finderPenaltyAddHistory+0xc>
		currentRunLength += qrsize;  // Add light border to initial run
 8001d6e:	4415      	add	r5, r2
	memmove(&runHistory[1], &runHistory[0], 6 * sizeof(runHistory[0]));
 8001d70:	2218      	movs	r2, #24
 8001d72:	4621      	mov	r1, r4
 8001d74:	1d20      	adds	r0, r4, #4
 8001d76:	f005 fbbf 	bl	80074f8 <memmove>
	runHistory[0] = currentRunLength;
 8001d7a:	6025      	str	r5, [r4, #0]
}
 8001d7c:	bd38      	pop	{r3, r4, r5, pc}

08001d7e <finderPenaltyTerminateAndCount>:
static int finderPenaltyTerminateAndCount(bool currentRunColor, int currentRunLength, int runHistory[7], int qrsize) {
 8001d7e:	b538      	push	{r3, r4, r5, lr}
 8001d80:	468c      	mov	ip, r1
 8001d82:	4615      	mov	r5, r2
 8001d84:	461c      	mov	r4, r3
	if (currentRunColor) {  // Terminate dark run
 8001d86:	b950      	cbnz	r0, 8001d9e <finderPenaltyTerminateAndCount+0x20>
	finderPenaltyAddHistory(currentRunLength, runHistory, qrsize);
 8001d88:	4622      	mov	r2, r4
 8001d8a:	4629      	mov	r1, r5
 8001d8c:	eb0c 0004 	add.w	r0, ip, r4
 8001d90:	f7ff ffe8 	bl	8001d64 <finderPenaltyAddHistory>
	return finderPenaltyCountPatterns(runHistory, qrsize);
 8001d94:	4621      	mov	r1, r4
 8001d96:	4628      	mov	r0, r5
 8001d98:	f7ff fe1c 	bl	80019d4 <finderPenaltyCountPatterns>
}
 8001d9c:	bd38      	pop	{r3, r4, r5, pc}
		finderPenaltyAddHistory(currentRunLength, runHistory, qrsize);
 8001d9e:	461a      	mov	r2, r3
 8001da0:	4629      	mov	r1, r5
 8001da2:	4660      	mov	r0, ip
 8001da4:	f7ff ffde 	bl	8001d64 <finderPenaltyAddHistory>
		currentRunLength = 0;
 8001da8:	f04f 0c00 	mov.w	ip, #0
 8001dac:	e7ec      	b.n	8001d88 <finderPenaltyTerminateAndCount+0xa>
	...

08001db0 <qrcodegen_getSize>:
int qrcodegen_getSize(const uint8_t qrcode[]) {
 8001db0:	b508      	push	{r3, lr}
	assert(qrcode != NULL);
 8001db2:	b128      	cbz	r0, 8001dc0 <qrcodegen_getSize+0x10>
	int result = qrcode[0];
 8001db4:	7800      	ldrb	r0, [r0, #0]
	assert((qrcodegen_VERSION_MIN * 4 + 17) <= result
 8001db6:	f1a0 0315 	sub.w	r3, r0, #21
 8001dba:	2b9c      	cmp	r3, #156	@ 0x9c
 8001dbc:	d807      	bhi.n	8001dce <qrcodegen_getSize+0x1e>
}
 8001dbe:	bd08      	pop	{r3, pc}
	assert(qrcode != NULL);
 8001dc0:	4b06      	ldr	r3, [pc, #24]	@ (8001ddc <qrcodegen_getSize+0x2c>)
 8001dc2:	4a07      	ldr	r2, [pc, #28]	@ (8001de0 <qrcodegen_getSize+0x30>)
 8001dc4:	f240 21f3 	movw	r1, #755	@ 0x2f3
 8001dc8:	4806      	ldr	r0, [pc, #24]	@ (8001de4 <qrcodegen_getSize+0x34>)
 8001dca:	f005 f8e7 	bl	8006f9c <__assert_func>
	assert((qrcodegen_VERSION_MIN * 4 + 17) <= result
 8001dce:	4b06      	ldr	r3, [pc, #24]	@ (8001de8 <qrcodegen_getSize+0x38>)
 8001dd0:	4a03      	ldr	r2, [pc, #12]	@ (8001de0 <qrcodegen_getSize+0x30>)
 8001dd2:	f240 21f5 	movw	r1, #757	@ 0x2f5
 8001dd6:	4803      	ldr	r0, [pc, #12]	@ (8001de4 <qrcodegen_getSize+0x34>)
 8001dd8:	f005 f8e0 	bl	8006f9c <__assert_func>
 8001ddc:	08009e28 	.word	0x08009e28
 8001de0:	0800a1a4 	.word	0x0800a1a4
 8001de4:	08009b50 	.word	0x08009b50
 8001de8:	08009e38 	.word	0x08009e38

08001dec <drawCodewords>:
static void drawCodewords(const uint8_t data[], int dataLen, uint8_t qrcode[]) {
 8001dec:	e92d 4ff0 	stmdb	sp!, {r4, r5, r6, r7, r8, r9, sl, fp, lr}
 8001df0:	b085      	sub	sp, #20
 8001df2:	9003      	str	r0, [sp, #12]
 8001df4:	9101      	str	r1, [sp, #4]
 8001df6:	4617      	mov	r7, r2
	int qrsize = qrcodegen_getSize(qrcode);
 8001df8:	4610      	mov	r0, r2
 8001dfa:	f7ff ffd9 	bl	8001db0 <qrcodegen_getSize>
 8001dfe:	4606      	mov	r6, r0
	for (int right = qrsize - 1; right >= 1; right -= 2) {  // Index of right column in each column pair
 8001e00:	f100 3aff 	add.w	sl, r0, #4294967295
 8001e04:	46d3      	mov	fp, sl
	int i = 0;  // Bit index into the data
 8001e06:	f04f 0800 	mov.w	r8, #0
 8001e0a:	f8cd a008 	str.w	sl, [sp, #8]
	for (int right = qrsize - 1; right >= 1; right -= 2) {  // Index of right column in each column pair
 8001e0e:	e036      	b.n	8001e7e <drawCodewords+0x92>
			right = 5;
 8001e10:	f04f 0b05 	mov.w	fp, #5
 8001e14:	e039      	b.n	8001e8a <drawCodewords+0x9e>
				int y = upward ? qrsize - 1 - vert : vert;  // Actual y coordinate
 8001e16:	46d1      	mov	r9, sl
				if (!getModuleBounded(qrcode, x, y) && i < dataLen * 8) {
 8001e18:	464a      	mov	r2, r9
 8001e1a:	4629      	mov	r1, r5
 8001e1c:	4638      	mov	r0, r7
 8001e1e:	f7ff fd55 	bl	80018cc <getModuleBounded>
 8001e22:	b918      	cbnz	r0, 8001e2c <drawCodewords+0x40>
 8001e24:	9b01      	ldr	r3, [sp, #4]
 8001e26:	ebb8 0fc3 	cmp.w	r8, r3, lsl #3
 8001e2a:	db0d      	blt.n	8001e48 <drawCodewords+0x5c>
			for (int j = 0; j < 2; j++) {
 8001e2c:	3401      	adds	r4, #1
 8001e2e:	2c01      	cmp	r4, #1
 8001e30:	dc1d      	bgt.n	8001e6e <drawCodewords+0x82>
				int x = right - j;  // Actual x coordinate
 8001e32:	ebab 0504 	sub.w	r5, fp, r4
				bool upward = ((right + 1) & 2) == 0;
 8001e36:	f10b 0301 	add.w	r3, fp, #1
				int y = upward ? qrsize - 1 - vert : vert;  // Actual y coordinate
 8001e3a:	f013 0f02 	tst.w	r3, #2
 8001e3e:	d1ea      	bne.n	8001e16 <drawCodewords+0x2a>
 8001e40:	9b02      	ldr	r3, [sp, #8]
 8001e42:	eba3 090a 	sub.w	r9, r3, sl
 8001e46:	e7e7      	b.n	8001e18 <drawCodewords+0x2c>
					bool dark = getBit(data[i >> 3], 7 - (i & 7));
 8001e48:	ea4f 03e8 	mov.w	r3, r8, asr #3
 8001e4c:	ea6f 0108 	mvn.w	r1, r8
 8001e50:	f001 0107 	and.w	r1, r1, #7
 8001e54:	9a03      	ldr	r2, [sp, #12]
 8001e56:	5cd0      	ldrb	r0, [r2, r3]
 8001e58:	f7ff fb9e 	bl	8001598 <getBit>
 8001e5c:	4603      	mov	r3, r0
					setModuleBounded(qrcode, x, y, dark);
 8001e5e:	464a      	mov	r2, r9
 8001e60:	4629      	mov	r1, r5
 8001e62:	4638      	mov	r0, r7
 8001e64:	f7ff fd58 	bl	8001918 <setModuleBounded>
					i++;
 8001e68:	f108 0801 	add.w	r8, r8, #1
 8001e6c:	e7de      	b.n	8001e2c <drawCodewords+0x40>
		for (int vert = 0; vert < qrsize; vert++) {  // Vertical counter
 8001e6e:	f10a 0a01 	add.w	sl, sl, #1
 8001e72:	45b2      	cmp	sl, r6
 8001e74:	da01      	bge.n	8001e7a <drawCodewords+0x8e>
			for (int j = 0; j < 2; j++) {
 8001e76:	2400      	movs	r4, #0
 8001e78:	e7d9      	b.n	8001e2e <drawCodewords+0x42>
	for (int right = qrsize - 1; right >= 1; right -= 2) {  // Index of right column in each column pair
 8001e7a:	f1ab 0b02 	sub.w	fp, fp, #2
 8001e7e:	f1bb 0f00 	cmp.w	fp, #0
 8001e82:	dd05      	ble.n	8001e90 <drawCodewords+0xa4>
		if (right == 6)
 8001e84:	f1bb 0f06 	cmp.w	fp, #6
 8001e88:	d0c2      	beq.n	8001e10 <drawCodewords+0x24>
		for (int vert = 0; vert < qrsize; vert++) {  // Vertical counter
 8001e8a:	f04f 0a00 	mov.w	sl, #0
 8001e8e:	e7f0      	b.n	8001e72 <drawCodewords+0x86>
	assert(i == dataLen * 8);
 8001e90:	9b01      	ldr	r3, [sp, #4]
 8001e92:	ebb8 0fc3 	cmp.w	r8, r3, lsl #3
 8001e96:	d102      	bne.n	8001e9e <drawCodewords+0xb2>
}
 8001e98:	b005      	add	sp, #20
 8001e9a:	e8bd 8ff0 	ldmia.w	sp!, {r4, r5, r6, r7, r8, r9, sl, fp, pc}
	assert(i == dataLen * 8);
 8001e9e:	4b03      	ldr	r3, [pc, #12]	@ (8001eac <drawCodewords+0xc0>)
 8001ea0:	4a03      	ldr	r2, [pc, #12]	@ (8001eb0 <drawCodewords+0xc4>)
 8001ea2:	f240 2159 	movw	r1, #601	@ 0x259
 8001ea6:	4803      	ldr	r0, [pc, #12]	@ (8001eb4 <drawCodewords+0xc8>)
 8001ea8:	f005 f878 	bl	8006f9c <__assert_func>
 8001eac:	08009e94 	.word	0x08009e94
 8001eb0:	0800a254 	.word	0x0800a254
 8001eb4:	08009b50 	.word	0x08009b50

08001eb8 <drawLightFunctionModules>:
static void drawLightFunctionModules(uint8_t qrcode[], int version) {
 8001eb8:	e92d 4ff0 	stmdb	sp!, {r4, r5, r6, r7, r8, r9, sl, fp, lr}
 8001ebc:	b083      	sub	sp, #12
 8001ebe:	4607      	mov	r7, r0
 8001ec0:	468b      	mov	fp, r1
	int qrsize = qrcodegen_getSize(qrcode);
 8001ec2:	f7ff ff75 	bl	8001db0 <qrcodegen_getSize>
 8001ec6:	4682      	mov	sl, r0
	for (int i = 7; i < qrsize - 7; i += 2) {
 8001ec8:	2407      	movs	r4, #7
 8001eca:	e00c      	b.n	8001ee6 <drawLightFunctionModules+0x2e>
		setModuleBounded(qrcode, 6, i, false);
 8001ecc:	2300      	movs	r3, #0
 8001ece:	4622      	mov	r2, r4
 8001ed0:	2106      	movs	r1, #6
 8001ed2:	4638      	mov	r0, r7
 8001ed4:	f7ff fd20 	bl	8001918 <setModuleBounded>
		setModuleBounded(qrcode, i, 6, false);
 8001ed8:	2300      	movs	r3, #0
 8001eda:	2206      	movs	r2, #6
 8001edc:	4621      	mov	r1, r4
 8001ede:	4638      	mov	r0, r7
 8001ee0:	f7ff fd1a 	bl	8001918 <setModuleBounded>
	for (int i = 7; i < qrsize - 7; i += 2) {
 8001ee4:	3402      	adds	r4, #2
 8001ee6:	f1aa 0307 	sub.w	r3, sl, #7
 8001eea:	42a3      	cmp	r3, r4
 8001eec:	dcee      	bgt.n	8001ecc <drawLightFunctionModules+0x14>
	for (int dy = -4; dy <= 4; dy++) {
 8001eee:	f06f 0603 	mvn.w	r6, #3
 8001ef2:	e02d      	b.n	8001f50 <drawLightFunctionModules+0x98>
			if (dist == 2 || dist == 4) {
 8001ef4:	2b02      	cmp	r3, #2
 8001ef6:	d010      	beq.n	8001f1a <drawLightFunctionModules+0x62>
 8001ef8:	2b04      	cmp	r3, #4
 8001efa:	d00e      	beq.n	8001f1a <drawLightFunctionModules+0x62>
		for (int dx = -4; dx <= 4; dx++) {
 8001efc:	3401      	adds	r4, #1
 8001efe:	2c04      	cmp	r4, #4
 8001f00:	dc25      	bgt.n	8001f4e <drawLightFunctionModules+0x96>
			int dist = abs(dx);
 8001f02:	ea84 72e4 	eor.w	r2, r4, r4, asr #31
 8001f06:	eba2 72e4 	sub.w	r2, r2, r4, asr #31
			if (abs(dy) > dist)
 8001f0a:	ea86 73e6 	eor.w	r3, r6, r6, asr #31
 8001f0e:	eba3 73e6 	sub.w	r3, r3, r6, asr #31
 8001f12:	4293      	cmp	r3, r2
 8001f14:	dcee      	bgt.n	8001ef4 <drawLightFunctionModules+0x3c>
			int dist = abs(dx);
 8001f16:	4613      	mov	r3, r2
 8001f18:	e7ec      	b.n	8001ef4 <drawLightFunctionModules+0x3c>
				setModuleUnbounded(qrcode, 3 + dx, 3 + dy, false);
 8001f1a:	1ce5      	adds	r5, r4, #3
 8001f1c:	f106 0903 	add.w	r9, r6, #3
 8001f20:	2300      	movs	r3, #0
 8001f22:	464a      	mov	r2, r9
 8001f24:	4629      	mov	r1, r5
 8001f26:	4638      	mov	r0, r7
 8001f28:	f7ff fd2a 	bl	8001980 <setModuleUnbounded>
				setModuleUnbounded(qrcode, qrsize - 4 + dx, 3 + dy, false);
 8001f2c:	f1aa 0804 	sub.w	r8, sl, #4
 8001f30:	2300      	movs	r3, #0
 8001f32:	464a      	mov	r2, r9
 8001f34:	eb08 0104 	add.w	r1, r8, r4
 8001f38:	4638      	mov	r0, r7
 8001f3a:	f7ff fd21 	bl	8001980 <setModuleUnbounded>
				setModuleUnbounded(qrcode, 3 + dx, qrsize - 4 + dy, false);
 8001f3e:	2300      	movs	r3, #0
 8001f40:	eb08 0206 	add.w	r2, r8, r6
 8001f44:	4629      	mov	r1, r5
 8001f46:	4638      	mov	r0, r7
 8001f48:	f7ff fd1a 	bl	8001980 <setModuleUnbounded>
 8001f4c:	e7d6      	b.n	8001efc <drawLightFunctionModules+0x44>
	for (int dy = -4; dy <= 4; dy++) {
 8001f4e:	3601      	adds	r6, #1
 8001f50:	2e04      	cmp	r6, #4
 8001f52:	dc02      	bgt.n	8001f5a <drawLightFunctionModules+0xa2>
		for (int dx = -4; dx <= 4; dx++) {
 8001f54:	f06f 0403 	mvn.w	r4, #3
 8001f58:	e7d1      	b.n	8001efe <drawLightFunctionModules+0x46>
	int numAlign = getAlignmentPatternPositions(version, alignPatPos);
 8001f5a:	4669      	mov	r1, sp
 8001f5c:	4658      	mov	r0, fp
 8001f5e:	f7ff faf1 	bl	8001544 <getAlignmentPatternPositions>
 8001f62:	4681      	mov	r9, r0
	for (int i = 0; i < numAlign; i++) {
 8001f64:	f04f 0800 	mov.w	r8, #0
 8001f68:	e038      	b.n	8001fdc <drawLightFunctionModules+0x124>
			if ((i == 0 && j == 0) || (i == 0 && j == numAlign - 1) || (i == numAlign - 1 && j == 0))
 8001f6a:	b11e      	cbz	r6, 8001f74 <drawLightFunctionModules+0xbc>
 8001f6c:	f109 33ff 	add.w	r3, r9, #4294967295
 8001f70:	42b3      	cmp	r3, r6
 8001f72:	d105      	bne.n	8001f80 <drawLightFunctionModules+0xc8>
		for (int j = 0; j < numAlign; j++) {
 8001f74:	3601      	adds	r6, #1
 8001f76:	454e      	cmp	r6, r9
 8001f78:	da2e      	bge.n	8001fd8 <drawLightFunctionModules+0x120>
			if ((i == 0 && j == 0) || (i == 0 && j == numAlign - 1) || (i == numAlign - 1 && j == 0))
 8001f7a:	f1b8 0f00 	cmp.w	r8, #0
 8001f7e:	d0f4      	beq.n	8001f6a <drawLightFunctionModules+0xb2>
 8001f80:	f109 33ff 	add.w	r3, r9, #4294967295
 8001f84:	4543      	cmp	r3, r8
 8001f86:	d124      	bne.n	8001fd2 <drawLightFunctionModules+0x11a>
 8001f88:	2e00      	cmp	r6, #0
 8001f8a:	d0f3      	beq.n	8001f74 <drawLightFunctionModules+0xbc>
 8001f8c:	f04f 35ff 	mov.w	r5, #4294967295
 8001f90:	e01a      	b.n	8001fc8 <drawLightFunctionModules+0x110>
					setModuleBounded(qrcode, alignPatPos[i] + dx, alignPatPos[j] + dy, dx == 0 && dy == 0);
 8001f92:	b1b5      	cbz	r5, 8001fc2 <drawLightFunctionModules+0x10a>
 8001f94:	2300      	movs	r3, #0
 8001f96:	4638      	mov	r0, r7
 8001f98:	f7ff fcbe 	bl	8001918 <setModuleBounded>
				for (int dx = -1; dx <= 1; dx++)
 8001f9c:	3401      	adds	r4, #1
 8001f9e:	2c01      	cmp	r4, #1
 8001fa0:	dc11      	bgt.n	8001fc6 <drawLightFunctionModules+0x10e>
					setModuleBounded(qrcode, alignPatPos[i] + dx, alignPatPos[j] + dy, dx == 0 && dy == 0);
 8001fa2:	f108 0308 	add.w	r3, r8, #8
 8001fa6:	446b      	add	r3, sp
 8001fa8:	f813 1c08 	ldrb.w	r1, [r3, #-8]
 8001fac:	4421      	add	r1, r4
 8001fae:	f106 0308 	add.w	r3, r6, #8
 8001fb2:	446b      	add	r3, sp
 8001fb4:	f813 2c08 	ldrb.w	r2, [r3, #-8]
 8001fb8:	442a      	add	r2, r5
 8001fba:	2c00      	cmp	r4, #0
 8001fbc:	d0e9      	beq.n	8001f92 <drawLightFunctionModules+0xda>
 8001fbe:	2300      	movs	r3, #0
 8001fc0:	e7e9      	b.n	8001f96 <drawLightFunctionModules+0xde>
 8001fc2:	2301      	movs	r3, #1
 8001fc4:	e7e7      	b.n	8001f96 <drawLightFunctionModules+0xde>
			for (int dy = -1; dy <= 1; dy++) {
 8001fc6:	3501      	adds	r5, #1
 8001fc8:	2d01      	cmp	r5, #1
 8001fca:	dcd3      	bgt.n	8001f74 <drawLightFunctionModules+0xbc>
				for (int dx = -1; dx <= 1; dx++)
 8001fcc:	f04f 34ff 	mov.w	r4, #4294967295
 8001fd0:	e7e5      	b.n	8001f9e <drawLightFunctionModules+0xe6>
 8001fd2:	f04f 35ff 	mov.w	r5, #4294967295
 8001fd6:	e7f7      	b.n	8001fc8 <drawLightFunctionModules+0x110>
	for (int i = 0; i < numAlign; i++) {
 8001fd8:	f108 0801 	add.w	r8, r8, #1
 8001fdc:	45c8      	cmp	r8, r9
 8001fde:	da01      	bge.n	8001fe4 <drawLightFunctionModules+0x12c>
		for (int j = 0; j < numAlign; j++) {
 8001fe0:	2600      	movs	r6, #0
 8001fe2:	e7c8      	b.n	8001f76 <drawLightFunctionModules+0xbe>
	if (version >= 7) {
 8001fe4:	f1bb 0f06 	cmp.w	fp, #6
 8001fe8:	dc13      	bgt.n	8002012 <drawLightFunctionModules+0x15a>
}
 8001fea:	b003      	add	sp, #12
 8001fec:	e8bd 8ff0 	ldmia.w	sp!, {r4, r5, r6, r7, r8, r9, sl, fp, pc}
			rem = (rem << 1) ^ ((rem >> 11) * 0x1F25);
 8001ff0:	12e3      	asrs	r3, r4, #11
 8001ff2:	f641 7125 	movw	r1, #7973	@ 0x1f25
 8001ff6:	fb01 f303 	mul.w	r3, r1, r3
 8001ffa:	ea83 0444 	eor.w	r4, r3, r4, lsl #1
		for (int i = 0; i < 12; i++)
 8001ffe:	3201      	adds	r2, #1
 8002000:	2a0b      	cmp	r2, #11
 8002002:	ddf5      	ble.n	8001ff0 <drawLightFunctionModules+0x138>
		long bits = (long)version << 12 | rem;  // uint18
 8002004:	ea44 340b 	orr.w	r4, r4, fp, lsl #12
		assert(bits >> 18 == 0);
 8002008:	ea5f 49a4 	movs.w	r9, r4, asr #18
 800200c:	d104      	bne.n	8002018 <drawLightFunctionModules+0x160>
		for (int i = 0; i < 6; i++) {
 800200e:	46c8      	mov	r8, r9
 8002010:	e020      	b.n	8002054 <drawLightFunctionModules+0x19c>
		int rem = version;  // version is uint6, in the range [7, 40]
 8002012:	465c      	mov	r4, fp
		for (int i = 0; i < 12; i++)
 8002014:	2200      	movs	r2, #0
 8002016:	e7f3      	b.n	8002000 <drawLightFunctionModules+0x148>
		assert(bits >> 18 == 0);
 8002018:	4b11      	ldr	r3, [pc, #68]	@ (8002060 <drawLightFunctionModules+0x1a8>)
 800201a:	4a12      	ldr	r2, [pc, #72]	@ (8002064 <drawLightFunctionModules+0x1ac>)
 800201c:	f240 11f5 	movw	r1, #501	@ 0x1f5
 8002020:	4811      	ldr	r0, [pc, #68]	@ (8002068 <drawLightFunctionModules+0x1b0>)
 8002022:	f004 ffbb 	bl	8006f9c <__assert_func>
				int k = qrsize - 11 + j;
 8002026:	f1aa 050b 	sub.w	r5, sl, #11
 800202a:	4435      	add	r5, r6
				setModuleBounded(qrcode, k, i, (bits & 1) != 0);
 800202c:	f004 0b01 	and.w	fp, r4, #1
 8002030:	465b      	mov	r3, fp
 8002032:	4642      	mov	r2, r8
 8002034:	4629      	mov	r1, r5
 8002036:	4638      	mov	r0, r7
 8002038:	f7ff fc6e 	bl	8001918 <setModuleBounded>
				setModuleBounded(qrcode, i, k, (bits & 1) != 0);
 800203c:	465b      	mov	r3, fp
 800203e:	462a      	mov	r2, r5
 8002040:	4641      	mov	r1, r8
 8002042:	4638      	mov	r0, r7
 8002044:	f7ff fc68 	bl	8001918 <setModuleBounded>
				bits >>= 1;
 8002048:	1064      	asrs	r4, r4, #1
			for (int j = 0; j < 3; j++) {
 800204a:	3601      	adds	r6, #1
 800204c:	2e02      	cmp	r6, #2
 800204e:	ddea      	ble.n	8002026 <drawLightFunctionModules+0x16e>
		for (int i = 0; i < 6; i++) {
 8002050:	f108 0801 	add.w	r8, r8, #1
 8002054:	f1b8 0f05 	cmp.w	r8, #5
 8002058:	dcc7      	bgt.n	8001fea <drawLightFunctionModules+0x132>
			for (int j = 0; j < 3; j++) {
 800205a:	464e      	mov	r6, r9
 800205c:	e7f6      	b.n	800204c <drawLightFunctionModules+0x194>
 800205e:	bf00      	nop
 8002060:	08009ea8 	.word	0x08009ea8
 8002064:	0800a210 	.word	0x0800a210
 8002068:	08009b50 	.word	0x08009b50

0800206c <getPenaltyScore>:
static long getPenaltyScore(const uint8_t qrcode[]) {
 800206c:	e92d 4ff0 	stmdb	sp!, {r4, r5, r6, r7, r8, r9, sl, fp, lr}
 8002070:	b08b      	sub	sp, #44	@ 0x2c
 8002072:	4604      	mov	r4, r0
	int qrsize = qrcodegen_getSize(qrcode);
 8002074:	f7ff fe9c 	bl	8001db0 <qrcodegen_getSize>
 8002078:	4605      	mov	r5, r0
	for (int y = 0; y < qrsize; y++) {
 800207a:	f04f 0800 	mov.w	r8, #0
	long result = 0;
 800207e:	46c1      	mov	r9, r8
	for (int y = 0; y < qrsize; y++) {
 8002080:	e03a      	b.n	80020f8 <getPenaltyScore+0x8c>
					result += PENALTY_N1;
 8002082:	f109 0903 	add.w	r9, r9, #3
 8002086:	e00d      	b.n	80020a4 <getPenaltyScore+0x38>
				finderPenaltyAddHistory(runX, runHistory, qrsize);
 8002088:	462a      	mov	r2, r5
 800208a:	a903      	add	r1, sp, #12
 800208c:	4650      	mov	r0, sl
 800208e:	f7ff fe69 	bl	8001d64 <finderPenaltyAddHistory>
				if (!runColor)
 8002092:	b1e7      	cbz	r7, 80020ce <getPenaltyScore+0x62>
				runColor = getModuleBounded(qrcode, x, y);
 8002094:	4642      	mov	r2, r8
 8002096:	4631      	mov	r1, r6
 8002098:	4620      	mov	r0, r4
 800209a:	f7ff fc17 	bl	80018cc <getModuleBounded>
 800209e:	4607      	mov	r7, r0
				runX = 1;
 80020a0:	f04f 0a01 	mov.w	sl, #1
		for (int x = 0; x < qrsize; x++) {
 80020a4:	3601      	adds	r6, #1
 80020a6:	42ae      	cmp	r6, r5
 80020a8:	da1a      	bge.n	80020e0 <getPenaltyScore+0x74>
			if (getModuleBounded(qrcode, x, y) == runColor) {
 80020aa:	4642      	mov	r2, r8
 80020ac:	4631      	mov	r1, r6
 80020ae:	4620      	mov	r0, r4
 80020b0:	f7ff fc0c 	bl	80018cc <getModuleBounded>
 80020b4:	42b8      	cmp	r0, r7
 80020b6:	d1e7      	bne.n	8002088 <getPenaltyScore+0x1c>
				runX++;
 80020b8:	f10a 0a01 	add.w	sl, sl, #1
				if (runX == 5)
 80020bc:	f1ba 0f05 	cmp.w	sl, #5
 80020c0:	d0df      	beq.n	8002082 <getPenaltyScore+0x16>
				else if (runX > 5)
 80020c2:	f1ba 0f05 	cmp.w	sl, #5
 80020c6:	dded      	ble.n	80020a4 <getPenaltyScore+0x38>
					result++;
 80020c8:	f109 0901 	add.w	r9, r9, #1
 80020cc:	e7ea      	b.n	80020a4 <getPenaltyScore+0x38>
					result += finderPenaltyCountPatterns(runHistory, qrsize) * PENALTY_N3;
 80020ce:	4629      	mov	r1, r5
 80020d0:	a803      	add	r0, sp, #12
 80020d2:	f7ff fc7f 	bl	80019d4 <finderPenaltyCountPatterns>
 80020d6:	eb00 0080 	add.w	r0, r0, r0, lsl #2
 80020da:	eb09 09c0 	add.w	r9, r9, r0, lsl #3
 80020de:	e7d9      	b.n	8002094 <getPenaltyScore+0x28>
		result += finderPenaltyTerminateAndCount(runColor, runX, runHistory, qrsize) * PENALTY_N3;
 80020e0:	462b      	mov	r3, r5
 80020e2:	aa03      	add	r2, sp, #12
 80020e4:	4651      	mov	r1, sl
 80020e6:	4638      	mov	r0, r7
 80020e8:	f7ff fe49 	bl	8001d7e <finderPenaltyTerminateAndCount>
 80020ec:	eb00 0080 	add.w	r0, r0, r0, lsl #2
 80020f0:	eb09 09c0 	add.w	r9, r9, r0, lsl #3
	for (int y = 0; y < qrsize; y++) {
 80020f4:	f108 0801 	add.w	r8, r8, #1
 80020f8:	45a8      	cmp	r8, r5
 80020fa:	da0a      	bge.n	8002112 <getPenaltyScore+0xa6>
		int runHistory[7] = {0};
 80020fc:	2700      	movs	r7, #0
 80020fe:	9703      	str	r7, [sp, #12]
 8002100:	9704      	str	r7, [sp, #16]
 8002102:	9705      	str	r7, [sp, #20]
 8002104:	9706      	str	r7, [sp, #24]
 8002106:	9707      	str	r7, [sp, #28]
 8002108:	9708      	str	r7, [sp, #32]
 800210a:	9709      	str	r7, [sp, #36]	@ 0x24
		for (int x = 0; x < qrsize; x++) {
 800210c:	463e      	mov	r6, r7
		int runX = 0;
 800210e:	46ba      	mov	sl, r7
		for (int x = 0; x < qrsize; x++) {
 8002110:	e7c9      	b.n	80020a6 <getPenaltyScore+0x3a>
	for (int x = 0; x < qrsize; x++) {
 8002112:	f04f 0800 	mov.w	r8, #0
 8002116:	e03a      	b.n	800218e <getPenaltyScore+0x122>
					result += PENALTY_N1;
 8002118:	f109 0903 	add.w	r9, r9, #3
 800211c:	e00d      	b.n	800213a <getPenaltyScore+0xce>
				finderPenaltyAddHistory(runY, runHistory, qrsize);
 800211e:	462a      	mov	r2, r5
 8002120:	a903      	add	r1, sp, #12
 8002122:	4650      	mov	r0, sl
 8002124:	f7ff fe1e 	bl	8001d64 <finderPenaltyAddHistory>
				if (!runColor)
 8002128:	b1e7      	cbz	r7, 8002164 <getPenaltyScore+0xf8>
				runColor = getModuleBounded(qrcode, x, y);
 800212a:	4632      	mov	r2, r6
 800212c:	4641      	mov	r1, r8
 800212e:	4620      	mov	r0, r4
 8002130:	f7ff fbcc 	bl	80018cc <getModuleBounded>
 8002134:	4607      	mov	r7, r0
				runY = 1;
 8002136:	f04f 0a01 	mov.w	sl, #1
		for (int y = 0; y < qrsize; y++) {
 800213a:	3601      	adds	r6, #1
 800213c:	42ae      	cmp	r6, r5
 800213e:	da1a      	bge.n	8002176 <getPenaltyScore+0x10a>
			if (getModuleBounded(qrcode, x, y) == runColor) {
 8002140:	4632      	mov	r2, r6
 8002142:	4641      	mov	r1, r8
 8002144:	4620      	mov	r0, r4
 8002146:	f7ff fbc1 	bl	80018cc <getModuleBounded>
 800214a:	42b8      	cmp	r0, r7
 800214c:	d1e7      	bne.n	800211e <getPenaltyScore+0xb2>
				runY++;
 800214e:	f10a 0a01 	add.w	sl, sl, #1
				if (runY == 5)
 8002152:	f1ba 0f05 	cmp.w	sl, #5
 8002156:	d0df      	beq.n	8002118 <getPenaltyScore+0xac>
				else if (runY > 5)
 8002158:	f1ba 0f05 	cmp.w	sl, #5
 800215c:	dded      	ble.n	800213a <getPenaltyScore+0xce>
					result++;
 800215e:	f109 0901 	add.w	r9, r9, #1
 8002162:	e7ea      	b.n	800213a <getPenaltyScore+0xce>
					result += finderPenaltyCountPatterns(runHistory, qrsize) * PENALTY_N3;
 8002164:	4629      	mov	r1, r5
 8002166:	a803      	add	r0, sp, #12
 8002168:	f7ff fc34 	bl	80019d4 <finderPenaltyCountPatterns>
 800216c:	eb00 0080 	add.w	r0, r0, r0, lsl #2
 8002170:	eb09 09c0 	add.w	r9, r9, r0, lsl #3
 8002174:	e7d9      	b.n	800212a <getPenaltyScore+0xbe>
		result += finderPenaltyTerminateAndCount(runColor, runY, runHistory, qrsize) * PENALTY_N3;
 8002176:	462b      	mov	r3, r5
 8002178:	aa03      	add	r2, sp, #12
 800217a:	4651      	mov	r1, sl
 800217c:	4638      	mov	r0, r7
 800217e:	f7ff fdfe 	bl	8001d7e <finderPenaltyTerminateAndCount>
 8002182:	eb00 0080 	add.w	r0, r0, r0, lsl #2
 8002186:	eb09 09c0 	add.w	r9, r9, r0, lsl #3
	for (int x = 0; x < qrsize; x++) {
 800218a:	f108 0801 	add.w	r8, r8, #1
 800218e:	45a8      	cmp	r8, r5
 8002190:	da0a      	bge.n	80021a8 <getPenaltyScore+0x13c>
		int runHistory[7] = {0};
 8002192:	2700      	movs	r7, #0
 8002194:	9703      	str	r7, [sp, #12]
 8002196:	9704      	str	r7, [sp, #16]
 8002198:	9705      	str	r7, [sp, #20]
 800219a:	9706      	str	r7, [sp, #24]
 800219c:	9707      	str	r7, [sp, #28]
 800219e:	9708      	str	r7, [sp, #32]
 80021a0:	9709      	str	r7, [sp, #36]	@ 0x24
		for (int y = 0; y < qrsize; y++) {
 80021a2:	463e      	mov	r6, r7
		int runY = 0;
 80021a4:	46ba      	mov	sl, r7
		for (int y = 0; y < qrsize; y++) {
 80021a6:	e7c9      	b.n	800213c <getPenaltyScore+0xd0>
	for (int y = 0; y < qrsize - 1; y++) {
 80021a8:	f04f 0a00 	mov.w	sl, #0
 80021ac:	e027      	b.n	80021fe <getPenaltyScore+0x192>
	for (int x = 0; x < qrsize; x++) {
 80021ae:	4646      	mov	r6, r8
		for (int x = 0; x < qrsize - 1; x++) {
 80021b0:	45b3      	cmp	fp, r6
 80021b2:	dd22      	ble.n	80021fa <getPenaltyScore+0x18e>
			bool  color = getModuleBounded(qrcode, x, y);
 80021b4:	4652      	mov	r2, sl
 80021b6:	4631      	mov	r1, r6
 80021b8:	4620      	mov	r0, r4
 80021ba:	f7ff fb87 	bl	80018cc <getModuleBounded>
 80021be:	4607      	mov	r7, r0
			if (  color == getModuleBounded(qrcode, x + 1, y) &&
 80021c0:	f106 0801 	add.w	r8, r6, #1
 80021c4:	4652      	mov	r2, sl
 80021c6:	4641      	mov	r1, r8
 80021c8:	4620      	mov	r0, r4
 80021ca:	f7ff fb7f 	bl	80018cc <getModuleBounded>
 80021ce:	42b8      	cmp	r0, r7
 80021d0:	d1ed      	bne.n	80021ae <getPenaltyScore+0x142>
			      color == getModuleBounded(qrcode, x, y + 1) &&
 80021d2:	f10a 0301 	add.w	r3, sl, #1
 80021d6:	9301      	str	r3, [sp, #4]
 80021d8:	461a      	mov	r2, r3
 80021da:	4631      	mov	r1, r6
 80021dc:	4620      	mov	r0, r4
 80021de:	f7ff fb75 	bl	80018cc <getModuleBounded>
			if (  color == getModuleBounded(qrcode, x + 1, y) &&
 80021e2:	42b8      	cmp	r0, r7
 80021e4:	d1e3      	bne.n	80021ae <getPenaltyScore+0x142>
			      color == getModuleBounded(qrcode, x + 1, y + 1))
 80021e6:	9a01      	ldr	r2, [sp, #4]
 80021e8:	4641      	mov	r1, r8
 80021ea:	4620      	mov	r0, r4
 80021ec:	f7ff fb6e 	bl	80018cc <getModuleBounded>
			      color == getModuleBounded(qrcode, x, y + 1) &&
 80021f0:	42b8      	cmp	r0, r7
 80021f2:	d1dc      	bne.n	80021ae <getPenaltyScore+0x142>
				result += PENALTY_N2;
 80021f4:	f109 0903 	add.w	r9, r9, #3
 80021f8:	e7d9      	b.n	80021ae <getPenaltyScore+0x142>
	for (int y = 0; y < qrsize - 1; y++) {
 80021fa:	f10a 0a01 	add.w	sl, sl, #1
 80021fe:	f105 3bff 	add.w	fp, r5, #4294967295
 8002202:	45d3      	cmp	fp, sl
 8002204:	dd01      	ble.n	800220a <getPenaltyScore+0x19e>
		for (int x = 0; x < qrsize - 1; x++) {
 8002206:	2600      	movs	r6, #0
 8002208:	e7d2      	b.n	80021b0 <getPenaltyScore+0x144>
	for (int y = 0; y < qrsize; y++) {
 800220a:	2700      	movs	r7, #0
	int dark = 0;
 800220c:	46b8      	mov	r8, r7
 800220e:	e00d      	b.n	800222c <getPenaltyScore+0x1c0>
		for (int x = 0; x < qrsize; x++) {
 8002210:	3601      	adds	r6, #1
 8002212:	42ae      	cmp	r6, r5
 8002214:	da09      	bge.n	800222a <getPenaltyScore+0x1be>
			if (getModuleBounded(qrcode, x, y))
 8002216:	463a      	mov	r2, r7
 8002218:	4631      	mov	r1, r6
 800221a:	4620      	mov	r0, r4
 800221c:	f7ff fb56 	bl	80018cc <getModuleBounded>
 8002220:	2800      	cmp	r0, #0
 8002222:	d0f5      	beq.n	8002210 <getPenaltyScore+0x1a4>
				dark++;
 8002224:	f108 0801 	add.w	r8, r8, #1
 8002228:	e7f2      	b.n	8002210 <getPenaltyScore+0x1a4>
	for (int y = 0; y < qrsize; y++) {
 800222a:	3701      	adds	r7, #1
 800222c:	42af      	cmp	r7, r5
 800222e:	da01      	bge.n	8002234 <getPenaltyScore+0x1c8>
		for (int x = 0; x < qrsize; x++) {
 8002230:	2600      	movs	r6, #0
 8002232:	e7ee      	b.n	8002212 <getPenaltyScore+0x1a6>
	int total = qrsize * qrsize;  // Note that size is odd, so dark/total != 1/2
 8002234:	fb05 f505 	mul.w	r5, r5, r5
	int k = (int)((labs(dark * 20L - total * 10L) + total - 1) / total) - 1;
 8002238:	eb08 0888 	add.w	r8, r8, r8, lsl #2
 800223c:	f06f 0309 	mvn.w	r3, #9
 8002240:	fb05 f303 	mul.w	r3, r5, r3
 8002244:	eb03 0388 	add.w	r3, r3, r8, lsl #2
 8002248:	2b00      	cmp	r3, #0
 800224a:	bfb8      	it	lt
 800224c:	425b      	neglt	r3, r3
 800224e:	442b      	add	r3, r5
 8002250:	3b01      	subs	r3, #1
 8002252:	fb93 f3f5 	sdiv	r3, r3, r5
 8002256:	3b01      	subs	r3, #1
	assert(0 <= k && k <= 9);
 8002258:	2b09      	cmp	r3, #9
 800225a:	d809      	bhi.n	8002270 <getPenaltyScore+0x204>
	result += k * PENALTY_N4;
 800225c:	eb03 0383 	add.w	r3, r3, r3, lsl #2
 8002260:	eb09 0043 	add.w	r0, r9, r3, lsl #1
	assert(0 <= result && result <= 2568888L);  // Non-tight upper bound based on default values of PENALTY_N1, ..., N4
 8002264:	4b09      	ldr	r3, [pc, #36]	@ (800228c <getPenaltyScore+0x220>)
 8002266:	4298      	cmp	r0, r3
 8002268:	d809      	bhi.n	800227e <getPenaltyScore+0x212>
}
 800226a:	b00b      	add	sp, #44	@ 0x2c
 800226c:	e8bd 8ff0 	ldmia.w	sp!, {r4, r5, r6, r7, r8, r9, sl, fp, pc}
	assert(0 <= k && k <= 9);
 8002270:	4b07      	ldr	r3, [pc, #28]	@ (8002290 <getPenaltyScore+0x224>)
 8002272:	4a08      	ldr	r2, [pc, #32]	@ (8002294 <getPenaltyScore+0x228>)
 8002274:	f240 21c5 	movw	r1, #709	@ 0x2c5
 8002278:	4807      	ldr	r0, [pc, #28]	@ (8002298 <getPenaltyScore+0x22c>)
 800227a:	f004 fe8f 	bl	8006f9c <__assert_func>
	assert(0 <= result && result <= 2568888L);  // Non-tight upper bound based on default values of PENALTY_N1, ..., N4
 800227e:	4b07      	ldr	r3, [pc, #28]	@ (800229c <getPenaltyScore+0x230>)
 8002280:	4a04      	ldr	r2, [pc, #16]	@ (8002294 <getPenaltyScore+0x228>)
 8002282:	f240 21c7 	movw	r1, #711	@ 0x2c7
 8002286:	4804      	ldr	r0, [pc, #16]	@ (8002298 <getPenaltyScore+0x22c>)
 8002288:	f004 fe88 	bl	8006f9c <__assert_func>
 800228c:	002732b8 	.word	0x002732b8
 8002290:	08009eb8 	.word	0x08009eb8
 8002294:	0800a200 	.word	0x0800a200
 8002298:	08009b50 	.word	0x08009b50
 800229c:	08009ecc 	.word	0x08009ecc

080022a0 <applyMask>:
static void applyMask(const uint8_t functionModules[], uint8_t qrcode[], enum qrcodegen_Mask mask) {
 80022a0:	e92d 47f0 	stmdb	sp!, {r4, r5, r6, r7, r8, r9, sl, lr}
	assert(0 <= (int)mask && (int)mask <= 7);  // Disallows qrcodegen_Mask_AUTO
 80022a4:	b2d3      	uxtb	r3, r2
 80022a6:	2b07      	cmp	r3, #7
 80022a8:	d808      	bhi.n	80022bc <applyMask+0x1c>
 80022aa:	4682      	mov	sl, r0
 80022ac:	4688      	mov	r8, r1
 80022ae:	4617      	mov	r7, r2
	int qrsize = qrcodegen_getSize(qrcode);
 80022b0:	4608      	mov	r0, r1
 80022b2:	f7ff fd7d 	bl	8001db0 <qrcodegen_getSize>
 80022b6:	4681      	mov	r9, r0
	for (int y = 0; y < qrsize; y++) {
 80022b8:	2600      	movs	r6, #0
 80022ba:	e0ac      	b.n	8002416 <applyMask+0x176>
	assert(0 <= (int)mask && (int)mask <= 7);  // Disallows qrcodegen_Mask_AUTO
 80022bc:	4b59      	ldr	r3, [pc, #356]	@ (8002424 <applyMask+0x184>)
 80022be:	4a5a      	ldr	r2, [pc, #360]	@ (8002428 <applyMask+0x188>)
 80022c0:	f240 2163 	movw	r1, #611	@ 0x263
 80022c4:	4859      	ldr	r0, [pc, #356]	@ (800242c <applyMask+0x18c>)
 80022c6:	f004 fe69 	bl	8006f9c <__assert_func>
				case 0:  invert = (x + y) % 2 == 0;                    break;
 80022ca:	1935      	adds	r5, r6, r4
 80022cc:	f085 0501 	eor.w	r5, r5, #1
 80022d0:	f005 0501 	and.w	r5, r5, #1
			bool val = getModuleBounded(qrcode, x, y);
 80022d4:	4632      	mov	r2, r6
 80022d6:	4621      	mov	r1, r4
 80022d8:	4640      	mov	r0, r8
 80022da:	f7ff faf7 	bl	80018cc <getModuleBounded>
			setModuleBounded(qrcode, x, y, val ^ invert);
 80022de:	1a2b      	subs	r3, r5, r0
 80022e0:	bf18      	it	ne
 80022e2:	2301      	movne	r3, #1
 80022e4:	4632      	mov	r2, r6
 80022e6:	4621      	mov	r1, r4
 80022e8:	4640      	mov	r0, r8
 80022ea:	f7ff fb15 	bl	8001918 <setModuleBounded>
		for (int x = 0; x < qrsize; x++) {
 80022ee:	3401      	adds	r4, #1
 80022f0:	454c      	cmp	r4, r9
 80022f2:	f280 808f 	bge.w	8002414 <applyMask+0x174>
			if (getModuleBounded(functionModules, x, y))
 80022f6:	4632      	mov	r2, r6
 80022f8:	4621      	mov	r1, r4
 80022fa:	4650      	mov	r0, sl
 80022fc:	f7ff fae6 	bl	80018cc <getModuleBounded>
 8002300:	2800      	cmp	r0, #0
 8002302:	d1f4      	bne.n	80022ee <applyMask+0x4e>
			switch ((int)mask) {
 8002304:	2f07      	cmp	r7, #7
 8002306:	d87e      	bhi.n	8002406 <applyMask+0x166>
 8002308:	a301      	add	r3, pc, #4	@ (adr r3, 8002310 <applyMask+0x70>)
 800230a:	f853 f027 	ldr.w	pc, [r3, r7, lsl #2]
 800230e:	bf00      	nop
 8002310:	080022cb 	.word	0x080022cb
 8002314:	08002331 	.word	0x08002331
 8002318:	0800233b 	.word	0x0800233b
 800231c:	08002353 	.word	0x08002353
 8002320:	0800236d 	.word	0x0800236d
 8002324:	08002389 	.word	0x08002389
 8002328:	080023b3 	.word	0x080023b3
 800232c:	080023dd 	.word	0x080023dd
				case 1:  invert = y % 2 == 0;                          break;
 8002330:	f086 0501 	eor.w	r5, r6, #1
 8002334:	f005 0501 	and.w	r5, r5, #1
 8002338:	e7cc      	b.n	80022d4 <applyMask+0x34>
				case 2:  invert = x % 3 == 0;                          break;
 800233a:	4d3d      	ldr	r5, [pc, #244]	@ (8002430 <applyMask+0x190>)
 800233c:	fb85 3504 	smull	r3, r5, r5, r4
 8002340:	eba5 75e4 	sub.w	r5, r5, r4, asr #31
 8002344:	eb05 0545 	add.w	r5, r5, r5, lsl #1
 8002348:	42ac      	cmp	r4, r5
 800234a:	bf14      	ite	ne
 800234c:	2500      	movne	r5, #0
 800234e:	2501      	moveq	r5, #1
 8002350:	e7c0      	b.n	80022d4 <applyMask+0x34>
				case 3:  invert = (x + y) % 3 == 0;                    break;
 8002352:	1935      	adds	r5, r6, r4
 8002354:	4b36      	ldr	r3, [pc, #216]	@ (8002430 <applyMask+0x190>)
 8002356:	fb83 2305 	smull	r2, r3, r3, r5
 800235a:	eba3 73e5 	sub.w	r3, r3, r5, asr #31
 800235e:	eb03 0343 	add.w	r3, r3, r3, lsl #1
 8002362:	429d      	cmp	r5, r3
 8002364:	bf14      	ite	ne
 8002366:	2500      	movne	r5, #0
 8002368:	2501      	moveq	r5, #1
 800236a:	e7b3      	b.n	80022d4 <applyMask+0x34>
				case 4:  invert = (x / 3 + y / 2) % 2 == 0;            break;
 800236c:	4d30      	ldr	r5, [pc, #192]	@ (8002430 <applyMask+0x190>)
 800236e:	fb85 3504 	smull	r3, r5, r5, r4
 8002372:	eba5 75e4 	sub.w	r5, r5, r4, asr #31
 8002376:	eb06 73d6 	add.w	r3, r6, r6, lsr #31
 800237a:	eb05 0563 	add.w	r5, r5, r3, asr #1
 800237e:	f085 0501 	eor.w	r5, r5, #1
 8002382:	f005 0501 	and.w	r5, r5, #1
 8002386:	e7a5      	b.n	80022d4 <applyMask+0x34>
				case 5:  invert = x * y % 2 + x * y % 3 == 0;          break;
 8002388:	fb04 f206 	mul.w	r2, r4, r6
 800238c:	2a00      	cmp	r2, #0
 800238e:	f002 0301 	and.w	r3, r2, #1
 8002392:	bfb8      	it	lt
 8002394:	425b      	neglt	r3, r3
 8002396:	4619      	mov	r1, r3
 8002398:	4b25      	ldr	r3, [pc, #148]	@ (8002430 <applyMask+0x190>)
 800239a:	fb83 0302 	smull	r0, r3, r3, r2
 800239e:	eba3 73e2 	sub.w	r3, r3, r2, asr #31
 80023a2:	eb03 0343 	add.w	r3, r3, r3, lsl #1
 80023a6:	1ad3      	subs	r3, r2, r3
 80023a8:	42d9      	cmn	r1, r3
 80023aa:	bf0c      	ite	eq
 80023ac:	2501      	moveq	r5, #1
 80023ae:	2500      	movne	r5, #0
 80023b0:	e790      	b.n	80022d4 <applyMask+0x34>
				case 6:  invert = (x * y % 2 + x * y % 3) % 2 == 0;    break;
 80023b2:	fb04 f206 	mul.w	r2, r4, r6
 80023b6:	2a00      	cmp	r2, #0
 80023b8:	f002 0501 	and.w	r5, r2, #1
 80023bc:	bfb8      	it	lt
 80023be:	426d      	neglt	r5, r5
 80023c0:	4b1b      	ldr	r3, [pc, #108]	@ (8002430 <applyMask+0x190>)
 80023c2:	fb83 1302 	smull	r1, r3, r3, r2
 80023c6:	eba3 73e2 	sub.w	r3, r3, r2, asr #31
 80023ca:	eb03 0343 	add.w	r3, r3, r3, lsl #1
 80023ce:	1ad3      	subs	r3, r2, r3
 80023d0:	441d      	add	r5, r3
 80023d2:	f085 0501 	eor.w	r5, r5, #1
 80023d6:	f005 0501 	and.w	r5, r5, #1
 80023da:	e77b      	b.n	80022d4 <applyMask+0x34>
				case 7:  invert = ((x + y) % 2 + x * y % 3) % 2 == 0;  break;
 80023dc:	1935      	adds	r5, r6, r4
 80023de:	f005 0501 	and.w	r5, r5, #1
 80023e2:	bf48      	it	mi
 80023e4:	426d      	negmi	r5, r5
 80023e6:	fb04 f206 	mul.w	r2, r4, r6
 80023ea:	4b11      	ldr	r3, [pc, #68]	@ (8002430 <applyMask+0x190>)
 80023ec:	fb83 1302 	smull	r1, r3, r3, r2
 80023f0:	eba3 73e2 	sub.w	r3, r3, r2, asr #31
 80023f4:	eb03 0343 	add.w	r3, r3, r3, lsl #1
 80023f8:	1ad3      	subs	r3, r2, r3
 80023fa:	441d      	add	r5, r3
 80023fc:	f085 0501 	eor.w	r5, r5, #1
 8002400:	f005 0501 	and.w	r5, r5, #1
 8002404:	e766      	b.n	80022d4 <applyMask+0x34>
				default:  assert(false);  return;
 8002406:	4b0b      	ldr	r3, [pc, #44]	@ (8002434 <applyMask+0x194>)
 8002408:	4a07      	ldr	r2, [pc, #28]	@ (8002428 <applyMask+0x188>)
 800240a:	f240 2173 	movw	r1, #627	@ 0x273
 800240e:	4807      	ldr	r0, [pc, #28]	@ (800242c <applyMask+0x18c>)
 8002410:	f004 fdc4 	bl	8006f9c <__assert_func>
	for (int y = 0; y < qrsize; y++) {
 8002414:	3601      	adds	r6, #1
 8002416:	454e      	cmp	r6, r9
 8002418:	da01      	bge.n	800241e <applyMask+0x17e>
		for (int x = 0; x < qrsize; x++) {
 800241a:	2400      	movs	r4, #0
 800241c:	e768      	b.n	80022f0 <applyMask+0x50>
}
 800241e:	e8bd 87f0 	ldmia.w	sp!, {r4, r5, r6, r7, r8, r9, sl, pc}
 8002422:	bf00      	nop
 8002424:	08009ef0 	.word	0x08009ef0
 8002428:	0800a1d8 	.word	0x0800a1d8
 800242c:	08009b50 	.word	0x08009b50
 8002430:	55555556 	.word	0x55555556
 8002434:	08009b48 	.word	0x08009b48

08002438 <drawFormatBits>:
static void drawFormatBits(enum qrcodegen_Ecc ecl, enum qrcodegen_Mask mask, uint8_t qrcode[]) {
 8002438:	e92d 41f0 	stmdb	sp!, {r4, r5, r6, r7, r8, lr}
	assert(0 <= (int)mask && (int)mask <= 7);
 800243c:	b2cb      	uxtb	r3, r1
 800243e:	2b07      	cmp	r3, #7
 8002440:	d808      	bhi.n	8002454 <drawFormatBits+0x1c>
 8002442:	4615      	mov	r5, r2
	int data = table[(int)ecl] << 3 | (int)mask;  // errCorrLvl is uint2, mask is uint3
 8002444:	4b4a      	ldr	r3, [pc, #296]	@ (8002570 <drawFormatBits+0x138>)
 8002446:	f853 3020 	ldr.w	r3, [r3, r0, lsl #2]
 800244a:	ea41 01c3 	orr.w	r1, r1, r3, lsl #3
	int rem = data;
 800244e:	460c      	mov	r4, r1
	for (int i = 0; i < 10; i++)
 8002450:	2200      	movs	r2, #0
 8002452:	e00e      	b.n	8002472 <drawFormatBits+0x3a>
	assert(0 <= (int)mask && (int)mask <= 7);
 8002454:	4b47      	ldr	r3, [pc, #284]	@ (8002574 <drawFormatBits+0x13c>)
 8002456:	4a48      	ldr	r2, [pc, #288]	@ (8002578 <drawFormatBits+0x140>)
 8002458:	f240 2109 	movw	r1, #521	@ 0x209
 800245c:	4847      	ldr	r0, [pc, #284]	@ (800257c <drawFormatBits+0x144>)
 800245e:	f004 fd9d 	bl	8006f9c <__assert_func>
		rem = (rem << 1) ^ ((rem >> 9) * 0x537);
 8002462:	1263      	asrs	r3, r4, #9
 8002464:	f240 5037 	movw	r0, #1335	@ 0x537
 8002468:	fb00 f303 	mul.w	r3, r0, r3
 800246c:	ea83 0444 	eor.w	r4, r3, r4, lsl #1
	for (int i = 0; i < 10; i++)
 8002470:	3201      	adds	r2, #1
 8002472:	2a09      	cmp	r2, #9
 8002474:	ddf5      	ble.n	8002462 <drawFormatBits+0x2a>
	int bits = (data << 10 | rem) ^ 0x5412;  // uint15
 8002476:	ea44 2481 	orr.w	r4, r4, r1, lsl #10
 800247a:	f484 46a8 	eor.w	r6, r4, #21504	@ 0x5400
 800247e:	f086 0612 	eor.w	r6, r6, #18
	assert(bits >> 15 == 0);
 8002482:	13e4      	asrs	r4, r4, #15
 8002484:	d101      	bne.n	800248a <drawFormatBits+0x52>
	for (int i = 0; i <= 5; i++)
 8002486:	4627      	mov	r7, r4
 8002488:	e011      	b.n	80024ae <drawFormatBits+0x76>
	assert(bits >> 15 == 0);
 800248a:	4b3d      	ldr	r3, [pc, #244]	@ (8002580 <drawFormatBits+0x148>)
 800248c:	4a3a      	ldr	r2, [pc, #232]	@ (8002578 <drawFormatBits+0x140>)
 800248e:	f44f 7104 	mov.w	r1, #528	@ 0x210
 8002492:	483a      	ldr	r0, [pc, #232]	@ (800257c <drawFormatBits+0x144>)
 8002494:	f004 fd82 	bl	8006f9c <__assert_func>
		setModuleBounded(qrcode, 8, i, getBit(bits, i));
 8002498:	4639      	mov	r1, r7
 800249a:	4630      	mov	r0, r6
 800249c:	f7ff f87c 	bl	8001598 <getBit>
 80024a0:	4603      	mov	r3, r0
 80024a2:	463a      	mov	r2, r7
 80024a4:	2108      	movs	r1, #8
 80024a6:	4628      	mov	r0, r5
 80024a8:	f7ff fa36 	bl	8001918 <setModuleBounded>
	for (int i = 0; i <= 5; i++)
 80024ac:	3701      	adds	r7, #1
 80024ae:	2f05      	cmp	r7, #5
 80024b0:	ddf2      	ble.n	8002498 <drawFormatBits+0x60>
	setModuleBounded(qrcode, 8, 7, getBit(bits, 6));
 80024b2:	2106      	movs	r1, #6
 80024b4:	4630      	mov	r0, r6
 80024b6:	f7ff f86f 	bl	8001598 <getBit>
 80024ba:	4603      	mov	r3, r0
 80024bc:	2207      	movs	r2, #7
 80024be:	2108      	movs	r1, #8
 80024c0:	4628      	mov	r0, r5
 80024c2:	f7ff fa29 	bl	8001918 <setModuleBounded>
	setModuleBounded(qrcode, 8, 8, getBit(bits, 7));
 80024c6:	2107      	movs	r1, #7
 80024c8:	4630      	mov	r0, r6
 80024ca:	f7ff f865 	bl	8001598 <getBit>
 80024ce:	4603      	mov	r3, r0
 80024d0:	2208      	movs	r2, #8
 80024d2:	4611      	mov	r1, r2
 80024d4:	4628      	mov	r0, r5
 80024d6:	f7ff fa1f 	bl	8001918 <setModuleBounded>
	setModuleBounded(qrcode, 7, 8, getBit(bits, 8));
 80024da:	2108      	movs	r1, #8
 80024dc:	4630      	mov	r0, r6
 80024de:	f7ff f85b 	bl	8001598 <getBit>
 80024e2:	4603      	mov	r3, r0
 80024e4:	2208      	movs	r2, #8
 80024e6:	2107      	movs	r1, #7
 80024e8:	4628      	mov	r0, r5
 80024ea:	f7ff fa15 	bl	8001918 <setModuleBounded>
	for (int i = 9; i < 15; i++)
 80024ee:	2709      	movs	r7, #9
 80024f0:	e00b      	b.n	800250a <drawFormatBits+0xd2>
		setModuleBounded(qrcode, 14 - i, 8, getBit(bits, i));
 80024f2:	4639      	mov	r1, r7
 80024f4:	4630      	mov	r0, r6
 80024f6:	f7ff f84f 	bl	8001598 <getBit>
 80024fa:	4603      	mov	r3, r0
 80024fc:	2208      	movs	r2, #8
 80024fe:	f1c7 010e 	rsb	r1, r7, #14
 8002502:	4628      	mov	r0, r5
 8002504:	f7ff fa08 	bl	8001918 <setModuleBounded>
	for (int i = 9; i < 15; i++)
 8002508:	3701      	adds	r7, #1
 800250a:	2f0e      	cmp	r7, #14
 800250c:	ddf1      	ble.n	80024f2 <drawFormatBits+0xba>
	int qrsize = qrcodegen_getSize(qrcode);
 800250e:	4628      	mov	r0, r5
 8002510:	f7ff fc4e 	bl	8001db0 <qrcodegen_getSize>
 8002514:	4680      	mov	r8, r0
	for (int i = 0; i < 8; i++)
 8002516:	e00d      	b.n	8002534 <drawFormatBits+0xfc>
		setModuleBounded(qrcode, qrsize - 1 - i, 8, getBit(bits, i));
 8002518:	f108 37ff 	add.w	r7, r8, #4294967295
 800251c:	1b3f      	subs	r7, r7, r4
 800251e:	4621      	mov	r1, r4
 8002520:	4630      	mov	r0, r6
 8002522:	f7ff f839 	bl	8001598 <getBit>
 8002526:	4603      	mov	r3, r0
 8002528:	2208      	movs	r2, #8
 800252a:	4639      	mov	r1, r7
 800252c:	4628      	mov	r0, r5
 800252e:	f7ff f9f3 	bl	8001918 <setModuleBounded>
	for (int i = 0; i < 8; i++)
 8002532:	3401      	adds	r4, #1
 8002534:	2c07      	cmp	r4, #7
 8002536:	ddef      	ble.n	8002518 <drawFormatBits+0xe0>
	for (int i = 8; i < 15; i++)
 8002538:	2408      	movs	r4, #8
 800253a:	e00d      	b.n	8002558 <drawFormatBits+0x120>
		setModuleBounded(qrcode, 8, qrsize - 15 + i, getBit(bits, i));
 800253c:	f1a8 070f 	sub.w	r7, r8, #15
 8002540:	4427      	add	r7, r4
 8002542:	4621      	mov	r1, r4
 8002544:	4630      	mov	r0, r6
 8002546:	f7ff f827 	bl	8001598 <getBit>
 800254a:	4603      	mov	r3, r0
 800254c:	463a      	mov	r2, r7
 800254e:	2108      	movs	r1, #8
 8002550:	4628      	mov	r0, r5
 8002552:	f7ff f9e1 	bl	8001918 <setModuleBounded>
	for (int i = 8; i < 15; i++)
 8002556:	3401      	adds	r4, #1
 8002558:	2c0e      	cmp	r4, #14
 800255a:	ddef      	ble.n	800253c <drawFormatBits+0x104>
	setModuleBounded(qrcode, 8, qrsize - 8, true);  // Always dark
 800255c:	2301      	movs	r3, #1
 800255e:	f1a8 0208 	sub.w	r2, r8, #8
 8002562:	2108      	movs	r1, #8
 8002564:	4628      	mov	r0, r5
 8002566:	f7ff f9d7 	bl	8001918 <setModuleBounded>
}
 800256a:	e8bd 81f0 	ldmia.w	sp!, {r4, r5, r6, r7, r8, pc}
 800256e:	bf00      	nop
 8002570:	0800a1b8 	.word	0x0800a1b8
 8002574:	08009ef0 	.word	0x08009ef0
 8002578:	0800a1c8 	.word	0x0800a1c8
 800257c:	08009b50 	.word	0x08009b50
 8002580:	08009f14 	.word	0x08009f14

08002584 <qrcodegen_encodeSegmentsAdvanced>:
		int minVersion, int maxVersion, enum qrcodegen_Mask mask, bool boostEcl, uint8_t tempBuffer[], uint8_t qrcode[]) {
 8002584:	e92d 4ff0 	stmdb	sp!, {r4, r5, r6, r7, r8, r9, sl, fp, lr}
 8002588:	b087      	sub	sp, #28
 800258a:	468b      	mov	fp, r1
 800258c:	4615      	mov	r5, r2
 800258e:	461c      	mov	r4, r3
 8002590:	f8dd a040 	ldr.w	sl, [sp, #64]	@ 0x40
 8002594:	f99d 3044 	ldrsb.w	r3, [sp, #68]	@ 0x44
 8002598:	9301      	str	r3, [sp, #4]
 800259a:	f89d 6048 	ldrb.w	r6, [sp, #72]	@ 0x48
 800259e:	9f14      	ldr	r7, [sp, #80]	@ 0x50
	assert(segs != NULL || len == 0);
 80025a0:	4680      	mov	r8, r0
 80025a2:	b1a0      	cbz	r0, 80025ce <qrcodegen_encodeSegmentsAdvanced+0x4a>
	assert(qrcodegen_VERSION_MIN <= minVersion && minVersion <= maxVersion && maxVersion <= qrcodegen_VERSION_MAX);
 80025a4:	2c00      	cmp	r4, #0
 80025a6:	dd1a      	ble.n	80025de <qrcodegen_encodeSegmentsAdvanced+0x5a>
 80025a8:	4554      	cmp	r4, sl
 80025aa:	dc18      	bgt.n	80025de <qrcodegen_encodeSegmentsAdvanced+0x5a>
 80025ac:	f1ba 0f28 	cmp.w	sl, #40	@ 0x28
 80025b0:	dc15      	bgt.n	80025de <qrcodegen_encodeSegmentsAdvanced+0x5a>
	assert(0 <= (int)ecl && (int)ecl <= 3 && -1 <= (int)mask && (int)mask <= 7);
 80025b2:	2d03      	cmp	r5, #3
 80025b4:	d805      	bhi.n	80025c2 <qrcodegen_encodeSegmentsAdvanced+0x3e>
 80025b6:	9b01      	ldr	r3, [sp, #4]
 80025b8:	f1b3 3fff 	cmp.w	r3, #4294967295
 80025bc:	db01      	blt.n	80025c2 <qrcodegen_encodeSegmentsAdvanced+0x3e>
 80025be:	2b07      	cmp	r3, #7
 80025c0:	dd16      	ble.n	80025f0 <qrcodegen_encodeSegmentsAdvanced+0x6c>
 80025c2:	4b9a      	ldr	r3, [pc, #616]	@ (800282c <qrcodegen_encodeSegmentsAdvanced+0x2a8>)
 80025c4:	4a9a      	ldr	r2, [pc, #616]	@ (8002830 <qrcodegen_encodeSegmentsAdvanced+0x2ac>)
 80025c6:	21d3      	movs	r1, #211	@ 0xd3
 80025c8:	489a      	ldr	r0, [pc, #616]	@ (8002834 <qrcodegen_encodeSegmentsAdvanced+0x2b0>)
 80025ca:	f004 fce7 	bl	8006f9c <__assert_func>
	assert(segs != NULL || len == 0);
 80025ce:	2900      	cmp	r1, #0
 80025d0:	d0e8      	beq.n	80025a4 <qrcodegen_encodeSegmentsAdvanced+0x20>
 80025d2:	4b99      	ldr	r3, [pc, #612]	@ (8002838 <qrcodegen_encodeSegmentsAdvanced+0x2b4>)
 80025d4:	4a96      	ldr	r2, [pc, #600]	@ (8002830 <qrcodegen_encodeSegmentsAdvanced+0x2ac>)
 80025d6:	21d1      	movs	r1, #209	@ 0xd1
 80025d8:	4896      	ldr	r0, [pc, #600]	@ (8002834 <qrcodegen_encodeSegmentsAdvanced+0x2b0>)
 80025da:	f004 fcdf 	bl	8006f9c <__assert_func>
	assert(qrcodegen_VERSION_MIN <= minVersion && minVersion <= maxVersion && maxVersion <= qrcodegen_VERSION_MAX);
 80025de:	4b97      	ldr	r3, [pc, #604]	@ (800283c <qrcodegen_encodeSegmentsAdvanced+0x2b8>)
 80025e0:	4a93      	ldr	r2, [pc, #588]	@ (8002830 <qrcodegen_encodeSegmentsAdvanced+0x2ac>)
 80025e2:	21d2      	movs	r1, #210	@ 0xd2
 80025e4:	4893      	ldr	r0, [pc, #588]	@ (8002834 <qrcodegen_encodeSegmentsAdvanced+0x2b0>)
 80025e6:	f004 fcd9 	bl	8006f9c <__assert_func>
		if (version >= maxVersion) {  // All versions in the range could not fit the given data
 80025ea:	4554      	cmp	r4, sl
 80025ec:	da14      	bge.n	8002618 <qrcodegen_encodeSegmentsAdvanced+0x94>
	for (version = minVersion; ; version++) {
 80025ee:	3401      	adds	r4, #1
		int dataCapacityBits = getNumDataCodewords(version, ecl) * 8;  // Number of data bits available
 80025f0:	4629      	mov	r1, r5
 80025f2:	4620      	mov	r0, r4
 80025f4:	f7ff f93e 	bl	8001874 <getNumDataCodewords>
 80025f8:	ea4f 09c0 	mov.w	r9, r0, lsl #3
		dataUsedBits = getTotalBits(segs, len, version);
 80025fc:	4622      	mov	r2, r4
 80025fe:	4659      	mov	r1, fp
 8002600:	4640      	mov	r0, r8
 8002602:	f7ff f861 	bl	80016c8 <getTotalBits>
		if (dataUsedBits != LENGTH_OVERFLOW && dataUsedBits <= dataCapacityBits)
 8002606:	f1b0 3fff 	cmp.w	r0, #4294967295
 800260a:	d0ee      	beq.n	80025ea <qrcodegen_encodeSegmentsAdvanced+0x66>
 800260c:	4581      	cmp	r9, r0
 800260e:	dbec      	blt.n	80025ea <qrcodegen_encodeSegmentsAdvanced+0x66>
	for (int i = (int)qrcodegen_Ecc_MEDIUM; i <= (int)qrcodegen_Ecc_HIGH; i++) {  // From low to high
 8002610:	9002      	str	r0, [sp, #8]
 8002612:	f04f 0901 	mov.w	r9, #1
 8002616:	e006      	b.n	8002626 <qrcodegen_encodeSegmentsAdvanced+0xa2>
			qrcode[0] = 0;  // Set size to invalid value for safety
 8002618:	2000      	movs	r0, #0
 800261a:	7038      	strb	r0, [r7, #0]
}
 800261c:	b007      	add	sp, #28
 800261e:	e8bd 8ff0 	ldmia.w	sp!, {r4, r5, r6, r7, r8, r9, sl, fp, pc}
	for (int i = (int)qrcodegen_Ecc_MEDIUM; i <= (int)qrcodegen_Ecc_HIGH; i++) {  // From low to high
 8002622:	f109 0901 	add.w	r9, r9, #1
 8002626:	f1b9 0f03 	cmp.w	r9, #3
 800262a:	dc0d      	bgt.n	8002648 <qrcodegen_encodeSegmentsAdvanced+0xc4>
		if (boostEcl && dataUsedBits <= getNumDataCodewords(version, (enum qrcodegen_Ecc)i) * 8)
 800262c:	2e00      	cmp	r6, #0
 800262e:	d0f8      	beq.n	8002622 <qrcodegen_encodeSegmentsAdvanced+0x9e>
 8002630:	fa5f fa89 	uxtb.w	sl, r9
 8002634:	4651      	mov	r1, sl
 8002636:	4620      	mov	r0, r4
 8002638:	f7ff f91c 	bl	8001874 <getNumDataCodewords>
 800263c:	9b02      	ldr	r3, [sp, #8]
 800263e:	ebb3 0fc0 	cmp.w	r3, r0, lsl #3
 8002642:	dcee      	bgt.n	8002622 <qrcodegen_encodeSegmentsAdvanced+0x9e>
			ecl = (enum qrcodegen_Ecc)i;
 8002644:	4655      	mov	r5, sl
 8002646:	e7ec      	b.n	8002622 <qrcodegen_encodeSegmentsAdvanced+0x9e>
	memset(qrcode, 0, (size_t)qrcodegen_BUFFER_LEN_FOR_VERSION(version) * sizeof(qrcode[0]));
 8002648:	00a3      	lsls	r3, r4, #2
 800264a:	3311      	adds	r3, #17
 800264c:	fb03 f303 	mul.w	r3, r3, r3
 8002650:	3307      	adds	r3, #7
 8002652:	d40b      	bmi.n	800266c <qrcodegen_encodeSegmentsAdvanced+0xe8>
 8002654:	10db      	asrs	r3, r3, #3
 8002656:	1c5a      	adds	r2, r3, #1
 8002658:	2100      	movs	r1, #0
 800265a:	4638      	mov	r0, r7
 800265c:	f004 ff66 	bl	800752c <memset>
	int bitLen = 0;
 8002660:	2300      	movs	r3, #0
 8002662:	9305      	str	r3, [sp, #20]
	for (size_t i = 0; i < len; i++) {
 8002664:	4699      	mov	r9, r3
 8002666:	9503      	str	r5, [sp, #12]
 8002668:	46a2      	mov	sl, r4
 800266a:	e014      	b.n	8002696 <qrcodegen_encodeSegmentsAdvanced+0x112>
	memset(qrcode, 0, (size_t)qrcodegen_BUFFER_LEN_FOR_VERSION(version) * sizeof(qrcode[0]));
 800266c:	3307      	adds	r3, #7
 800266e:	e7f1      	b.n	8002654 <qrcodegen_encodeSegmentsAdvanced+0xd0>
			int bit = (seg->data[j >> 3] >> (7 - (j & 7))) & 1;
 8002670:	68aa      	ldr	r2, [r5, #8]
 8002672:	10e3      	asrs	r3, r4, #3
 8002674:	5cd0      	ldrb	r0, [r2, r3]
 8002676:	43e3      	mvns	r3, r4
 8002678:	f003 0307 	and.w	r3, r3, #7
 800267c:	4118      	asrs	r0, r3
			appendBitsToBuffer((unsigned int)bit, 1, qrcode, &bitLen);
 800267e:	ab05      	add	r3, sp, #20
 8002680:	463a      	mov	r2, r7
 8002682:	2101      	movs	r1, #1
 8002684:	4008      	ands	r0, r1
 8002686:	f7ff f889 	bl	800179c <appendBitsToBuffer>
		for (int j = 0; j < seg->bitLength; j++) {
 800268a:	3401      	adds	r4, #1
 800268c:	68eb      	ldr	r3, [r5, #12]
 800268e:	42a3      	cmp	r3, r4
 8002690:	dcee      	bgt.n	8002670 <qrcodegen_encodeSegmentsAdvanced+0xec>
	for (size_t i = 0; i < len; i++) {
 8002692:	f109 0901 	add.w	r9, r9, #1
 8002696:	45d9      	cmp	r9, fp
 8002698:	d218      	bcs.n	80026cc <qrcodegen_encodeSegmentsAdvanced+0x148>
		const struct qrcodegen_Segment *seg = &segs[i];
 800269a:	ea4f 1609 	mov.w	r6, r9, lsl #4
 800269e:	eb08 1509 	add.w	r5, r8, r9, lsl #4
		appendBitsToBuffer((unsigned int)seg->mode, 4, qrcode, &bitLen);
 80026a2:	ab05      	add	r3, sp, #20
 80026a4:	463a      	mov	r2, r7
 80026a6:	2104      	movs	r1, #4
 80026a8:	f818 0006 	ldrb.w	r0, [r8, r6]
 80026ac:	f7ff f876 	bl	800179c <appendBitsToBuffer>
		appendBitsToBuffer((unsigned int)seg->numChars, numCharCountBits(seg->mode, version), qrcode, &bitLen);
 80026b0:	686c      	ldr	r4, [r5, #4]
 80026b2:	4651      	mov	r1, sl
 80026b4:	f818 0006 	ldrb.w	r0, [r8, r6]
 80026b8:	f7fe ffc0 	bl	800163c <numCharCountBits>
 80026bc:	4601      	mov	r1, r0
 80026be:	ab05      	add	r3, sp, #20
 80026c0:	463a      	mov	r2, r7
 80026c2:	4620      	mov	r0, r4
 80026c4:	f7ff f86a 	bl	800179c <appendBitsToBuffer>
		for (int j = 0; j < seg->bitLength; j++) {
 80026c8:	2400      	movs	r4, #0
 80026ca:	e7df      	b.n	800268c <qrcodegen_encodeSegmentsAdvanced+0x108>
	assert(bitLen == dataUsedBits);
 80026cc:	9d03      	ldr	r5, [sp, #12]
 80026ce:	4654      	mov	r4, sl
 80026d0:	f8dd 8014 	ldr.w	r8, [sp, #20]
 80026d4:	9b02      	ldr	r3, [sp, #8]
 80026d6:	4598      	cmp	r8, r3
 80026d8:	d12e      	bne.n	8002738 <qrcodegen_encodeSegmentsAdvanced+0x1b4>
	int dataCapacityBits = getNumDataCodewords(version, ecl) * 8;
 80026da:	4629      	mov	r1, r5
 80026dc:	4650      	mov	r0, sl
 80026de:	f7ff f8c9 	bl	8001874 <getNumDataCodewords>
 80026e2:	ea4f 09c0 	mov.w	r9, r0, lsl #3
	assert(bitLen <= dataCapacityBits);
 80026e6:	ebb8 0fc0 	cmp.w	r8, r0, lsl #3
 80026ea:	dc2b      	bgt.n	8002744 <qrcodegen_encodeSegmentsAdvanced+0x1c0>
	int terminatorBits = dataCapacityBits - bitLen;
 80026ec:	eba9 0108 	sub.w	r1, r9, r8
	if (terminatorBits > 4)
 80026f0:	2904      	cmp	r1, #4
 80026f2:	dd00      	ble.n	80026f6 <qrcodegen_encodeSegmentsAdvanced+0x172>
		terminatorBits = 4;
 80026f4:	2104      	movs	r1, #4
	appendBitsToBuffer(0, terminatorBits, qrcode, &bitLen);
 80026f6:	ab05      	add	r3, sp, #20
 80026f8:	463a      	mov	r2, r7
 80026fa:	2000      	movs	r0, #0
 80026fc:	f7ff f84e 	bl	800179c <appendBitsToBuffer>
	appendBitsToBuffer(0, (8 - bitLen % 8) % 8, qrcode, &bitLen);
 8002700:	9b05      	ldr	r3, [sp, #20]
 8002702:	425a      	negs	r2, r3
 8002704:	f003 0307 	and.w	r3, r3, #7
 8002708:	f002 0207 	and.w	r2, r2, #7
 800270c:	bf58      	it	pl
 800270e:	4253      	negpl	r3, r2
 8002710:	f1c3 0308 	rsb	r3, r3, #8
 8002714:	4258      	negs	r0, r3
 8002716:	f003 0107 	and.w	r1, r3, #7
 800271a:	f000 0007 	and.w	r0, r0, #7
 800271e:	ab05      	add	r3, sp, #20
 8002720:	463a      	mov	r2, r7
 8002722:	bf58      	it	pl
 8002724:	4241      	negpl	r1, r0
 8002726:	2000      	movs	r0, #0
 8002728:	f7ff f838 	bl	800179c <appendBitsToBuffer>
	assert(bitLen % 8 == 0);
 800272c:	9b05      	ldr	r3, [sp, #20]
 800272e:	f013 0807 	ands.w	r8, r3, #7
 8002732:	d10d      	bne.n	8002750 <qrcodegen_encodeSegmentsAdvanced+0x1cc>
	for (uint8_t padByte = 0xEC; bitLen < dataCapacityBits; padByte ^= 0xEC ^ 0x11)
 8002734:	26ec      	movs	r6, #236	@ 0xec
 8002736:	e019      	b.n	800276c <qrcodegen_encodeSegmentsAdvanced+0x1e8>
	assert(bitLen == dataUsedBits);
 8002738:	4b41      	ldr	r3, [pc, #260]	@ (8002840 <qrcodegen_encodeSegmentsAdvanced+0x2bc>)
 800273a:	4a3d      	ldr	r2, [pc, #244]	@ (8002830 <qrcodegen_encodeSegmentsAdvanced+0x2ac>)
 800273c:	21f5      	movs	r1, #245	@ 0xf5
 800273e:	483d      	ldr	r0, [pc, #244]	@ (8002834 <qrcodegen_encodeSegmentsAdvanced+0x2b0>)
 8002740:	f004 fc2c 	bl	8006f9c <__assert_func>
	assert(bitLen <= dataCapacityBits);
 8002744:	4b3f      	ldr	r3, [pc, #252]	@ (8002844 <qrcodegen_encodeSegmentsAdvanced+0x2c0>)
 8002746:	4a3a      	ldr	r2, [pc, #232]	@ (8002830 <qrcodegen_encodeSegmentsAdvanced+0x2ac>)
 8002748:	21f9      	movs	r1, #249	@ 0xf9
 800274a:	483a      	ldr	r0, [pc, #232]	@ (8002834 <qrcodegen_encodeSegmentsAdvanced+0x2b0>)
 800274c:	f004 fc26 	bl	8006f9c <__assert_func>
	assert(bitLen % 8 == 0);
 8002750:	4b3d      	ldr	r3, [pc, #244]	@ (8002848 <qrcodegen_encodeSegmentsAdvanced+0x2c4>)
 8002752:	4a37      	ldr	r2, [pc, #220]	@ (8002830 <qrcodegen_encodeSegmentsAdvanced+0x2ac>)
 8002754:	21ff      	movs	r1, #255	@ 0xff
 8002756:	4837      	ldr	r0, [pc, #220]	@ (8002834 <qrcodegen_encodeSegmentsAdvanced+0x2b0>)
 8002758:	f004 fc20 	bl	8006f9c <__assert_func>
		appendBitsToBuffer(padByte, 8, qrcode, &bitLen);
 800275c:	ab05      	add	r3, sp, #20
 800275e:	463a      	mov	r2, r7
 8002760:	2108      	movs	r1, #8
 8002762:	4630      	mov	r0, r6
 8002764:	f7ff f81a 	bl	800179c <appendBitsToBuffer>
	for (uint8_t padByte = 0xEC; bitLen < dataCapacityBits; padByte ^= 0xEC ^ 0x11)
 8002768:	f086 06fd 	eor.w	r6, r6, #253	@ 0xfd
 800276c:	9b05      	ldr	r3, [sp, #20]
 800276e:	454b      	cmp	r3, r9
 8002770:	dbf4      	blt.n	800275c <qrcodegen_encodeSegmentsAdvanced+0x1d8>
	addEccAndInterleave(qrcode, version, ecl, tempBuffer);
 8002772:	9b13      	ldr	r3, [sp, #76]	@ 0x4c
 8002774:	462a      	mov	r2, r5
 8002776:	4621      	mov	r1, r4
 8002778:	4638      	mov	r0, r7
 800277a:	f7ff fa79 	bl	8001c70 <addEccAndInterleave>
	initializeFunctionModules(version, qrcode);
 800277e:	4639      	mov	r1, r7
 8002780:	4620      	mov	r0, r4
 8002782:	f7ff f9b1 	bl	8001ae8 <initializeFunctionModules>
	drawCodewords(tempBuffer, getNumRawDataModules(version) / 8, qrcode);
 8002786:	4620      	mov	r0, r4
 8002788:	f7ff f834 	bl	80017f4 <getNumRawDataModules>
 800278c:	1e01      	subs	r1, r0, #0
 800278e:	db21      	blt.n	80027d4 <qrcodegen_encodeSegmentsAdvanced+0x250>
 8002790:	463a      	mov	r2, r7
 8002792:	10c9      	asrs	r1, r1, #3
 8002794:	9813      	ldr	r0, [sp, #76]	@ 0x4c
 8002796:	f7ff fb29 	bl	8001dec <drawCodewords>
	drawLightFunctionModules(qrcode, version);
 800279a:	4621      	mov	r1, r4
 800279c:	4638      	mov	r0, r7
 800279e:	f7ff fb8b 	bl	8001eb8 <drawLightFunctionModules>
	initializeFunctionModules(version, tempBuffer);
 80027a2:	9913      	ldr	r1, [sp, #76]	@ 0x4c
 80027a4:	4620      	mov	r0, r4
 80027a6:	f7ff f99f 	bl	8001ae8 <initializeFunctionModules>
	if (mask == qrcodegen_Mask_AUTO) {  // Automatically choose best mask
 80027aa:	9b01      	ldr	r3, [sp, #4]
 80027ac:	f1b3 3fff 	cmp.w	r3, #4294967295
 80027b0:	d030      	beq.n	8002814 <qrcodegen_encodeSegmentsAdvanced+0x290>
	assert(0 <= (int)mask && (int)mask <= 7);
 80027b2:	f89d 3004 	ldrb.w	r3, [sp, #4]
 80027b6:	2b07      	cmp	r3, #7
 80027b8:	d831      	bhi.n	800281e <qrcodegen_encodeSegmentsAdvanced+0x29a>
	applyMask(tempBuffer, qrcode, mask);  // Apply the final choice of mask
 80027ba:	9c01      	ldr	r4, [sp, #4]
 80027bc:	4622      	mov	r2, r4
 80027be:	4639      	mov	r1, r7
 80027c0:	9813      	ldr	r0, [sp, #76]	@ 0x4c
 80027c2:	f7ff fd6d 	bl	80022a0 <applyMask>
	drawFormatBits(ecl, mask, qrcode);  // Overwrite old format bits
 80027c6:	463a      	mov	r2, r7
 80027c8:	4621      	mov	r1, r4
 80027ca:	4628      	mov	r0, r5
 80027cc:	f7ff fe34 	bl	8002438 <drawFormatBits>
	return true;
 80027d0:	2001      	movs	r0, #1
 80027d2:	e723      	b.n	800261c <qrcodegen_encodeSegmentsAdvanced+0x98>
	drawCodewords(tempBuffer, getNumRawDataModules(version) / 8, qrcode);
 80027d4:	3107      	adds	r1, #7
 80027d6:	e7db      	b.n	8002790 <qrcodegen_encodeSegmentsAdvanced+0x20c>
			applyMask(tempBuffer, qrcode, msk);  // Undoes the mask due to XOR
 80027d8:	4622      	mov	r2, r4
 80027da:	4639      	mov	r1, r7
 80027dc:	4648      	mov	r0, r9
 80027de:	f7ff fd5f 	bl	80022a0 <applyMask>
		for (int i = 0; i < 8; i++) {
 80027e2:	f108 0801 	add.w	r8, r8, #1
 80027e6:	f1b8 0f07 	cmp.w	r8, #7
 80027ea:	dce2      	bgt.n	80027b2 <qrcodegen_encodeSegmentsAdvanced+0x22e>
			enum qrcodegen_Mask msk = (enum qrcodegen_Mask)i;
 80027ec:	fa4f f488 	sxtb.w	r4, r8
			applyMask(tempBuffer, qrcode, msk);
 80027f0:	4622      	mov	r2, r4
 80027f2:	4639      	mov	r1, r7
 80027f4:	4648      	mov	r0, r9
 80027f6:	f7ff fd53 	bl	80022a0 <applyMask>
			drawFormatBits(ecl, msk, qrcode);
 80027fa:	463a      	mov	r2, r7
 80027fc:	4621      	mov	r1, r4
 80027fe:	4628      	mov	r0, r5
 8002800:	f7ff fe1a 	bl	8002438 <drawFormatBits>
			long penalty = getPenaltyScore(qrcode);
 8002804:	4638      	mov	r0, r7
 8002806:	f7ff fc31 	bl	800206c <getPenaltyScore>
			if (penalty < minPenalty) {
 800280a:	4286      	cmp	r6, r0
 800280c:	dde4      	ble.n	80027d8 <qrcodegen_encodeSegmentsAdvanced+0x254>
				minPenalty = penalty;
 800280e:	4606      	mov	r6, r0
				mask = msk;
 8002810:	9401      	str	r4, [sp, #4]
 8002812:	e7e1      	b.n	80027d8 <qrcodegen_encodeSegmentsAdvanced+0x254>
		long minPenalty = LONG_MAX;
 8002814:	f06f 4600 	mvn.w	r6, #2147483648	@ 0x80000000
 8002818:	f8dd 904c 	ldr.w	r9, [sp, #76]	@ 0x4c
 800281c:	e7e3      	b.n	80027e6 <qrcodegen_encodeSegmentsAdvanced+0x262>
	assert(0 <= (int)mask && (int)mask <= 7);
 800281e:	4b0b      	ldr	r3, [pc, #44]	@ (800284c <qrcodegen_encodeSegmentsAdvanced+0x2c8>)
 8002820:	4a03      	ldr	r2, [pc, #12]	@ (8002830 <qrcodegen_encodeSegmentsAdvanced+0x2ac>)
 8002822:	f240 111b 	movw	r1, #283	@ 0x11b
 8002826:	4803      	ldr	r0, [pc, #12]	@ (8002834 <qrcodegen_encodeSegmentsAdvanced+0x2b0>)
 8002828:	f004 fbb8 	bl	8006f9c <__assert_func>
 800282c:	08009f8c 	.word	0x08009f8c
 8002830:	0800a344 	.word	0x0800a344
 8002834:	08009b50 	.word	0x08009b50
 8002838:	08009bbc 	.word	0x08009bbc
 800283c:	08009f24 	.word	0x08009f24
 8002840:	08009fd0 	.word	0x08009fd0
 8002844:	08009fe8 	.word	0x08009fe8
 8002848:	0800a004 	.word	0x0800a004
 800284c:	08009ef0 	.word	0x08009ef0

08002850 <qrcodegen_getModule>:
bool qrcodegen_getModule(const uint8_t qrcode[], int x, int y) {
 8002850:	b508      	push	{r3, lr}
	assert(qrcode != NULL);
 8002852:	b158      	cbz	r0, 800286c <qrcodegen_getModule+0x1c>
 8002854:	4603      	mov	r3, r0
	int qrsize = qrcode[0];
 8002856:	7800      	ldrb	r0, [r0, #0]
	return (0 <= x && x < qrsize && 0 <= y && y < qrsize) && getModuleBounded(qrcode, x, y);
 8002858:	2900      	cmp	r1, #0
 800285a:	db14      	blt.n	8002886 <qrcodegen_getModule+0x36>
 800285c:	4288      	cmp	r0, r1
 800285e:	dd14      	ble.n	800288a <qrcodegen_getModule+0x3a>
 8002860:	2a00      	cmp	r2, #0
 8002862:	db14      	blt.n	800288e <qrcodegen_getModule+0x3e>
 8002864:	4290      	cmp	r0, r2
 8002866:	dc08      	bgt.n	800287a <qrcodegen_getModule+0x2a>
 8002868:	2000      	movs	r0, #0
 800286a:	e00d      	b.n	8002888 <qrcodegen_getModule+0x38>
	assert(qrcode != NULL);
 800286c:	4b0a      	ldr	r3, [pc, #40]	@ (8002898 <qrcodegen_getModule+0x48>)
 800286e:	4a0b      	ldr	r2, [pc, #44]	@ (800289c <qrcodegen_getModule+0x4c>)
 8002870:	f240 21fd 	movw	r1, #765	@ 0x2fd
 8002874:	480a      	ldr	r0, [pc, #40]	@ (80028a0 <qrcodegen_getModule+0x50>)
 8002876:	f004 fb91 	bl	8006f9c <__assert_func>
	return (0 <= x && x < qrsize && 0 <= y && y < qrsize) && getModuleBounded(qrcode, x, y);
 800287a:	4618      	mov	r0, r3
 800287c:	f7ff f826 	bl	80018cc <getModuleBounded>
 8002880:	b138      	cbz	r0, 8002892 <qrcodegen_getModule+0x42>
 8002882:	2001      	movs	r0, #1
 8002884:	e000      	b.n	8002888 <qrcodegen_getModule+0x38>
 8002886:	2000      	movs	r0, #0
}
 8002888:	bd08      	pop	{r3, pc}
	return (0 <= x && x < qrsize && 0 <= y && y < qrsize) && getModuleBounded(qrcode, x, y);
 800288a:	2000      	movs	r0, #0
 800288c:	e7fc      	b.n	8002888 <qrcodegen_getModule+0x38>
 800288e:	2000      	movs	r0, #0
 8002890:	e7fa      	b.n	8002888 <qrcodegen_getModule+0x38>
 8002892:	2000      	movs	r0, #0
 8002894:	e7f8      	b.n	8002888 <qrcodegen_getModule+0x38>
 8002896:	bf00      	nop
 8002898:	08009e28 	.word	0x08009e28
 800289c:	0800a190 	.word	0x0800a190
 80028a0:	08009b50 	.word	0x08009b50

080028a4 <qrcodegen_isNumeric>:
bool qrcodegen_isNumeric(const char *text) {
 80028a4:	b508      	push	{r3, lr}
	assert(text != NULL);
 80028a6:	4602      	mov	r2, r0
 80028a8:	b138      	cbz	r0, 80028ba <qrcodegen_isNumeric+0x16>
	for (; *text != '\0'; text++) {
 80028aa:	7813      	ldrb	r3, [r2, #0]
 80028ac:	b163      	cbz	r3, 80028c8 <qrcodegen_isNumeric+0x24>
		if (*text < '0' || *text > '9')
 80028ae:	3b30      	subs	r3, #48	@ 0x30
 80028b0:	b2db      	uxtb	r3, r3
 80028b2:	2b09      	cmp	r3, #9
 80028b4:	d80a      	bhi.n	80028cc <qrcodegen_isNumeric+0x28>
	for (; *text != '\0'; text++) {
 80028b6:	3201      	adds	r2, #1
 80028b8:	e7f7      	b.n	80028aa <qrcodegen_isNumeric+0x6>
	assert(text != NULL);
 80028ba:	4b05      	ldr	r3, [pc, #20]	@ (80028d0 <qrcodegen_isNumeric+0x2c>)
 80028bc:	4a05      	ldr	r2, [pc, #20]	@ (80028d4 <qrcodegen_isNumeric+0x30>)
 80028be:	f240 312d 	movw	r1, #813	@ 0x32d
 80028c2:	4805      	ldr	r0, [pc, #20]	@ (80028d8 <qrcodegen_isNumeric+0x34>)
 80028c4:	f004 fb6a 	bl	8006f9c <__assert_func>
	return true;
 80028c8:	2001      	movs	r0, #1
}
 80028ca:	bd08      	pop	{r3, pc}
			return false;
 80028cc:	2000      	movs	r0, #0
 80028ce:	e7fc      	b.n	80028ca <qrcodegen_isNumeric+0x26>
 80028d0:	0800a014 	.word	0x0800a014
 80028d4:	0800a17c 	.word	0x0800a17c
 80028d8:	08009b50 	.word	0x08009b50

080028dc <qrcodegen_isAlphanumeric>:
bool qrcodegen_isAlphanumeric(const char *text) {
 80028dc:	b510      	push	{r4, lr}
	assert(text != NULL);
 80028de:	4604      	mov	r4, r0
 80028e0:	b138      	cbz	r0, 80028f2 <qrcodegen_isAlphanumeric+0x16>
	for (; *text != '\0'; text++) {
 80028e2:	7821      	ldrb	r1, [r4, #0]
 80028e4:	b161      	cbz	r1, 8002900 <qrcodegen_isAlphanumeric+0x24>
		if (strchr(ALPHANUMERIC_CHARSET, *text) == NULL)
 80028e6:	4808      	ldr	r0, [pc, #32]	@ (8002908 <qrcodegen_isAlphanumeric+0x2c>)
 80028e8:	f004 fe28 	bl	800753c <strchr>
 80028ec:	b150      	cbz	r0, 8002904 <qrcodegen_isAlphanumeric+0x28>
	for (; *text != '\0'; text++) {
 80028ee:	3401      	adds	r4, #1
 80028f0:	e7f7      	b.n	80028e2 <qrcodegen_isAlphanumeric+0x6>
	assert(text != NULL);
 80028f2:	4b06      	ldr	r3, [pc, #24]	@ (800290c <qrcodegen_isAlphanumeric+0x30>)
 80028f4:	4a06      	ldr	r2, [pc, #24]	@ (8002910 <qrcodegen_isAlphanumeric+0x34>)
 80028f6:	f44f 714e 	mov.w	r1, #824	@ 0x338
 80028fa:	4806      	ldr	r0, [pc, #24]	@ (8002914 <qrcodegen_isAlphanumeric+0x38>)
 80028fc:	f004 fb4e 	bl	8006f9c <__assert_func>
	return true;
 8002900:	2001      	movs	r0, #1
}
 8002902:	bd10      	pop	{r4, pc}
			return false;
 8002904:	2000      	movs	r0, #0
 8002906:	e7fc      	b.n	8002902 <qrcodegen_isAlphanumeric+0x26>
 8002908:	0800a024 	.word	0x0800a024
 800290c:	0800a014 	.word	0x0800a014
 8002910:	0800a160 	.word	0x0800a160
 8002914:	08009b50 	.word	0x08009b50

08002918 <qrcodegen_calcSegmentBufferSize>:
size_t qrcodegen_calcSegmentBufferSize(enum qrcodegen_Mode mode, size_t numChars) {
 8002918:	b508      	push	{r3, lr}
	int temp = calcSegmentBitLength(mode, numChars);
 800291a:	f7fe fe41 	bl	80015a0 <calcSegmentBitLength>
	if (temp == LENGTH_OVERFLOW)
 800291e:	f1b0 3fff 	cmp.w	r0, #4294967295
 8002922:	d00c      	beq.n	800293e <qrcodegen_calcSegmentBufferSize+0x26>
	assert(0 <= temp && temp <= INT16_MAX);
 8002924:	f5b0 4f00 	cmp.w	r0, #32768	@ 0x8000
 8002928:	d202      	bcs.n	8002930 <qrcodegen_calcSegmentBufferSize+0x18>
	return ((size_t)temp + 7) / 8;
 800292a:	3007      	adds	r0, #7
 800292c:	08c0      	lsrs	r0, r0, #3
}
 800292e:	bd08      	pop	{r3, pc}
	assert(0 <= temp && temp <= INT16_MAX);
 8002930:	4b04      	ldr	r3, [pc, #16]	@ (8002944 <qrcodegen_calcSegmentBufferSize+0x2c>)
 8002932:	4a05      	ldr	r2, [pc, #20]	@ (8002948 <qrcodegen_calcSegmentBufferSize+0x30>)
 8002934:	f240 3146 	movw	r1, #838	@ 0x346
 8002938:	4804      	ldr	r0, [pc, #16]	@ (800294c <qrcodegen_calcSegmentBufferSize+0x34>)
 800293a:	f004 fb2f 	bl	8006f9c <__assert_func>
		return SIZE_MAX;
 800293e:	f04f 30ff 	mov.w	r0, #4294967295
 8002942:	e7f4      	b.n	800292e <qrcodegen_calcSegmentBufferSize+0x16>
 8002944:	0800a054 	.word	0x0800a054
 8002948:	0800a140 	.word	0x0800a140
 800294c:	08009b50 	.word	0x08009b50

08002950 <qrcodegen_makeNumeric>:
struct qrcodegen_Segment qrcodegen_makeNumeric(const char *digits, uint8_t buf[]) {
 8002950:	e92d 41f0 	stmdb	sp!, {r4, r5, r6, r7, r8, lr}
 8002954:	b084      	sub	sp, #16
	assert(digits != NULL);
 8002956:	b1c1      	cbz	r1, 800298a <qrcodegen_makeNumeric+0x3a>
 8002958:	4606      	mov	r6, r0
 800295a:	4615      	mov	r5, r2
 800295c:	460c      	mov	r4, r1
	size_t len = strlen(digits);
 800295e:	4608      	mov	r0, r1
 8002960:	f7fd fbf6 	bl	8000150 <strlen>
 8002964:	4680      	mov	r8, r0
	result.mode = qrcodegen_Mode_NUMERIC;
 8002966:	2001      	movs	r0, #1
 8002968:	f88d 0000 	strb.w	r0, [sp]
	int bitLen = calcSegmentBitLength(result.mode, len);
 800296c:	4641      	mov	r1, r8
 800296e:	f7fe fe17 	bl	80015a0 <calcSegmentBitLength>
 8002972:	4607      	mov	r7, r0
	assert(bitLen != LENGTH_OVERFLOW);
 8002974:	f1b0 3fff 	cmp.w	r0, #4294967295
 8002978:	d00e      	beq.n	8002998 <qrcodegen_makeNumeric+0x48>
	result.numChars = (int)len;
 800297a:	f8cd 8004 	str.w	r8, [sp, #4]
	if (bitLen > 0)
 800297e:	2800      	cmp	r0, #0
 8002980:	dc11      	bgt.n	80029a6 <qrcodegen_makeNumeric+0x56>
	result.bitLength = 0;
 8002982:	2000      	movs	r0, #0
 8002984:	9003      	str	r0, [sp, #12]
	int accumCount = 0;
 8002986:	4601      	mov	r1, r0
	for (; *digits != '\0'; digits++) {
 8002988:	e01c      	b.n	80029c4 <qrcodegen_makeNumeric+0x74>
	assert(digits != NULL);
 800298a:	4b29      	ldr	r3, [pc, #164]	@ (8002a30 <qrcodegen_makeNumeric+0xe0>)
 800298c:	4a29      	ldr	r2, [pc, #164]	@ (8002a34 <qrcodegen_makeNumeric+0xe4>)
 800298e:	f240 317e 	movw	r1, #894	@ 0x37e
 8002992:	4829      	ldr	r0, [pc, #164]	@ (8002a38 <qrcodegen_makeNumeric+0xe8>)
 8002994:	f004 fb02 	bl	8006f9c <__assert_func>
	assert(bitLen != LENGTH_OVERFLOW);
 8002998:	4b28      	ldr	r3, [pc, #160]	@ (8002a3c <qrcodegen_makeNumeric+0xec>)
 800299a:	4a26      	ldr	r2, [pc, #152]	@ (8002a34 <qrcodegen_makeNumeric+0xe4>)
 800299c:	f240 3183 	movw	r1, #899	@ 0x383
 80029a0:	4825      	ldr	r0, [pc, #148]	@ (8002a38 <qrcodegen_makeNumeric+0xe8>)
 80029a2:	f004 fafb 	bl	8006f9c <__assert_func>
		memset(buf, 0, ((size_t)bitLen + 7) / 8 * sizeof(buf[0]));
 80029a6:	1dc2      	adds	r2, r0, #7
 80029a8:	08d2      	lsrs	r2, r2, #3
 80029aa:	2100      	movs	r1, #0
 80029ac:	4628      	mov	r0, r5
 80029ae:	f004 fdbd 	bl	800752c <memset>
 80029b2:	e7e6      	b.n	8002982 <qrcodegen_makeNumeric+0x32>
		assert('0' <= c && c <= '9');
 80029b4:	4b22      	ldr	r3, [pc, #136]	@ (8002a40 <qrcodegen_makeNumeric+0xf0>)
 80029b6:	4a1f      	ldr	r2, [pc, #124]	@ (8002a34 <qrcodegen_makeNumeric+0xe4>)
 80029b8:	f240 318d 	movw	r1, #909	@ 0x38d
 80029bc:	481e      	ldr	r0, [pc, #120]	@ (8002a38 <qrcodegen_makeNumeric+0xe8>)
 80029be:	f004 faed 	bl	8006f9c <__assert_func>
	for (; *digits != '\0'; digits++) {
 80029c2:	3401      	adds	r4, #1
 80029c4:	7823      	ldrb	r3, [r4, #0]
 80029c6:	b1ab      	cbz	r3, 80029f4 <qrcodegen_makeNumeric+0xa4>
		assert('0' <= c && c <= '9');
 80029c8:	f1a3 0230 	sub.w	r2, r3, #48	@ 0x30
 80029cc:	b2d2      	uxtb	r2, r2
 80029ce:	2a09      	cmp	r2, #9
 80029d0:	d8f0      	bhi.n	80029b4 <qrcodegen_makeNumeric+0x64>
		accumData = accumData * 10 + (unsigned int)(c - '0');
 80029d2:	eb00 0080 	add.w	r0, r0, r0, lsl #2
 80029d6:	eb03 0340 	add.w	r3, r3, r0, lsl #1
 80029da:	f1a3 0030 	sub.w	r0, r3, #48	@ 0x30
		accumCount++;
 80029de:	3101      	adds	r1, #1
		if (accumCount == 3) {
 80029e0:	2903      	cmp	r1, #3
 80029e2:	d1ee      	bne.n	80029c2 <qrcodegen_makeNumeric+0x72>
			appendBitsToBuffer(accumData, 10, buf, &result.bitLength);
 80029e4:	ab03      	add	r3, sp, #12
 80029e6:	462a      	mov	r2, r5
 80029e8:	210a      	movs	r1, #10
 80029ea:	f7fe fed7 	bl	800179c <appendBitsToBuffer>
			accumCount = 0;
 80029ee:	2000      	movs	r0, #0
			accumData = 0;
 80029f0:	4601      	mov	r1, r0
 80029f2:	e7e6      	b.n	80029c2 <qrcodegen_makeNumeric+0x72>
	if (accumCount > 0)  // 1 or 2 digits remaining
 80029f4:	2900      	cmp	r1, #0
 80029f6:	dc0c      	bgt.n	8002a12 <qrcodegen_makeNumeric+0xc2>
	assert(result.bitLength == bitLen);
 80029f8:	9b03      	ldr	r3, [sp, #12]
 80029fa:	42bb      	cmp	r3, r7
 80029fc:	d111      	bne.n	8002a22 <qrcodegen_makeNumeric+0xd2>
	result.data = buf;
 80029fe:	9502      	str	r5, [sp, #8]
	return result;
 8002a00:	ab04      	add	r3, sp, #16
 8002a02:	e913 000f 	ldmdb	r3, {r0, r1, r2, r3}
 8002a06:	e886 000f 	stmia.w	r6, {r0, r1, r2, r3}
}
 8002a0a:	4630      	mov	r0, r6
 8002a0c:	b004      	add	sp, #16
 8002a0e:	e8bd 81f0 	ldmia.w	sp!, {r4, r5, r6, r7, r8, pc}
		appendBitsToBuffer(accumData, accumCount * 3 + 1, buf, &result.bitLength);
 8002a12:	eb01 0141 	add.w	r1, r1, r1, lsl #1
 8002a16:	ab03      	add	r3, sp, #12
 8002a18:	462a      	mov	r2, r5
 8002a1a:	3101      	adds	r1, #1
 8002a1c:	f7fe febe 	bl	800179c <appendBitsToBuffer>
 8002a20:	e7ea      	b.n	80029f8 <qrcodegen_makeNumeric+0xa8>
	assert(result.bitLength == bitLen);
 8002a22:	4b08      	ldr	r3, [pc, #32]	@ (8002a44 <qrcodegen_makeNumeric+0xf4>)
 8002a24:	4a03      	ldr	r2, [pc, #12]	@ (8002a34 <qrcodegen_makeNumeric+0xe4>)
 8002a26:	f44f 7166 	mov.w	r1, #920	@ 0x398
 8002a2a:	4803      	ldr	r0, [pc, #12]	@ (8002a38 <qrcodegen_makeNumeric+0xe8>)
 8002a2c:	f004 fab6 	bl	8006f9c <__assert_func>
 8002a30:	0800a074 	.word	0x0800a074
 8002a34:	0800a128 	.word	0x0800a128
 8002a38:	08009b50 	.word	0x08009b50
 8002a3c:	0800a084 	.word	0x0800a084
 8002a40:	0800a0a0 	.word	0x0800a0a0
 8002a44:	0800a0b8 	.word	0x0800a0b8

08002a48 <qrcodegen_makeAlphanumeric>:
struct qrcodegen_Segment qrcodegen_makeAlphanumeric(const char *text, uint8_t buf[]) {
 8002a48:	e92d 43f0 	stmdb	sp!, {r4, r5, r6, r7, r8, r9, lr}
 8002a4c:	b085      	sub	sp, #20
	assert(text != NULL);
 8002a4e:	b1b9      	cbz	r1, 8002a80 <qrcodegen_makeAlphanumeric+0x38>
 8002a50:	4680      	mov	r8, r0
 8002a52:	4617      	mov	r7, r2
 8002a54:	460e      	mov	r6, r1
	size_t len = strlen(text);
 8002a56:	4608      	mov	r0, r1
 8002a58:	f7fd fb7a 	bl	8000150 <strlen>
 8002a5c:	4604      	mov	r4, r0
	result.mode = qrcodegen_Mode_ALPHANUMERIC;
 8002a5e:	2002      	movs	r0, #2
 8002a60:	f88d 0000 	strb.w	r0, [sp]
	int bitLen = calcSegmentBitLength(result.mode, len);
 8002a64:	4621      	mov	r1, r4
 8002a66:	f7fe fd9b 	bl	80015a0 <calcSegmentBitLength>
 8002a6a:	4681      	mov	r9, r0
	assert(bitLen != LENGTH_OVERFLOW);
 8002a6c:	f1b0 3fff 	cmp.w	r0, #4294967295
 8002a70:	d00d      	beq.n	8002a8e <qrcodegen_makeAlphanumeric+0x46>
	result.numChars = (int)len;
 8002a72:	9401      	str	r4, [sp, #4]
	if (bitLen > 0)
 8002a74:	2800      	cmp	r0, #0
 8002a76:	dc11      	bgt.n	8002a9c <qrcodegen_makeAlphanumeric+0x54>
	result.bitLength = 0;
 8002a78:	2400      	movs	r4, #0
 8002a7a:	9403      	str	r4, [sp, #12]
	int accumCount = 0;
 8002a7c:	4625      	mov	r5, r4
	for (; *text != '\0'; text++) {
 8002a7e:	e01c      	b.n	8002aba <qrcodegen_makeAlphanumeric+0x72>
	assert(text != NULL);
 8002a80:	4b29      	ldr	r3, [pc, #164]	@ (8002b28 <qrcodegen_makeAlphanumeric+0xe0>)
 8002a82:	4a2a      	ldr	r2, [pc, #168]	@ (8002b2c <qrcodegen_makeAlphanumeric+0xe4>)
 8002a84:	f44f 7168 	mov.w	r1, #928	@ 0x3a0
 8002a88:	4829      	ldr	r0, [pc, #164]	@ (8002b30 <qrcodegen_makeAlphanumeric+0xe8>)
 8002a8a:	f004 fa87 	bl	8006f9c <__assert_func>
	assert(bitLen != LENGTH_OVERFLOW);
 8002a8e:	4b29      	ldr	r3, [pc, #164]	@ (8002b34 <qrcodegen_makeAlphanumeric+0xec>)
 8002a90:	4a26      	ldr	r2, [pc, #152]	@ (8002b2c <qrcodegen_makeAlphanumeric+0xe4>)
 8002a92:	f240 31a5 	movw	r1, #933	@ 0x3a5
 8002a96:	4826      	ldr	r0, [pc, #152]	@ (8002b30 <qrcodegen_makeAlphanumeric+0xe8>)
 8002a98:	f004 fa80 	bl	8006f9c <__assert_func>
		memset(buf, 0, ((size_t)bitLen + 7) / 8 * sizeof(buf[0]));
 8002a9c:	1dc2      	adds	r2, r0, #7
 8002a9e:	08d2      	lsrs	r2, r2, #3
 8002aa0:	2100      	movs	r1, #0
 8002aa2:	4638      	mov	r0, r7
 8002aa4:	f004 fd42 	bl	800752c <memset>
 8002aa8:	e7e6      	b.n	8002a78 <qrcodegen_makeAlphanumeric+0x30>
		assert(temp != NULL);
 8002aaa:	4b23      	ldr	r3, [pc, #140]	@ (8002b38 <qrcodegen_makeAlphanumeric+0xf0>)
 8002aac:	4a1f      	ldr	r2, [pc, #124]	@ (8002b2c <qrcodegen_makeAlphanumeric+0xe4>)
 8002aae:	f240 31af 	movw	r1, #943	@ 0x3af
 8002ab2:	481f      	ldr	r0, [pc, #124]	@ (8002b30 <qrcodegen_makeAlphanumeric+0xe8>)
 8002ab4:	f004 fa72 	bl	8006f9c <__assert_func>
	for (; *text != '\0'; text++) {
 8002ab8:	3601      	adds	r6, #1
 8002aba:	7831      	ldrb	r1, [r6, #0]
 8002abc:	b1b9      	cbz	r1, 8002aee <qrcodegen_makeAlphanumeric+0xa6>
		const char *temp = strchr(ALPHANUMERIC_CHARSET, *text);
 8002abe:	481f      	ldr	r0, [pc, #124]	@ (8002b3c <qrcodegen_makeAlphanumeric+0xf4>)
 8002ac0:	f004 fd3c 	bl	800753c <strchr>
		assert(temp != NULL);
 8002ac4:	2800      	cmp	r0, #0
 8002ac6:	d0f0      	beq.n	8002aaa <qrcodegen_makeAlphanumeric+0x62>
		accumData = accumData * 45 + (unsigned int)(temp - ALPHANUMERIC_CHARSET);
 8002ac8:	eb04 0444 	add.w	r4, r4, r4, lsl #1
 8002acc:	ebc4 1404 	rsb	r4, r4, r4, lsl #4
 8002ad0:	4a1a      	ldr	r2, [pc, #104]	@ (8002b3c <qrcodegen_makeAlphanumeric+0xf4>)
 8002ad2:	1a83      	subs	r3, r0, r2
 8002ad4:	441c      	add	r4, r3
		accumCount++;
 8002ad6:	3501      	adds	r5, #1
		if (accumCount == 2) {
 8002ad8:	2d02      	cmp	r5, #2
 8002ada:	d1ed      	bne.n	8002ab8 <qrcodegen_makeAlphanumeric+0x70>
			appendBitsToBuffer(accumData, 11, buf, &result.bitLength);
 8002adc:	ab03      	add	r3, sp, #12
 8002ade:	463a      	mov	r2, r7
 8002ae0:	210b      	movs	r1, #11
 8002ae2:	4620      	mov	r0, r4
 8002ae4:	f7fe fe5a 	bl	800179c <appendBitsToBuffer>
			accumCount = 0;
 8002ae8:	2400      	movs	r4, #0
			accumData = 0;
 8002aea:	4625      	mov	r5, r4
 8002aec:	e7e4      	b.n	8002ab8 <qrcodegen_makeAlphanumeric+0x70>
	if (accumCount > 0)  // 1 character remaining
 8002aee:	2d00      	cmp	r5, #0
 8002af0:	dc0c      	bgt.n	8002b0c <qrcodegen_makeAlphanumeric+0xc4>
	assert(result.bitLength == bitLen);
 8002af2:	9b03      	ldr	r3, [sp, #12]
 8002af4:	454b      	cmp	r3, r9
 8002af6:	d110      	bne.n	8002b1a <qrcodegen_makeAlphanumeric+0xd2>
	result.data = buf;
 8002af8:	9702      	str	r7, [sp, #8]
	return result;
 8002afa:	ab04      	add	r3, sp, #16
 8002afc:	e913 000f 	ldmdb	r3, {r0, r1, r2, r3}
 8002b00:	e888 000f 	stmia.w	r8, {r0, r1, r2, r3}
}
 8002b04:	4640      	mov	r0, r8
 8002b06:	b005      	add	sp, #20
 8002b08:	e8bd 83f0 	ldmia.w	sp!, {r4, r5, r6, r7, r8, r9, pc}
		appendBitsToBuffer(accumData, 6, buf, &result.bitLength);
 8002b0c:	ab03      	add	r3, sp, #12
 8002b0e:	463a      	mov	r2, r7
 8002b10:	2106      	movs	r1, #6
 8002b12:	4620      	mov	r0, r4
 8002b14:	f7fe fe42 	bl	800179c <appendBitsToBuffer>
 8002b18:	e7eb      	b.n	8002af2 <qrcodegen_makeAlphanumeric+0xaa>
	assert(result.bitLength == bitLen);
 8002b1a:	4b09      	ldr	r3, [pc, #36]	@ (8002b40 <qrcodegen_makeAlphanumeric+0xf8>)
 8002b1c:	4a03      	ldr	r2, [pc, #12]	@ (8002b2c <qrcodegen_makeAlphanumeric+0xe4>)
 8002b1e:	f240 31ba 	movw	r1, #954	@ 0x3ba
 8002b22:	4803      	ldr	r0, [pc, #12]	@ (8002b30 <qrcodegen_makeAlphanumeric+0xe8>)
 8002b24:	f004 fa3a 	bl	8006f9c <__assert_func>
 8002b28:	0800a014 	.word	0x0800a014
 8002b2c:	0800a10c 	.word	0x0800a10c
 8002b30:	08009b50 	.word	0x08009b50
 8002b34:	0800a084 	.word	0x0800a084
 8002b38:	0800a0d4 	.word	0x0800a0d4
 8002b3c:	0800a024 	.word	0x0800a024
 8002b40:	0800a0b8 	.word	0x0800a0b8

08002b44 <qrcodegen_encodeText>:
		enum qrcodegen_Ecc ecl, int minVersion, int maxVersion, enum qrcodegen_Mask mask, bool boostEcl) {
 8002b44:	e92d 4ff0 	stmdb	sp!, {r4, r5, r6, r7, r8, r9, sl, fp, lr}
 8002b48:	b08f      	sub	sp, #60	@ 0x3c
 8002b4a:	4605      	mov	r5, r0
 8002b4c:	460e      	mov	r6, r1
 8002b4e:	4617      	mov	r7, r2
 8002b50:	4698      	mov	r8, r3
 8002b52:	f99d a068 	ldrsb.w	sl, [sp, #104]	@ 0x68
 8002b56:	f89d b06c 	ldrb.w	fp, [sp, #108]	@ 0x6c
	size_t textLen = strlen(text);
 8002b5a:	f7fd faf9 	bl	8000150 <strlen>
	if (textLen == 0)
 8002b5e:	b1b8      	cbz	r0, 8002b90 <qrcodegen_encodeText+0x4c>
 8002b60:	4681      	mov	r9, r0
	size_t bufLen = (size_t)qrcodegen_BUFFER_LEN_FOR_VERSION(maxVersion);
 8002b62:	9b19      	ldr	r3, [sp, #100]	@ 0x64
 8002b64:	009c      	lsls	r4, r3, #2
 8002b66:	3411      	adds	r4, #17
 8002b68:	fb04 f404 	mul.w	r4, r4, r4
 8002b6c:	3407      	adds	r4, #7
 8002b6e:	d420      	bmi.n	8002bb2 <qrcodegen_encodeText+0x6e>
 8002b70:	10e4      	asrs	r4, r4, #3
 8002b72:	3401      	adds	r4, #1
	if (qrcodegen_isNumeric(text)) {
 8002b74:	4628      	mov	r0, r5
 8002b76:	f7ff fe95 	bl	80028a4 <qrcodegen_isNumeric>
 8002b7a:	2800      	cmp	r0, #0
 8002b7c:	d035      	beq.n	8002bea <qrcodegen_encodeText+0xa6>
		if (qrcodegen_calcSegmentBufferSize(qrcodegen_Mode_NUMERIC, textLen) > bufLen)
 8002b7e:	4649      	mov	r1, r9
 8002b80:	2001      	movs	r0, #1
 8002b82:	f7ff fec9 	bl	8002918 <qrcodegen_calcSegmentBufferSize>
 8002b86:	42a0      	cmp	r0, r4
 8002b88:	d915      	bls.n	8002bb6 <qrcodegen_encodeText+0x72>
	qrcode[0] = 0;  // Set size to invalid value for safety
 8002b8a:	2000      	movs	r0, #0
 8002b8c:	7038      	strb	r0, [r7, #0]
	return false;
 8002b8e:	e00d      	b.n	8002bac <qrcodegen_encodeText+0x68>
		return qrcodegen_encodeSegmentsAdvanced(NULL, 0, ecl, minVersion, maxVersion, mask, boostEcl, tempBuffer, qrcode);
 8002b90:	9704      	str	r7, [sp, #16]
 8002b92:	9603      	str	r6, [sp, #12]
 8002b94:	f8cd b008 	str.w	fp, [sp, #8]
 8002b98:	f8cd a004 	str.w	sl, [sp, #4]
 8002b9c:	9b19      	ldr	r3, [sp, #100]	@ 0x64
 8002b9e:	9300      	str	r3, [sp, #0]
 8002ba0:	9b18      	ldr	r3, [sp, #96]	@ 0x60
 8002ba2:	4642      	mov	r2, r8
 8002ba4:	2100      	movs	r1, #0
 8002ba6:	4608      	mov	r0, r1
 8002ba8:	f7ff fcec 	bl	8002584 <qrcodegen_encodeSegmentsAdvanced>
}
 8002bac:	b00f      	add	sp, #60	@ 0x3c
 8002bae:	e8bd 8ff0 	ldmia.w	sp!, {r4, r5, r6, r7, r8, r9, sl, fp, pc}
	size_t bufLen = (size_t)qrcodegen_BUFFER_LEN_FOR_VERSION(maxVersion);
 8002bb2:	3407      	adds	r4, #7
 8002bb4:	e7dc      	b.n	8002b70 <qrcodegen_encodeText+0x2c>
		seg = qrcodegen_makeNumeric(text, tempBuffer);
 8002bb6:	ac06      	add	r4, sp, #24
 8002bb8:	4632      	mov	r2, r6
 8002bba:	4629      	mov	r1, r5
 8002bbc:	4620      	mov	r0, r4
 8002bbe:	f7ff fec7 	bl	8002950 <qrcodegen_makeNumeric>
 8002bc2:	e894 000f 	ldmia.w	r4, {r0, r1, r2, r3}
 8002bc6:	ac0e      	add	r4, sp, #56	@ 0x38
 8002bc8:	e904 000f 	stmdb	r4, {r0, r1, r2, r3}
	return qrcodegen_encodeSegmentsAdvanced(&seg, 1, ecl, minVersion, maxVersion, mask, boostEcl, tempBuffer, qrcode);
 8002bcc:	9704      	str	r7, [sp, #16]
 8002bce:	9603      	str	r6, [sp, #12]
 8002bd0:	f8cd b008 	str.w	fp, [sp, #8]
 8002bd4:	f8cd a004 	str.w	sl, [sp, #4]
 8002bd8:	9b19      	ldr	r3, [sp, #100]	@ 0x64
 8002bda:	9300      	str	r3, [sp, #0]
 8002bdc:	9b18      	ldr	r3, [sp, #96]	@ 0x60
 8002bde:	4642      	mov	r2, r8
 8002be0:	2101      	movs	r1, #1
 8002be2:	a80a      	add	r0, sp, #40	@ 0x28
 8002be4:	f7ff fcce 	bl	8002584 <qrcodegen_encodeSegmentsAdvanced>
 8002be8:	e7e0      	b.n	8002bac <qrcodegen_encodeText+0x68>
	} else if (qrcodegen_isAlphanumeric(text)) {
 8002bea:	4628      	mov	r0, r5
 8002bec:	f7ff fe76 	bl	80028dc <qrcodegen_isAlphanumeric>
 8002bf0:	b918      	cbnz	r0, 8002bfa <qrcodegen_encodeText+0xb6>
		if (textLen > bufLen)
 8002bf2:	45a1      	cmp	r9, r4
 8002bf4:	d8c9      	bhi.n	8002b8a <qrcodegen_encodeText+0x46>
		for (size_t i = 0; i < textLen; i++)
 8002bf6:	2300      	movs	r3, #0
 8002bf8:	e014      	b.n	8002c24 <qrcodegen_encodeText+0xe0>
		if (qrcodegen_calcSegmentBufferSize(qrcodegen_Mode_ALPHANUMERIC, textLen) > bufLen)
 8002bfa:	4649      	mov	r1, r9
 8002bfc:	2002      	movs	r0, #2
 8002bfe:	f7ff fe8b 	bl	8002918 <qrcodegen_calcSegmentBufferSize>
 8002c02:	42a0      	cmp	r0, r4
 8002c04:	d8c1      	bhi.n	8002b8a <qrcodegen_encodeText+0x46>
		seg = qrcodegen_makeAlphanumeric(text, tempBuffer);
 8002c06:	ac06      	add	r4, sp, #24
 8002c08:	4632      	mov	r2, r6
 8002c0a:	4629      	mov	r1, r5
 8002c0c:	4620      	mov	r0, r4
 8002c0e:	f7ff ff1b 	bl	8002a48 <qrcodegen_makeAlphanumeric>
 8002c12:	e894 000f 	ldmia.w	r4, {r0, r1, r2, r3}
 8002c16:	ac0e      	add	r4, sp, #56	@ 0x38
 8002c18:	e904 000f 	stmdb	r4, {r0, r1, r2, r3}
 8002c1c:	e7d6      	b.n	8002bcc <qrcodegen_encodeText+0x88>
			tempBuffer[i] = (uint8_t)text[i];
 8002c1e:	5cea      	ldrb	r2, [r5, r3]
 8002c20:	54f2      	strb	r2, [r6, r3]
		for (size_t i = 0; i < textLen; i++)
 8002c22:	3301      	adds	r3, #1
 8002c24:	454b      	cmp	r3, r9
 8002c26:	d3fa      	bcc.n	8002c1e <qrcodegen_encodeText+0xda>
		seg.mode = qrcodegen_Mode_BYTE;
 8002c28:	2004      	movs	r0, #4
 8002c2a:	f88d 0028 	strb.w	r0, [sp, #40]	@ 0x28
		seg.bitLength = calcSegmentBitLength(seg.mode, textLen);
 8002c2e:	4649      	mov	r1, r9
 8002c30:	f7fe fcb6 	bl	80015a0 <calcSegmentBitLength>
 8002c34:	900d      	str	r0, [sp, #52]	@ 0x34
		if (seg.bitLength == LENGTH_OVERFLOW)
 8002c36:	f1b0 3fff 	cmp.w	r0, #4294967295
 8002c3a:	d0a6      	beq.n	8002b8a <qrcodegen_encodeText+0x46>
		seg.numChars = (int)textLen;
 8002c3c:	f8cd 902c 	str.w	r9, [sp, #44]	@ 0x2c
		seg.data = tempBuffer;
 8002c40:	960c      	str	r6, [sp, #48]	@ 0x30
 8002c42:	e7c3      	b.n	8002bcc <qrcodegen_encodeText+0x88>

08002c44 <ST7789_WriteSmallData>:
 * @brief Write data to ST7789 controller, simplify for 8bit data.
 * data -> data to write
 * @return none
 */
static void ST7789_WriteSmallData(uint8_t data)
{
 8002c44:	b510      	push	{r4, lr}
 8002c46:	b082      	sub	sp, #8
 8002c48:	f88d 0007 	strb.w	r0, [sp, #7]
	ST7789_Select();
 8002c4c:	4c0e      	ldr	r4, [pc, #56]	@ (8002c88 <ST7789_WriteSmallData+0x44>)
 8002c4e:	2200      	movs	r2, #0
 8002c50:	f44f 6180 	mov.w	r1, #1024	@ 0x400
 8002c54:	4620      	mov	r0, r4
 8002c56:	f001 fc32 	bl	80044be <HAL_GPIO_WritePin>
	ST7789_DC_Set();
 8002c5a:	2201      	movs	r2, #1
 8002c5c:	f44f 7180 	mov.w	r1, #256	@ 0x100
 8002c60:	4620      	mov	r0, r4
 8002c62:	f001 fc2c 	bl	80044be <HAL_GPIO_WritePin>
	HAL_SPI_Transmit(&ST7789_SPI_PORT, &data, sizeof(data), HAL_MAX_DELAY);
 8002c66:	f04f 33ff 	mov.w	r3, #4294967295
 8002c6a:	2201      	movs	r2, #1
 8002c6c:	f10d 0107 	add.w	r1, sp, #7
 8002c70:	4806      	ldr	r0, [pc, #24]	@ (8002c8c <ST7789_WriteSmallData+0x48>)
 8002c72:	f002 f8da 	bl	8004e2a <HAL_SPI_Transmit>
	ST7789_UnSelect();
 8002c76:	2201      	movs	r2, #1
 8002c78:	f44f 6180 	mov.w	r1, #1024	@ 0x400
 8002c7c:	4620      	mov	r0, r4
 8002c7e:	f001 fc1e 	bl	80044be <HAL_GPIO_WritePin>
}
 8002c82:	b002      	add	sp, #8
 8002c84:	bd10      	pop	{r4, pc}
 8002c86:	bf00      	nop
 8002c88:	40010800 	.word	0x40010800
 8002c8c:	20001828 	.word	0x20001828

08002c90 <ST7789_WriteCommand>:
{
 8002c90:	b510      	push	{r4, lr}
 8002c92:	b082      	sub	sp, #8
 8002c94:	f88d 0007 	strb.w	r0, [sp, #7]
	ST7789_Select();
 8002c98:	4c0e      	ldr	r4, [pc, #56]	@ (8002cd4 <ST7789_WriteCommand+0x44>)
 8002c9a:	2200      	movs	r2, #0
 8002c9c:	f44f 6180 	mov.w	r1, #1024	@ 0x400
 8002ca0:	4620      	mov	r0, r4
 8002ca2:	f001 fc0c 	bl	80044be <HAL_GPIO_WritePin>
	ST7789_DC_Clr();
 8002ca6:	2200      	movs	r2, #0
 8002ca8:	f44f 7180 	mov.w	r1, #256	@ 0x100
 8002cac:	4620      	mov	r0, r4
 8002cae:	f001 fc06 	bl	80044be <HAL_GPIO_WritePin>
	HAL_SPI_Transmit(&ST7789_SPI_PORT, &cmd, sizeof(cmd), HAL_MAX_DELAY);
 8002cb2:	f04f 33ff 	mov.w	r3, #4294967295
 8002cb6:	2201      	movs	r2, #1
 8002cb8:	f10d 0107 	add.w	r1, sp, #7
 8002cbc:	4806      	ldr	r0, [pc, #24]	@ (8002cd8 <ST7789_WriteCommand+0x48>)
 8002cbe:	f002 f8b4 	bl	8004e2a <HAL_SPI_Transmit>
	ST7789_UnSelect();
 8002cc2:	2201      	movs	r2, #1
 8002cc4:	f44f 6180 	mov.w	r1, #1024	@ 0x400
 8002cc8:	4620      	mov	r0, r4
 8002cca:	f001 fbf8 	bl	80044be <HAL_GPIO_WritePin>
}
 8002cce:	b002      	add	sp, #8
 8002cd0:	bd10      	pop	{r4, pc}
 8002cd2:	bf00      	nop
 8002cd4:	40010800 	.word	0x40010800
 8002cd8:	20001828 	.word	0x20001828

08002cdc <ST7789_WriteData>:
{
 8002cdc:	b570      	push	{r4, r5, r6, lr}
 8002cde:	4606      	mov	r6, r0
 8002ce0:	460d      	mov	r5, r1
	ST7789_Select();
 8002ce2:	4c13      	ldr	r4, [pc, #76]	@ (8002d30 <ST7789_WriteData+0x54>)
 8002ce4:	2200      	movs	r2, #0
 8002ce6:	f44f 6180 	mov.w	r1, #1024	@ 0x400
 8002cea:	4620      	mov	r0, r4
 8002cec:	f001 fbe7 	bl	80044be <HAL_GPIO_WritePin>
	ST7789_DC_Set();
 8002cf0:	2201      	movs	r2, #1
 8002cf2:	f44f 7180 	mov.w	r1, #256	@ 0x100
 8002cf6:	4620      	mov	r0, r4
 8002cf8:	f001 fbe1 	bl	80044be <HAL_GPIO_WritePin>
	while (buff_size > 0) {
 8002cfc:	e00e      	b.n	8002d1c <ST7789_WriteData+0x40>
		uint16_t chunk_size = buff_size > 65535 ? 65535 : buff_size;
 8002cfe:	f64f 74ff 	movw	r4, #65535	@ 0xffff
 8002d02:	42ac      	cmp	r4, r5
 8002d04:	bf28      	it	cs
 8002d06:	462c      	movcs	r4, r5
 8002d08:	b2a4      	uxth	r4, r4
			HAL_SPI_Transmit(&ST7789_SPI_PORT, buff, chunk_size, HAL_MAX_DELAY);
 8002d0a:	f04f 33ff 	mov.w	r3, #4294967295
 8002d0e:	4622      	mov	r2, r4
 8002d10:	4631      	mov	r1, r6
 8002d12:	4808      	ldr	r0, [pc, #32]	@ (8002d34 <ST7789_WriteData+0x58>)
 8002d14:	f002 f889 	bl	8004e2a <HAL_SPI_Transmit>
		buff += chunk_size;
 8002d18:	4426      	add	r6, r4
		buff_size -= chunk_size;
 8002d1a:	1b2d      	subs	r5, r5, r4
	while (buff_size > 0) {
 8002d1c:	2d00      	cmp	r5, #0
 8002d1e:	d1ee      	bne.n	8002cfe <ST7789_WriteData+0x22>
	ST7789_UnSelect();
 8002d20:	2201      	movs	r2, #1
 8002d22:	f44f 6180 	mov.w	r1, #1024	@ 0x400
 8002d26:	4802      	ldr	r0, [pc, #8]	@ (8002d30 <ST7789_WriteData+0x54>)
 8002d28:	f001 fbc9 	bl	80044be <HAL_GPIO_WritePin>
}
 8002d2c:	bd70      	pop	{r4, r5, r6, pc}
 8002d2e:	bf00      	nop
 8002d30:	40010800 	.word	0x40010800
 8002d34:	20001828 	.word	0x20001828

08002d38 <ST7789_SetRotation>:
 * @brief Set the rotation direction of the display
 * @param m -> rotation parameter(please refer it in st7789.h)
 * @return none
 */
void ST7789_SetRotation(uint8_t m)
{
 8002d38:	b510      	push	{r4, lr}
 8002d3a:	4604      	mov	r4, r0
	ST7789_WriteCommand(ST7789_MADCTL);	// MADCTL
 8002d3c:	2036      	movs	r0, #54	@ 0x36
 8002d3e:	f7ff ffa7 	bl	8002c90 <ST7789_WriteCommand>
	switch (m) {
 8002d42:	2c03      	cmp	r4, #3
 8002d44:	d806      	bhi.n	8002d54 <ST7789_SetRotation+0x1c>
 8002d46:	e8df f004 	tbb	[pc, r4]
 8002d4a:	0602      	.short	0x0602
 8002d4c:	0e0a      	.short	0x0e0a
	case 0:
		ST7789_WriteSmallData(ST7789_MADCTL_MX | ST7789_MADCTL_MY | ST7789_MADCTL_RGB);
 8002d4e:	20c0      	movs	r0, #192	@ 0xc0
 8002d50:	f7ff ff78 	bl	8002c44 <ST7789_WriteSmallData>
		ST7789_WriteSmallData(ST7789_MADCTL_MX | ST7789_MADCTL_MV | ST7789_MADCTL_RGB);
		break;
	default:
		break;
	}
}
 8002d54:	bd10      	pop	{r4, pc}
		ST7789_WriteSmallData(ST7789_MADCTL_MY | ST7789_MADCTL_MV | ST7789_MADCTL_RGB);
 8002d56:	20a0      	movs	r0, #160	@ 0xa0
 8002d58:	f7ff ff74 	bl	8002c44 <ST7789_WriteSmallData>
		break;
 8002d5c:	e7fa      	b.n	8002d54 <ST7789_SetRotation+0x1c>
		ST7789_WriteSmallData(ST7789_MADCTL_RGB);
 8002d5e:	2000      	movs	r0, #0
 8002d60:	f7ff ff70 	bl	8002c44 <ST7789_WriteSmallData>
		break;
 8002d64:	e7f6      	b.n	8002d54 <ST7789_SetRotation+0x1c>
		ST7789_WriteSmallData(ST7789_MADCTL_MX | ST7789_MADCTL_MV | ST7789_MADCTL_RGB);
 8002d66:	2060      	movs	r0, #96	@ 0x60
 8002d68:	f7ff ff6c 	bl	8002c44 <ST7789_WriteSmallData>
}
 8002d6c:	e7f2      	b.n	8002d54 <ST7789_SetRotation+0x1c>
	...

08002d70 <ST7789_SetAddressWindow>:
 * @brief Set address of DisplayWindow
 * @param xi&yi -> coordinates of window
 * @return none
 */
void ST7789_SetAddressWindow(uint16_t x0, uint16_t y0, uint16_t x1, uint16_t y1)
{
 8002d70:	e92d 41f0 	stmdb	sp!, {r4, r5, r6, r7, r8, lr}
 8002d74:	b082      	sub	sp, #8
 8002d76:	4605      	mov	r5, r0
 8002d78:	460f      	mov	r7, r1
 8002d7a:	4614      	mov	r4, r2
 8002d7c:	461e      	mov	r6, r3
	ST7789_Select();
 8002d7e:	f8df 8078 	ldr.w	r8, [pc, #120]	@ 8002df8 <ST7789_SetAddressWindow+0x88>
 8002d82:	2200      	movs	r2, #0
 8002d84:	f44f 6180 	mov.w	r1, #1024	@ 0x400
 8002d88:	4640      	mov	r0, r8
 8002d8a:	f001 fb98 	bl	80044be <HAL_GPIO_WritePin>
	uint16_t x_start = x0 + X_SHIFT, x_end = x1 + X_SHIFT;
 8002d8e:	3514      	adds	r5, #20
 8002d90:	b2ad      	uxth	r5, r5
 8002d92:	3414      	adds	r4, #20
 8002d94:	b2a4      	uxth	r4, r4
	uint16_t y_start = y0 + Y_SHIFT, y_end = y1 + Y_SHIFT;

	/* Column Address set */
	ST7789_WriteCommand(ST7789_CASET);
 8002d96:	202a      	movs	r0, #42	@ 0x2a
 8002d98:	f7ff ff7a 	bl	8002c90 <ST7789_WriteCommand>
	{
		uint8_t data[] = {x_start >> 8, x_start & 0xFF, x_end >> 8, x_end & 0xFF};
 8002d9c:	0a2b      	lsrs	r3, r5, #8
 8002d9e:	f88d 3004 	strb.w	r3, [sp, #4]
 8002da2:	f88d 5005 	strb.w	r5, [sp, #5]
 8002da6:	0a23      	lsrs	r3, r4, #8
 8002da8:	f88d 3006 	strb.w	r3, [sp, #6]
 8002dac:	f88d 4007 	strb.w	r4, [sp, #7]
		ST7789_WriteData(data, sizeof(data));
 8002db0:	2104      	movs	r1, #4
 8002db2:	eb0d 0001 	add.w	r0, sp, r1
 8002db6:	f7ff ff91 	bl	8002cdc <ST7789_WriteData>
	}

	/* Row Address set */
	ST7789_WriteCommand(ST7789_RASET);
 8002dba:	202b      	movs	r0, #43	@ 0x2b
 8002dbc:	f7ff ff68 	bl	8002c90 <ST7789_WriteCommand>
	{
		uint8_t data[] = {y_start >> 8, y_start & 0xFF, y_end >> 8, y_end & 0xFF};
 8002dc0:	0a3b      	lsrs	r3, r7, #8
 8002dc2:	f88d 3004 	strb.w	r3, [sp, #4]
 8002dc6:	f88d 7005 	strb.w	r7, [sp, #5]
 8002dca:	0a33      	lsrs	r3, r6, #8
 8002dcc:	f88d 3006 	strb.w	r3, [sp, #6]
 8002dd0:	f88d 6007 	strb.w	r6, [sp, #7]
		ST7789_WriteData(data, sizeof(data));
 8002dd4:	2104      	movs	r1, #4
 8002dd6:	eb0d 0001 	add.w	r0, sp, r1
 8002dda:	f7ff ff7f 	bl	8002cdc <ST7789_WriteData>
	}
	/* Write to RAM */
	ST7789_WriteCommand(ST7789_RAMWR);
 8002dde:	202c      	movs	r0, #44	@ 0x2c
 8002de0:	f7ff ff56 	bl	8002c90 <ST7789_WriteCommand>
	ST7789_UnSelect();
 8002de4:	2201      	movs	r2, #1
 8002de6:	f44f 6180 	mov.w	r1, #1024	@ 0x400
 8002dea:	4640      	mov	r0, r8
 8002dec:	f001 fb67 	bl	80044be <HAL_GPIO_WritePin>
}
 8002df0:	b002      	add	sp, #8
 8002df2:	e8bd 81f0 	ldmia.w	sp!, {r4, r5, r6, r7, r8, pc}
 8002df6:	bf00      	nop
 8002df8:	40010800 	.word	0x40010800

08002dfc <ST7789_Fill_Color>:
 * @brief Fill the DisplayWindow with single color
 * @param color -> color to Fill with
 * @return none
 */
void ST7789_Fill_Color(uint16_t color)
{
 8002dfc:	b570      	push	{r4, r5, r6, lr}
 8002dfe:	b082      	sub	sp, #8
 8002e00:	4605      	mov	r5, r0
	uint16_t i;
	ST7789_SetAddressWindow(0, 0, ST7789_WIDTH - 1, ST7789_HEIGHT - 1);
 8002e02:	23ef      	movs	r3, #239	@ 0xef
 8002e04:	f240 1217 	movw	r2, #279	@ 0x117
 8002e08:	2100      	movs	r1, #0
 8002e0a:	4608      	mov	r0, r1
 8002e0c:	f7ff ffb0 	bl	8002d70 <ST7789_SetAddressWindow>
	ST7789_Select();
 8002e10:	2200      	movs	r2, #0
 8002e12:	f44f 6180 	mov.w	r1, #1024	@ 0x400
 8002e16:	4810      	ldr	r0, [pc, #64]	@ (8002e58 <ST7789_Fill_Color+0x5c>)
 8002e18:	f001 fb51 	bl	80044be <HAL_GPIO_WritePin>
			memset(disp_buf, color, sizeof(disp_buf));
			ST7789_WriteData(disp_buf, sizeof(disp_buf));
		}
	#else
		uint16_t j;
		for (i = 0; i < ST7789_WIDTH; i++)
 8002e1c:	2600      	movs	r6, #0
 8002e1e:	e00e      	b.n	8002e3e <ST7789_Fill_Color+0x42>
				for (j = 0; j < ST7789_HEIGHT; j++) {
					uint8_t data[] = {color >> 8, color & 0xFF};
 8002e20:	0a2b      	lsrs	r3, r5, #8
 8002e22:	f88d 3004 	strb.w	r3, [sp, #4]
 8002e26:	f88d 5005 	strb.w	r5, [sp, #5]
					ST7789_WriteData(data, sizeof(data));
 8002e2a:	2102      	movs	r1, #2
 8002e2c:	a801      	add	r0, sp, #4
 8002e2e:	f7ff ff55 	bl	8002cdc <ST7789_WriteData>
				for (j = 0; j < ST7789_HEIGHT; j++) {
 8002e32:	3401      	adds	r4, #1
 8002e34:	b2a4      	uxth	r4, r4
 8002e36:	2cef      	cmp	r4, #239	@ 0xef
 8002e38:	d9f2      	bls.n	8002e20 <ST7789_Fill_Color+0x24>
		for (i = 0; i < ST7789_WIDTH; i++)
 8002e3a:	3601      	adds	r6, #1
 8002e3c:	b2b6      	uxth	r6, r6
 8002e3e:	f5b6 7f8c 	cmp.w	r6, #280	@ 0x118
 8002e42:	d201      	bcs.n	8002e48 <ST7789_Fill_Color+0x4c>
				for (j = 0; j < ST7789_HEIGHT; j++) {
 8002e44:	2400      	movs	r4, #0
 8002e46:	e7f6      	b.n	8002e36 <ST7789_Fill_Color+0x3a>
				}
	#endif
	ST7789_UnSelect();
 8002e48:	2201      	movs	r2, #1
 8002e4a:	f44f 6180 	mov.w	r1, #1024	@ 0x400
 8002e4e:	4802      	ldr	r0, [pc, #8]	@ (8002e58 <ST7789_Fill_Color+0x5c>)
 8002e50:	f001 fb35 	bl	80044be <HAL_GPIO_WritePin>
}
 8002e54:	b002      	add	sp, #8
 8002e56:	bd70      	pop	{r4, r5, r6, pc}
 8002e58:	40010800 	.word	0x40010800

08002e5c <ST7789_Init>:
{
 8002e5c:	b510      	push	{r4, lr}
 8002e5e:	b084      	sub	sp, #16
	HAL_Delay(10);
 8002e60:	200a      	movs	r0, #10
 8002e62:	f000 ff23 	bl	8003cac <HAL_Delay>
    ST7789_RST_Clr();
 8002e66:	4c46      	ldr	r4, [pc, #280]	@ (8002f80 <ST7789_Init+0x124>)
 8002e68:	2200      	movs	r2, #0
 8002e6a:	f44f 7100 	mov.w	r1, #512	@ 0x200
 8002e6e:	4620      	mov	r0, r4
 8002e70:	f001 fb25 	bl	80044be <HAL_GPIO_WritePin>
    HAL_Delay(10);
 8002e74:	200a      	movs	r0, #10
 8002e76:	f000 ff19 	bl	8003cac <HAL_Delay>
    ST7789_RST_Set();
 8002e7a:	2201      	movs	r2, #1
 8002e7c:	f44f 7100 	mov.w	r1, #512	@ 0x200
 8002e80:	4620      	mov	r0, r4
 8002e82:	f001 fb1c 	bl	80044be <HAL_GPIO_WritePin>
    HAL_Delay(20);
 8002e86:	2014      	movs	r0, #20
 8002e88:	f000 ff10 	bl	8003cac <HAL_Delay>
    ST7789_WriteCommand(ST7789_COLMOD);		//	Set color mode
 8002e8c:	203a      	movs	r0, #58	@ 0x3a
 8002e8e:	f7ff feff 	bl	8002c90 <ST7789_WriteCommand>
    ST7789_WriteSmallData(ST7789_COLOR_MODE_16bit);
 8002e92:	2055      	movs	r0, #85	@ 0x55
 8002e94:	f7ff fed6 	bl	8002c44 <ST7789_WriteSmallData>
  	ST7789_WriteCommand(0xB2);				//	Porch control
 8002e98:	20b2      	movs	r0, #178	@ 0xb2
 8002e9a:	f7ff fef9 	bl	8002c90 <ST7789_WriteCommand>
		uint8_t data[] = {0x0C, 0x0C, 0x00, 0x33, 0x33};
 8002e9e:	4b39      	ldr	r3, [pc, #228]	@ (8002f84 <ST7789_Init+0x128>)
 8002ea0:	e893 0003 	ldmia.w	r3, {r0, r1}
 8002ea4:	9000      	str	r0, [sp, #0]
 8002ea6:	f88d 1004 	strb.w	r1, [sp, #4]
		ST7789_WriteData(data, sizeof(data));
 8002eaa:	2105      	movs	r1, #5
 8002eac:	4668      	mov	r0, sp
 8002eae:	f7ff ff15 	bl	8002cdc <ST7789_WriteData>
	ST7789_SetRotation(ST7789_ROTATION);	//	MADCTL (Display Rotation)
 8002eb2:	2003      	movs	r0, #3
 8002eb4:	f7ff ff40 	bl	8002d38 <ST7789_SetRotation>
    ST7789_WriteCommand(0XB7);				//	Gate Control
 8002eb8:	20b7      	movs	r0, #183	@ 0xb7
 8002eba:	f7ff fee9 	bl	8002c90 <ST7789_WriteCommand>
    ST7789_WriteSmallData(0x35);			//	Default value
 8002ebe:	2035      	movs	r0, #53	@ 0x35
 8002ec0:	f7ff fec0 	bl	8002c44 <ST7789_WriteSmallData>
    ST7789_WriteCommand(0xBB);				//	VCOM setting
 8002ec4:	20bb      	movs	r0, #187	@ 0xbb
 8002ec6:	f7ff fee3 	bl	8002c90 <ST7789_WriteCommand>
    ST7789_WriteSmallData(0x19);			//	0.725v (default 0.75v for 0x20)
 8002eca:	2019      	movs	r0, #25
 8002ecc:	f7ff feba 	bl	8002c44 <ST7789_WriteSmallData>
    ST7789_WriteCommand(0xC0);				//	LCMCTRL
 8002ed0:	20c0      	movs	r0, #192	@ 0xc0
 8002ed2:	f7ff fedd 	bl	8002c90 <ST7789_WriteCommand>
    ST7789_WriteSmallData (0x2C);			//	Default value
 8002ed6:	202c      	movs	r0, #44	@ 0x2c
 8002ed8:	f7ff feb4 	bl	8002c44 <ST7789_WriteSmallData>
    ST7789_WriteCommand (0xC2);				//	VDV and VRH command Enable
 8002edc:	20c2      	movs	r0, #194	@ 0xc2
 8002ede:	f7ff fed7 	bl	8002c90 <ST7789_WriteCommand>
    ST7789_WriteSmallData (0x01);			//	Default value
 8002ee2:	2001      	movs	r0, #1
 8002ee4:	f7ff feae 	bl	8002c44 <ST7789_WriteSmallData>
    ST7789_WriteCommand (0xC3);				//	VRH set
 8002ee8:	20c3      	movs	r0, #195	@ 0xc3
 8002eea:	f7ff fed1 	bl	8002c90 <ST7789_WriteCommand>
    ST7789_WriteSmallData (0x12);			//	+-4.45v (defalut +-4.1v for 0x0B)
 8002eee:	2012      	movs	r0, #18
 8002ef0:	f7ff fea8 	bl	8002c44 <ST7789_WriteSmallData>
    ST7789_WriteCommand (0xC4);				//	VDV set
 8002ef4:	20c4      	movs	r0, #196	@ 0xc4
 8002ef6:	f7ff fecb 	bl	8002c90 <ST7789_WriteCommand>
    ST7789_WriteSmallData (0x20);			//	Default value
 8002efa:	2020      	movs	r0, #32
 8002efc:	f7ff fea2 	bl	8002c44 <ST7789_WriteSmallData>
    ST7789_WriteCommand (0xC6);				//	Frame rate control in normal mode
 8002f00:	20c6      	movs	r0, #198	@ 0xc6
 8002f02:	f7ff fec5 	bl	8002c90 <ST7789_WriteCommand>
    ST7789_WriteSmallData (0x0F);			//	Default value (60HZ)
 8002f06:	200f      	movs	r0, #15
 8002f08:	f7ff fe9c 	bl	8002c44 <ST7789_WriteSmallData>
    ST7789_WriteCommand (0xD0);				//	Power control
 8002f0c:	20d0      	movs	r0, #208	@ 0xd0
 8002f0e:	f7ff febf 	bl	8002c90 <ST7789_WriteCommand>
    ST7789_WriteSmallData (0xA4);			//	Default value
 8002f12:	20a4      	movs	r0, #164	@ 0xa4
 8002f14:	f7ff fe96 	bl	8002c44 <ST7789_WriteSmallData>
    ST7789_WriteSmallData (0xA1);			//	Default value
 8002f18:	20a1      	movs	r0, #161	@ 0xa1
 8002f1a:	f7ff fe93 	bl	8002c44 <ST7789_WriteSmallData>
	ST7789_WriteCommand(0xE0);
 8002f1e:	20e0      	movs	r0, #224	@ 0xe0
 8002f20:	f7ff feb6 	bl	8002c90 <ST7789_WriteCommand>
		uint8_t data[] = {0xD0, 0x04, 0x0D, 0x11, 0x13, 0x2B, 0x3F, 0x54, 0x4C, 0x18, 0x0D, 0x0B, 0x1F, 0x23};
 8002f24:	4b18      	ldr	r3, [pc, #96]	@ (8002f88 <ST7789_Init+0x12c>)
 8002f26:	46ec      	mov	ip, sp
 8002f28:	cb0f      	ldmia	r3, {r0, r1, r2, r3}
 8002f2a:	e8ac 0007 	stmia.w	ip!, {r0, r1, r2}
 8002f2e:	f8ac 3000 	strh.w	r3, [ip]
		ST7789_WriteData(data, sizeof(data));
 8002f32:	210e      	movs	r1, #14
 8002f34:	4668      	mov	r0, sp
 8002f36:	f7ff fed1 	bl	8002cdc <ST7789_WriteData>
    ST7789_WriteCommand(0xE1);
 8002f3a:	20e1      	movs	r0, #225	@ 0xe1
 8002f3c:	f7ff fea8 	bl	8002c90 <ST7789_WriteCommand>
		uint8_t data[] = {0xD0, 0x04, 0x0C, 0x11, 0x13, 0x2C, 0x3F, 0x44, 0x51, 0x2F, 0x1F, 0x1F, 0x20, 0x23};
 8002f40:	4b12      	ldr	r3, [pc, #72]	@ (8002f8c <ST7789_Init+0x130>)
 8002f42:	46ec      	mov	ip, sp
 8002f44:	cb0f      	ldmia	r3, {r0, r1, r2, r3}
 8002f46:	e8ac 0007 	stmia.w	ip!, {r0, r1, r2}
 8002f4a:	f8ac 3000 	strh.w	r3, [ip]
		ST7789_WriteData(data, sizeof(data));
 8002f4e:	210e      	movs	r1, #14
 8002f50:	4668      	mov	r0, sp
 8002f52:	f7ff fec3 	bl	8002cdc <ST7789_WriteData>
    ST7789_WriteCommand (ST7789_INVON);		//	Inversion ON
 8002f56:	2021      	movs	r0, #33	@ 0x21
 8002f58:	f7ff fe9a 	bl	8002c90 <ST7789_WriteCommand>
	ST7789_WriteCommand (ST7789_SLPOUT);	//	Out of sleep mode
 8002f5c:	2011      	movs	r0, #17
 8002f5e:	f7ff fe97 	bl	8002c90 <ST7789_WriteCommand>
  	ST7789_WriteCommand (ST7789_NORON);		//	Normal Display on
 8002f62:	2013      	movs	r0, #19
 8002f64:	f7ff fe94 	bl	8002c90 <ST7789_WriteCommand>
  	ST7789_WriteCommand (ST7789_DISPON);	//	Main screen turned on
 8002f68:	2029      	movs	r0, #41	@ 0x29
 8002f6a:	f7ff fe91 	bl	8002c90 <ST7789_WriteCommand>
	HAL_Delay(50);
 8002f6e:	2032      	movs	r0, #50	@ 0x32
 8002f70:	f000 fe9c 	bl	8003cac <HAL_Delay>
	ST7789_Fill_Color(BLACK);				//	Fill with Black.
 8002f74:	2000      	movs	r0, #0
 8002f76:	f7ff ff41 	bl	8002dfc <ST7789_Fill_Color>
}
 8002f7a:	b004      	add	sp, #16
 8002f7c:	bd10      	pop	{r4, pc}
 8002f7e:	bf00      	nop
 8002f80:	40010800 	.word	0x40010800
 8002f84:	08008434 	.word	0x08008434
 8002f88:	0800a0e4 	.word	0x0800a0e4
 8002f8c:	0800a0f4 	.word	0x0800a0f4

08002f90 <ST7789_DrawPixel>:
 * @param color -> color of the Pixel
 * @return none
 */
void ST7789_DrawPixel(uint16_t x, uint16_t y, uint16_t color)
{
	if ((x < 0) || (x >= ST7789_WIDTH) ||
 8002f90:	f5b0 7f8c 	cmp.w	r0, #280	@ 0x118
 8002f94:	d221      	bcs.n	8002fda <ST7789_DrawPixel+0x4a>
{
 8002f96:	b510      	push	{r4, lr}
 8002f98:	b082      	sub	sp, #8
 8002f9a:	4614      	mov	r4, r2
		 (y < 0) || (y >= ST7789_HEIGHT))	return;
 8002f9c:	29ef      	cmp	r1, #239	@ 0xef
 8002f9e:	d901      	bls.n	8002fa4 <ST7789_DrawPixel+0x14>
	ST7789_SetAddressWindow(x, y, x, y);
	uint8_t data[] = {color >> 8, color & 0xFF};
	ST7789_Select();
	ST7789_WriteData(data, sizeof(data));
	ST7789_UnSelect();
}
 8002fa0:	b002      	add	sp, #8
 8002fa2:	bd10      	pop	{r4, pc}
	ST7789_SetAddressWindow(x, y, x, y);
 8002fa4:	460b      	mov	r3, r1
 8002fa6:	4602      	mov	r2, r0
 8002fa8:	f7ff fee2 	bl	8002d70 <ST7789_SetAddressWindow>
	uint8_t data[] = {color >> 8, color & 0xFF};
 8002fac:	0a23      	lsrs	r3, r4, #8
 8002fae:	f88d 3004 	strb.w	r3, [sp, #4]
 8002fb2:	f88d 4005 	strb.w	r4, [sp, #5]
	ST7789_Select();
 8002fb6:	4c09      	ldr	r4, [pc, #36]	@ (8002fdc <ST7789_DrawPixel+0x4c>)
 8002fb8:	2200      	movs	r2, #0
 8002fba:	f44f 6180 	mov.w	r1, #1024	@ 0x400
 8002fbe:	4620      	mov	r0, r4
 8002fc0:	f001 fa7d 	bl	80044be <HAL_GPIO_WritePin>
	ST7789_WriteData(data, sizeof(data));
 8002fc4:	2102      	movs	r1, #2
 8002fc6:	a801      	add	r0, sp, #4
 8002fc8:	f7ff fe88 	bl	8002cdc <ST7789_WriteData>
	ST7789_UnSelect();
 8002fcc:	2201      	movs	r2, #1
 8002fce:	f44f 6180 	mov.w	r1, #1024	@ 0x400
 8002fd2:	4620      	mov	r0, r4
 8002fd4:	f001 fa73 	bl	80044be <HAL_GPIO_WritePin>
 8002fd8:	e7e2      	b.n	8002fa0 <ST7789_DrawPixel+0x10>
 8002fda:	4770      	bx	lr
 8002fdc:	40010800 	.word	0x40010800

08002fe0 <ST7789_DrawLine>:
 * @param x2&y2 -> coordinate of the end point
 * @param color -> color of the line to Draw
 * @return none
 */
void ST7789_DrawLine(uint16_t x0, uint16_t y0, uint16_t x1, uint16_t y1,
        uint16_t color) {
 8002fe0:	e92d 4ff0 	stmdb	sp!, {r4, r5, r6, r7, r8, r9, sl, fp, lr}
 8002fe4:	b083      	sub	sp, #12
 8002fe6:	468b      	mov	fp, r1
 8002fe8:	4615      	mov	r5, r2
 8002fea:	461e      	mov	r6, r3
 8002fec:	f8bd 8030 	ldrh.w	r8, [sp, #48]	@ 0x30
	uint16_t swap;
    uint16_t steep = ABS(y1 - y0) > ABS(x1 - x0);
 8002ff0:	1a5a      	subs	r2, r3, r1
 8002ff2:	ea82 79e2 	eor.w	r9, r2, r2, asr #31
 8002ff6:	eba9 79e2 	sub.w	r9, r9, r2, asr #31
 8002ffa:	1a29      	subs	r1, r5, r0
 8002ffc:	ea81 7ae1 	eor.w	sl, r1, r1, asr #31
 8003000:	ebaa 7ae1 	sub.w	sl, sl, r1, asr #31
    if (steep) {
 8003004:	45d1      	cmp	r9, sl
 8003006:	dc04      	bgt.n	8003012 <ST7789_DrawLine+0x32>
 8003008:	462e      	mov	r6, r5
 800300a:	461d      	mov	r5, r3
 800300c:	465b      	mov	r3, fp
 800300e:	4683      	mov	fp, r0
 8003010:	4618      	mov	r0, r3
		y1 = swap;
        //_swap_int16_t(x0, y0);
        //_swap_int16_t(x1, y1);
    }

    if (x0 > x1) {
 8003012:	45b3      	cmp	fp, r6
 8003014:	d805      	bhi.n	8003022 <ST7789_DrawLine+0x42>
 8003016:	462b      	mov	r3, r5
 8003018:	4605      	mov	r5, r0
 800301a:	4618      	mov	r0, r3
 800301c:	4633      	mov	r3, r6
 800301e:	465e      	mov	r6, fp
 8003020:	469b      	mov	fp, r3
        //_swap_int16_t(x0, x1);
        //_swap_int16_t(y0, y1);
    }

    int16_t dx, dy;
    dx = x1 - x0;
 8003022:	ebab 0406 	sub.w	r4, fp, r6
 8003026:	b2a3      	uxth	r3, r4
 8003028:	9300      	str	r3, [sp, #0]
 800302a:	b223      	sxth	r3, r4
    dy = ABS(y1 - y0);
 800302c:	1b47      	subs	r7, r0, r5
 800302e:	2f00      	cmp	r7, #0
 8003030:	bfb8      	it	lt
 8003032:	427f      	neglt	r7, r7

    int16_t err = dx / 2;
 8003034:	f3c4 34c0 	ubfx	r4, r4, #15, #1
 8003038:	441c      	add	r4, r3
 800303a:	1064      	asrs	r4, r4, #1
    int16_t ystep;

    if (y0 < y1) {
 800303c:	4285      	cmp	r5, r0
 800303e:	d320      	bcc.n	8003082 <ST7789_DrawLine+0xa2>
        ystep = 1;
    } else {
        ystep = -1;
 8003040:	f04f 33ff 	mov.w	r3, #4294967295
 8003044:	9301      	str	r3, [sp, #4]
 8003046:	e00b      	b.n	8003060 <ST7789_DrawLine+0x80>

    for (; x0<=x1; x0++) {
        if (steep) {
            ST7789_DrawPixel(y0, x0, color);
        } else {
            ST7789_DrawPixel(x0, y0, color);
 8003048:	4642      	mov	r2, r8
 800304a:	4629      	mov	r1, r5
 800304c:	4630      	mov	r0, r6
 800304e:	f7ff ff9f 	bl	8002f90 <ST7789_DrawPixel>
        }
        err -= dy;
 8003052:	1be4      	subs	r4, r4, r7
 8003054:	b2a3      	uxth	r3, r4
 8003056:	b224      	sxth	r4, r4
        if (err < 0) {
 8003058:	2c00      	cmp	r4, #0
 800305a:	db0b      	blt.n	8003074 <ST7789_DrawLine+0x94>
    for (; x0<=x1; x0++) {
 800305c:	3601      	adds	r6, #1
 800305e:	b2b6      	uxth	r6, r6
 8003060:	455e      	cmp	r6, fp
 8003062:	d811      	bhi.n	8003088 <ST7789_DrawLine+0xa8>
        if (steep) {
 8003064:	45d1      	cmp	r9, sl
 8003066:	ddef      	ble.n	8003048 <ST7789_DrawLine+0x68>
            ST7789_DrawPixel(y0, x0, color);
 8003068:	4642      	mov	r2, r8
 800306a:	4631      	mov	r1, r6
 800306c:	4628      	mov	r0, r5
 800306e:	f7ff ff8f 	bl	8002f90 <ST7789_DrawPixel>
 8003072:	e7ee      	b.n	8003052 <ST7789_DrawLine+0x72>
            y0 += ystep;
 8003074:	9a01      	ldr	r2, [sp, #4]
 8003076:	4415      	add	r5, r2
 8003078:	b2ad      	uxth	r5, r5
            err += dx;
 800307a:	9a00      	ldr	r2, [sp, #0]
 800307c:	4413      	add	r3, r2
 800307e:	b21c      	sxth	r4, r3
 8003080:	e7ec      	b.n	800305c <ST7789_DrawLine+0x7c>
        ystep = 1;
 8003082:	2301      	movs	r3, #1
 8003084:	9301      	str	r3, [sp, #4]
 8003086:	e7eb      	b.n	8003060 <ST7789_DrawLine+0x80>
        }
    }
}
 8003088:	b003      	add	sp, #12
 800308a:	e8bd 8ff0 	ldmia.w	sp!, {r4, r5, r6, r7, r8, r9, sl, fp, pc}
	...

08003090 <ST7789_DrawRectangle>:
 * @param xi&yi -> 2 coordinates of 2 top points.
 * @param color -> color of the Rectangle line
 * @return none
 */
void ST7789_DrawRectangle(uint16_t x1, uint16_t y1, uint16_t x2, uint16_t y2, uint16_t color)
{
 8003090:	e92d 43f0 	stmdb	sp!, {r4, r5, r6, r7, r8, r9, lr}
 8003094:	b083      	sub	sp, #12
 8003096:	4607      	mov	r7, r0
 8003098:	460d      	mov	r5, r1
 800309a:	4614      	mov	r4, r2
 800309c:	461e      	mov	r6, r3
 800309e:	f8bd 8028 	ldrh.w	r8, [sp, #40]	@ 0x28
	ST7789_Select();
 80030a2:	f8df 9060 	ldr.w	r9, [pc, #96]	@ 8003104 <ST7789_DrawRectangle+0x74>
 80030a6:	2200      	movs	r2, #0
 80030a8:	f44f 6180 	mov.w	r1, #1024	@ 0x400
 80030ac:	4648      	mov	r0, r9
 80030ae:	f001 fa06 	bl	80044be <HAL_GPIO_WritePin>
	ST7789_DrawLine(x1, y1, x2, y1, color);
 80030b2:	f8cd 8000 	str.w	r8, [sp]
 80030b6:	462b      	mov	r3, r5
 80030b8:	4622      	mov	r2, r4
 80030ba:	4629      	mov	r1, r5
 80030bc:	4638      	mov	r0, r7
 80030be:	f7ff ff8f 	bl	8002fe0 <ST7789_DrawLine>
	ST7789_DrawLine(x1, y1, x1, y2, color);
 80030c2:	f8cd 8000 	str.w	r8, [sp]
 80030c6:	4633      	mov	r3, r6
 80030c8:	463a      	mov	r2, r7
 80030ca:	4629      	mov	r1, r5
 80030cc:	4638      	mov	r0, r7
 80030ce:	f7ff ff87 	bl	8002fe0 <ST7789_DrawLine>
	ST7789_DrawLine(x1, y2, x2, y2, color);
 80030d2:	f8cd 8000 	str.w	r8, [sp]
 80030d6:	4633      	mov	r3, r6
 80030d8:	4622      	mov	r2, r4
 80030da:	4631      	mov	r1, r6
 80030dc:	4638      	mov	r0, r7
 80030de:	f7ff ff7f 	bl	8002fe0 <ST7789_DrawLine>
	ST7789_DrawLine(x2, y1, x2, y2, color);
 80030e2:	f8cd 8000 	str.w	r8, [sp]
 80030e6:	4633      	mov	r3, r6
 80030e8:	4622      	mov	r2, r4
 80030ea:	4629      	mov	r1, r5
 80030ec:	4620      	mov	r0, r4
 80030ee:	f7ff ff77 	bl	8002fe0 <ST7789_DrawLine>
	ST7789_UnSelect();
 80030f2:	2201      	movs	r2, #1
 80030f4:	f44f 6180 	mov.w	r1, #1024	@ 0x400
 80030f8:	4648      	mov	r0, r9
 80030fa:	f001 f9e0 	bl	80044be <HAL_GPIO_WritePin>
}
 80030fe:	b003      	add	sp, #12
 8003100:	e8bd 83f0 	ldmia.w	sp!, {r4, r5, r6, r7, r8, r9, pc}
 8003104:	40010800 	.word	0x40010800

08003108 <ST7789_DrawCircle>:
 * @param r -> radius of circle
 * @param color -> color of circle line
 * @return  none
 */
void ST7789_DrawCircle(uint16_t x0, uint16_t y0, uint8_t r, uint16_t color)
{
 8003108:	e92d 4ff0 	stmdb	sp!, {r4, r5, r6, r7, r8, r9, sl, fp, lr}
 800310c:	b087      	sub	sp, #28
 800310e:	4683      	mov	fp, r0
 8003110:	468a      	mov	sl, r1
 8003112:	4614      	mov	r4, r2
 8003114:	461e      	mov	r6, r3
	int16_t f = 1 - r;
 8003116:	f1c2 0901 	rsb	r9, r2, #1
	int16_t ddF_x = 1;
	int16_t ddF_y = -2 * r;
 800311a:	ebc2 33c2 	rsb	r3, r2, r2, lsl #15
 800311e:	005b      	lsls	r3, r3, #1
 8003120:	b21b      	sxth	r3, r3
 8003122:	9305      	str	r3, [sp, #20]
	int16_t x = 0;
	int16_t y = r;
 8003124:	b213      	sxth	r3, r2
 8003126:	9301      	str	r3, [sp, #4]

	ST7789_Select();
 8003128:	2200      	movs	r2, #0
 800312a:	f44f 6180 	mov.w	r1, #1024	@ 0x400
 800312e:	484a      	ldr	r0, [pc, #296]	@ (8003258 <ST7789_DrawCircle+0x150>)
 8003130:	f001 f9c5 	bl	80044be <HAL_GPIO_WritePin>
	ST7789_DrawPixel(x0, y0 + r, color);
 8003134:	eb04 010a 	add.w	r1, r4, sl
 8003138:	4632      	mov	r2, r6
 800313a:	b289      	uxth	r1, r1
 800313c:	4658      	mov	r0, fp
 800313e:	f7ff ff27 	bl	8002f90 <ST7789_DrawPixel>
	ST7789_DrawPixel(x0, y0 - r, color);
 8003142:	ebaa 0104 	sub.w	r1, sl, r4
 8003146:	4632      	mov	r2, r6
 8003148:	b289      	uxth	r1, r1
 800314a:	4658      	mov	r0, fp
 800314c:	f7ff ff20 	bl	8002f90 <ST7789_DrawPixel>
	ST7789_DrawPixel(x0 + r, y0, color);
 8003150:	eb04 000b 	add.w	r0, r4, fp
 8003154:	4632      	mov	r2, r6
 8003156:	4651      	mov	r1, sl
 8003158:	b280      	uxth	r0, r0
 800315a:	f7ff ff19 	bl	8002f90 <ST7789_DrawPixel>
	ST7789_DrawPixel(x0 - r, y0, color);
 800315e:	ebab 0004 	sub.w	r0, fp, r4
 8003162:	4632      	mov	r2, r6
 8003164:	4651      	mov	r1, sl
 8003166:	b280      	uxth	r0, r0
 8003168:	f7ff ff12 	bl	8002f90 <ST7789_DrawPixel>
	int16_t x = 0;
 800316c:	2300      	movs	r3, #0
 800316e:	9302      	str	r3, [sp, #8]
	int16_t ddF_x = 1;
 8003170:	2301      	movs	r3, #1
 8003172:	9303      	str	r3, [sp, #12]

	while (x < y) {
 8003174:	e05e      	b.n	8003234 <ST7789_DrawCircle+0x12c>
		if (f >= 0) {
			y--;
 8003176:	9b01      	ldr	r3, [sp, #4]
 8003178:	3b01      	subs	r3, #1
 800317a:	b21b      	sxth	r3, r3
 800317c:	9301      	str	r3, [sp, #4]
			ddF_y += 2;
 800317e:	9a05      	ldr	r2, [sp, #20]
 8003180:	3202      	adds	r2, #2
 8003182:	b293      	uxth	r3, r2
 8003184:	b212      	sxth	r2, r2
 8003186:	9205      	str	r2, [sp, #20]
			f += ddF_y;
 8003188:	444b      	add	r3, r9
 800318a:	fa0f f983 	sxth.w	r9, r3
		}
		x++;
 800318e:	9b02      	ldr	r3, [sp, #8]
 8003190:	3301      	adds	r3, #1
 8003192:	b29d      	uxth	r5, r3
 8003194:	b21b      	sxth	r3, r3
 8003196:	9302      	str	r3, [sp, #8]
		ddF_x += 2;
 8003198:	9a03      	ldr	r2, [sp, #12]
 800319a:	3202      	adds	r2, #2
 800319c:	b293      	uxth	r3, r2
 800319e:	b212      	sxth	r2, r2
 80031a0:	9203      	str	r2, [sp, #12]
		f += ddF_x;
 80031a2:	444b      	add	r3, r9
 80031a4:	fa0f f983 	sxth.w	r9, r3

		ST7789_DrawPixel(x0 + x, y0 + y, color);
 80031a8:	eb05 030b 	add.w	r3, r5, fp
 80031ac:	b29b      	uxth	r3, r3
 80031ae:	f8bd 4004 	ldrh.w	r4, [sp, #4]
 80031b2:	eb04 080a 	add.w	r8, r4, sl
 80031b6:	fa1f f888 	uxth.w	r8, r8
 80031ba:	4632      	mov	r2, r6
 80031bc:	4641      	mov	r1, r8
 80031be:	9304      	str	r3, [sp, #16]
 80031c0:	4618      	mov	r0, r3
 80031c2:	f7ff fee5 	bl	8002f90 <ST7789_DrawPixel>
		ST7789_DrawPixel(x0 - x, y0 + y, color);
 80031c6:	ebab 0705 	sub.w	r7, fp, r5
 80031ca:	b2bf      	uxth	r7, r7
 80031cc:	4632      	mov	r2, r6
 80031ce:	4641      	mov	r1, r8
 80031d0:	4638      	mov	r0, r7
 80031d2:	f7ff fedd 	bl	8002f90 <ST7789_DrawPixel>
		ST7789_DrawPixel(x0 + x, y0 - y, color);
 80031d6:	ebaa 0804 	sub.w	r8, sl, r4
 80031da:	fa1f f888 	uxth.w	r8, r8
 80031de:	4632      	mov	r2, r6
 80031e0:	4641      	mov	r1, r8
 80031e2:	9804      	ldr	r0, [sp, #16]
 80031e4:	f7ff fed4 	bl	8002f90 <ST7789_DrawPixel>
		ST7789_DrawPixel(x0 - x, y0 - y, color);
 80031e8:	4632      	mov	r2, r6
 80031ea:	4641      	mov	r1, r8
 80031ec:	4638      	mov	r0, r7
 80031ee:	f7ff fecf 	bl	8002f90 <ST7789_DrawPixel>

		ST7789_DrawPixel(x0 + y, y0 + x, color);
 80031f2:	eb04 070b 	add.w	r7, r4, fp
 80031f6:	b2bf      	uxth	r7, r7
 80031f8:	eb05 080a 	add.w	r8, r5, sl
 80031fc:	fa1f f888 	uxth.w	r8, r8
 8003200:	4632      	mov	r2, r6
 8003202:	4641      	mov	r1, r8
 8003204:	4638      	mov	r0, r7
 8003206:	f7ff fec3 	bl	8002f90 <ST7789_DrawPixel>
		ST7789_DrawPixel(x0 - y, y0 + x, color);
 800320a:	ebab 0404 	sub.w	r4, fp, r4
 800320e:	b2a4      	uxth	r4, r4
 8003210:	4632      	mov	r2, r6
 8003212:	4641      	mov	r1, r8
 8003214:	4620      	mov	r0, r4
 8003216:	f7ff febb 	bl	8002f90 <ST7789_DrawPixel>
		ST7789_DrawPixel(x0 + y, y0 - x, color);
 800321a:	ebaa 0505 	sub.w	r5, sl, r5
 800321e:	b2ad      	uxth	r5, r5
 8003220:	4632      	mov	r2, r6
 8003222:	4629      	mov	r1, r5
 8003224:	4638      	mov	r0, r7
 8003226:	f7ff feb3 	bl	8002f90 <ST7789_DrawPixel>
		ST7789_DrawPixel(x0 - y, y0 - x, color);
 800322a:	4632      	mov	r2, r6
 800322c:	4629      	mov	r1, r5
 800322e:	4620      	mov	r0, r4
 8003230:	f7ff feae 	bl	8002f90 <ST7789_DrawPixel>
	while (x < y) {
 8003234:	9b02      	ldr	r3, [sp, #8]
 8003236:	9a01      	ldr	r2, [sp, #4]
 8003238:	4293      	cmp	r3, r2
 800323a:	da03      	bge.n	8003244 <ST7789_DrawCircle+0x13c>
		if (f >= 0) {
 800323c:	f1b9 0f00 	cmp.w	r9, #0
 8003240:	da99      	bge.n	8003176 <ST7789_DrawCircle+0x6e>
 8003242:	e7a4      	b.n	800318e <ST7789_DrawCircle+0x86>
	}
	ST7789_UnSelect();
 8003244:	2201      	movs	r2, #1
 8003246:	f44f 6180 	mov.w	r1, #1024	@ 0x400
 800324a:	4803      	ldr	r0, [pc, #12]	@ (8003258 <ST7789_DrawCircle+0x150>)
 800324c:	f001 f937 	bl	80044be <HAL_GPIO_WritePin>
}
 8003250:	b007      	add	sp, #28
 8003252:	e8bd 8ff0 	ldmia.w	sp!, {r4, r5, r6, r7, r8, r9, sl, fp, pc}
 8003256:	bf00      	nop
 8003258:	40010800 	.word	0x40010800

0800325c <ST7789_DrawImage>:
 * @param data -> pointer of the Image array
 * @return none
 */
void ST7789_DrawImage(uint16_t x, uint16_t y, uint16_t w, uint16_t h, const uint16_t *data)
{
	if ((x >= ST7789_WIDTH) || (y >= ST7789_HEIGHT))
 800325c:	f5b0 7f8c 	cmp.w	r0, #280	@ 0x118
 8003260:	d231      	bcs.n	80032c6 <ST7789_DrawImage+0x6a>
{
 8003262:	e92d 41f0 	stmdb	sp!, {r4, r5, r6, r7, r8, lr}
 8003266:	4604      	mov	r4, r0
 8003268:	460d      	mov	r5, r1
 800326a:	4617      	mov	r7, r2
 800326c:	461e      	mov	r6, r3
	if ((x >= ST7789_WIDTH) || (y >= ST7789_HEIGHT))
 800326e:	29ef      	cmp	r1, #239	@ 0xef
 8003270:	d806      	bhi.n	8003280 <ST7789_DrawImage+0x24>
		return;
	if ((x + w - 1) >= ST7789_WIDTH)
 8003272:	1883      	adds	r3, r0, r2
 8003274:	f5b3 7f8c 	cmp.w	r3, #280	@ 0x118
 8003278:	dc02      	bgt.n	8003280 <ST7789_DrawImage+0x24>
		return;
	if ((y + h - 1) >= ST7789_HEIGHT)
 800327a:	198b      	adds	r3, r1, r6
 800327c:	2bf0      	cmp	r3, #240	@ 0xf0
 800327e:	dd01      	ble.n	8003284 <ST7789_DrawImage+0x28>

	ST7789_Select();
	ST7789_SetAddressWindow(x, y, x + w - 1, y + h - 1);
	ST7789_WriteData((uint8_t *)data, sizeof(uint16_t) * w * h);
	ST7789_UnSelect();
}
 8003280:	e8bd 81f0 	ldmia.w	sp!, {r4, r5, r6, r7, r8, pc}
	ST7789_Select();
 8003284:	f8df 8040 	ldr.w	r8, [pc, #64]	@ 80032c8 <ST7789_DrawImage+0x6c>
 8003288:	2200      	movs	r2, #0
 800328a:	f44f 6180 	mov.w	r1, #1024	@ 0x400
 800328e:	4640      	mov	r0, r8
 8003290:	f001 f915 	bl	80044be <HAL_GPIO_WritePin>
	ST7789_SetAddressWindow(x, y, x + w - 1, y + h - 1);
 8003294:	19e2      	adds	r2, r4, r7
 8003296:	b292      	uxth	r2, r2
 8003298:	19ab      	adds	r3, r5, r6
 800329a:	b29b      	uxth	r3, r3
 800329c:	3b01      	subs	r3, #1
 800329e:	3a01      	subs	r2, #1
 80032a0:	b29b      	uxth	r3, r3
 80032a2:	b292      	uxth	r2, r2
 80032a4:	4629      	mov	r1, r5
 80032a6:	4620      	mov	r0, r4
 80032a8:	f7ff fd62 	bl	8002d70 <ST7789_SetAddressWindow>
	ST7789_WriteData((uint8_t *)data, sizeof(uint16_t) * w * h);
 80032ac:	fb06 f107 	mul.w	r1, r6, r7
 80032b0:	0049      	lsls	r1, r1, #1
 80032b2:	9806      	ldr	r0, [sp, #24]
 80032b4:	f7ff fd12 	bl	8002cdc <ST7789_WriteData>
	ST7789_UnSelect();
 80032b8:	2201      	movs	r2, #1
 80032ba:	f44f 6180 	mov.w	r1, #1024	@ 0x400
 80032be:	4640      	mov	r0, r8
 80032c0:	f001 f8fd 	bl	80044be <HAL_GPIO_WritePin>
 80032c4:	e7dc      	b.n	8003280 <ST7789_DrawImage+0x24>
 80032c6:	4770      	bx	lr
 80032c8:	40010800 	.word	0x40010800

080032cc <ST7789_InvertColors>:
 * @brief Invert Fullscreen color
 * @param invert -> Whether to invert
 * @return none
 */
void ST7789_InvertColors(uint8_t invert)
{
 80032cc:	b510      	push	{r4, lr}
 80032ce:	4604      	mov	r4, r0
	ST7789_Select();
 80032d0:	2200      	movs	r2, #0
 80032d2:	f44f 6180 	mov.w	r1, #1024	@ 0x400
 80032d6:	4808      	ldr	r0, [pc, #32]	@ (80032f8 <ST7789_InvertColors+0x2c>)
 80032d8:	f001 f8f1 	bl	80044be <HAL_GPIO_WritePin>
	ST7789_WriteCommand(invert ? 0x21 /* INVON */ : 0x20 /* INVOFF */);
 80032dc:	b14c      	cbz	r4, 80032f2 <ST7789_InvertColors+0x26>
 80032de:	2021      	movs	r0, #33	@ 0x21
 80032e0:	f7ff fcd6 	bl	8002c90 <ST7789_WriteCommand>
	ST7789_UnSelect();
 80032e4:	2201      	movs	r2, #1
 80032e6:	f44f 6180 	mov.w	r1, #1024	@ 0x400
 80032ea:	4803      	ldr	r0, [pc, #12]	@ (80032f8 <ST7789_InvertColors+0x2c>)
 80032ec:	f001 f8e7 	bl	80044be <HAL_GPIO_WritePin>
}
 80032f0:	bd10      	pop	{r4, pc}
	ST7789_WriteCommand(invert ? 0x21 /* INVON */ : 0x20 /* INVOFF */);
 80032f2:	2020      	movs	r0, #32
 80032f4:	e7f4      	b.n	80032e0 <ST7789_InvertColors+0x14>
 80032f6:	bf00      	nop
 80032f8:	40010800 	.word	0x40010800

080032fc <ST7789_WriteChar>:
 * @param color -> color of the char
 * @param bgcolor -> background color of the char
 * @return  none
 */
void ST7789_WriteChar(uint16_t x, uint16_t y, char ch, FontDef font, uint16_t color, uint16_t bgcolor)
{
 80032fc:	b082      	sub	sp, #8
 80032fe:	e92d 4ff0 	stmdb	sp!, {r4, r5, r6, r7, r8, r9, sl, fp, lr}
 8003302:	b083      	sub	sp, #12
 8003304:	4604      	mov	r4, r0
 8003306:	460e      	mov	r6, r1
 8003308:	4693      	mov	fp, r2
 800330a:	930d      	str	r3, [sp, #52]	@ 0x34
 800330c:	f8bd 803c 	ldrh.w	r8, [sp, #60]	@ 0x3c
 8003310:	f8bd 7040 	ldrh.w	r7, [sp, #64]	@ 0x40
	uint32_t i, b, j;
	ST7789_Select();
 8003314:	2200      	movs	r2, #0
 8003316:	f44f 6180 	mov.w	r1, #1024	@ 0x400
 800331a:	4825      	ldr	r0, [pc, #148]	@ (80033b0 <ST7789_WriteChar+0xb4>)
 800331c:	f001 f8cf 	bl	80044be <HAL_GPIO_WritePin>
	ST7789_SetAddressWindow(x, y, x + font.width - 1, y + font.height - 1);
 8003320:	f89d 5034 	ldrb.w	r5, [sp, #52]	@ 0x34
 8003324:	192a      	adds	r2, r5, r4
 8003326:	b292      	uxth	r2, r2
 8003328:	f89d a035 	ldrb.w	sl, [sp, #53]	@ 0x35
 800332c:	eb0a 0306 	add.w	r3, sl, r6
 8003330:	b29b      	uxth	r3, r3
 8003332:	3b01      	subs	r3, #1
 8003334:	3a01      	subs	r2, #1
 8003336:	b29b      	uxth	r3, r3
 8003338:	b292      	uxth	r2, r2
 800333a:	4631      	mov	r1, r6
 800333c:	4620      	mov	r0, r4
 800333e:	f7ff fd17 	bl	8002d70 <ST7789_SetAddressWindow>

	for (i = 0; i < font.height; i++) {
 8003342:	f04f 0900 	mov.w	r9, #0
 8003346:	e01d      	b.n	8003384 <ST7789_WriteChar+0x88>
			if ((b << j) & 0x8000) {
				uint8_t data[] = {color >> 8, color & 0xFF};
				ST7789_WriteData(data, sizeof(data));
			}
			else {
				uint8_t data[] = {bgcolor >> 8, bgcolor & 0xFF};
 8003348:	0a3b      	lsrs	r3, r7, #8
 800334a:	f88d 3004 	strb.w	r3, [sp, #4]
 800334e:	f88d 7005 	strb.w	r7, [sp, #5]
				ST7789_WriteData(data, sizeof(data));
 8003352:	2102      	movs	r1, #2
 8003354:	a801      	add	r0, sp, #4
 8003356:	f7ff fcc1 	bl	8002cdc <ST7789_WriteData>
		for (j = 0; j < font.width; j++) {
 800335a:	3401      	adds	r4, #1
 800335c:	42a5      	cmp	r5, r4
 800335e:	d90f      	bls.n	8003380 <ST7789_WriteChar+0x84>
			if ((b << j) & 0x8000) {
 8003360:	fa06 f304 	lsl.w	r3, r6, r4
 8003364:	f413 4f00 	tst.w	r3, #32768	@ 0x8000
 8003368:	d0ee      	beq.n	8003348 <ST7789_WriteChar+0x4c>
				uint8_t data[] = {color >> 8, color & 0xFF};
 800336a:	ea4f 2318 	mov.w	r3, r8, lsr #8
 800336e:	f88d 3004 	strb.w	r3, [sp, #4]
 8003372:	f88d 8005 	strb.w	r8, [sp, #5]
				ST7789_WriteData(data, sizeof(data));
 8003376:	2102      	movs	r1, #2
 8003378:	a801      	add	r0, sp, #4
 800337a:	f7ff fcaf 	bl	8002cdc <ST7789_WriteData>
 800337e:	e7ec      	b.n	800335a <ST7789_WriteChar+0x5e>
	for (i = 0; i < font.height; i++) {
 8003380:	f109 0901 	add.w	r9, r9, #1
 8003384:	45ca      	cmp	sl, r9
 8003386:	d908      	bls.n	800339a <ST7789_WriteChar+0x9e>
		b = font.data[(ch - 32) * font.height + i];
 8003388:	f1ab 0320 	sub.w	r3, fp, #32
 800338c:	fb0a 9303 	mla	r3, sl, r3, r9
 8003390:	9a0e      	ldr	r2, [sp, #56]	@ 0x38
 8003392:	f832 6013 	ldrh.w	r6, [r2, r3, lsl #1]
		for (j = 0; j < font.width; j++) {
 8003396:	2400      	movs	r4, #0
 8003398:	e7e0      	b.n	800335c <ST7789_WriteChar+0x60>
			}
		}
	}
	ST7789_UnSelect();
 800339a:	2201      	movs	r2, #1
 800339c:	f44f 6180 	mov.w	r1, #1024	@ 0x400
 80033a0:	4803      	ldr	r0, [pc, #12]	@ (80033b0 <ST7789_WriteChar+0xb4>)
 80033a2:	f001 f88c 	bl	80044be <HAL_GPIO_WritePin>
}
 80033a6:	b003      	add	sp, #12
 80033a8:	e8bd 4ff0 	ldmia.w	sp!, {r4, r5, r6, r7, r8, r9, sl, fp, lr}
 80033ac:	b002      	add	sp, #8
 80033ae:	4770      	bx	lr
 80033b0:	40010800 	.word	0x40010800

080033b4 <ST7789_WriteString>:
 * @param color -> color of the string
 * @param bgcolor -> background color of the string
 * @return  none
 */
void ST7789_WriteString(uint16_t x, uint16_t y, const char *str, FontDef font, uint16_t color, uint16_t bgcolor)
{
 80033b4:	b082      	sub	sp, #8
 80033b6:	e92d 43f0 	stmdb	sp!, {r4, r5, r6, r7, r8, r9, lr}
 80033ba:	b085      	sub	sp, #20
 80033bc:	4606      	mov	r6, r0
 80033be:	460d      	mov	r5, r1
 80033c0:	4617      	mov	r7, r2
 80033c2:	930d      	str	r3, [sp, #52]	@ 0x34
 80033c4:	f8bd 903c 	ldrh.w	r9, [sp, #60]	@ 0x3c
 80033c8:	f8bd 8040 	ldrh.w	r8, [sp, #64]	@ 0x40
	ST7789_Select();
 80033cc:	2200      	movs	r2, #0
 80033ce:	f44f 6180 	mov.w	r1, #1024	@ 0x400
 80033d2:	4819      	ldr	r0, [pc, #100]	@ (8003438 <ST7789_WriteString+0x84>)
 80033d4:	f001 f873 	bl	80044be <HAL_GPIO_WritePin>
	while (*str) {
 80033d8:	e010      	b.n	80033fc <ST7789_WriteString+0x48>
				break;
			}

			if (*str == ' ') {
				// skip spaces in the beginning of the new line
				str++;
 80033da:	3701      	adds	r7, #1
			x = 0;
 80033dc:	2600      	movs	r6, #0
				continue;
 80033de:	e00d      	b.n	80033fc <ST7789_WriteString+0x48>
			}
		}
		ST7789_WriteChar(x, y, *str, font, color, bgcolor);
 80033e0:	f8cd 8008 	str.w	r8, [sp, #8]
 80033e4:	f8cd 9004 	str.w	r9, [sp, #4]
 80033e8:	9b0e      	ldr	r3, [sp, #56]	@ 0x38
 80033ea:	9300      	str	r3, [sp, #0]
 80033ec:	9b0d      	ldr	r3, [sp, #52]	@ 0x34
 80033ee:	4629      	mov	r1, r5
 80033f0:	4630      	mov	r0, r6
 80033f2:	f7ff ff83 	bl	80032fc <ST7789_WriteChar>
		x += font.width;
 80033f6:	4434      	add	r4, r6
 80033f8:	b2a6      	uxth	r6, r4
		str++;
 80033fa:	3701      	adds	r7, #1
	while (*str) {
 80033fc:	783a      	ldrb	r2, [r7, #0]
 80033fe:	b182      	cbz	r2, 8003422 <ST7789_WriteString+0x6e>
		if (x + font.width >= ST7789_WIDTH) {
 8003400:	f89d 4034 	ldrb.w	r4, [sp, #52]	@ 0x34
 8003404:	1933      	adds	r3, r6, r4
 8003406:	f5b3 7f8c 	cmp.w	r3, #280	@ 0x118
 800340a:	dbe9      	blt.n	80033e0 <ST7789_WriteString+0x2c>
			y += font.height;
 800340c:	f89d 3035 	ldrb.w	r3, [sp, #53]	@ 0x35
 8003410:	441d      	add	r5, r3
 8003412:	b2ad      	uxth	r5, r5
			if (y + font.height >= ST7789_HEIGHT) {
 8003414:	442b      	add	r3, r5
 8003416:	2bef      	cmp	r3, #239	@ 0xef
 8003418:	dc03      	bgt.n	8003422 <ST7789_WriteString+0x6e>
			if (*str == ' ') {
 800341a:	2a20      	cmp	r2, #32
 800341c:	d0dd      	beq.n	80033da <ST7789_WriteString+0x26>
			x = 0;
 800341e:	2600      	movs	r6, #0
 8003420:	e7de      	b.n	80033e0 <ST7789_WriteString+0x2c>
	}
	ST7789_UnSelect();
 8003422:	2201      	movs	r2, #1
 8003424:	f44f 6180 	mov.w	r1, #1024	@ 0x400
 8003428:	4803      	ldr	r0, [pc, #12]	@ (8003438 <ST7789_WriteString+0x84>)
 800342a:	f001 f848 	bl	80044be <HAL_GPIO_WritePin>
}
 800342e:	b005      	add	sp, #20
 8003430:	e8bd 43f0 	ldmia.w	sp!, {r4, r5, r6, r7, r8, r9, lr}
 8003434:	b002      	add	sp, #8
 8003436:	4770      	bx	lr
 8003438:	40010800 	.word	0x40010800

0800343c <ST7789_DrawFilledRectangle>:
 * @param w&h -> width & height of the Rectangle
 * @param color -> color of the Rectangle
 * @return  none
 */
void ST7789_DrawFilledRectangle(uint16_t x, uint16_t y, uint16_t w, uint16_t h, uint16_t color)
{
 800343c:	e92d 43f0 	stmdb	sp!, {r4, r5, r6, r7, r8, r9, lr}
 8003440:	b083      	sub	sp, #12
 8003442:	4605      	mov	r5, r0
 8003444:	460f      	mov	r7, r1
 8003446:	4690      	mov	r8, r2
 8003448:	461e      	mov	r6, r3
 800344a:	f8bd 9028 	ldrh.w	r9, [sp, #40]	@ 0x28
	ST7789_Select();
 800344e:	2200      	movs	r2, #0
 8003450:	f44f 6180 	mov.w	r1, #1024	@ 0x400
 8003454:	4818      	ldr	r0, [pc, #96]	@ (80034b8 <ST7789_DrawFilledRectangle+0x7c>)
 8003456:	f001 f832 	bl	80044be <HAL_GPIO_WritePin>
	uint8_t i;

	/* Check input parameters */
	if (x >= ST7789_WIDTH ||
 800345a:	f5b5 7f8c 	cmp.w	r5, #280	@ 0x118
 800345e:	d227      	bcs.n	80034b0 <ST7789_DrawFilledRectangle+0x74>
 8003460:	2fef      	cmp	r7, #239	@ 0xef
 8003462:	d825      	bhi.n	80034b0 <ST7789_DrawFilledRectangle+0x74>
		/* Return error */
		return;
	}

	/* Check width and height */
	if ((x + w) >= ST7789_WIDTH) {
 8003464:	eb05 0308 	add.w	r3, r5, r8
 8003468:	f5b3 7f8c 	cmp.w	r3, #280	@ 0x118
 800346c:	db03      	blt.n	8003476 <ST7789_DrawFilledRectangle+0x3a>
		w = ST7789_WIDTH - x;
 800346e:	f5c5 788c 	rsb	r8, r5, #280	@ 0x118
 8003472:	fa1f f888 	uxth.w	r8, r8
	}
	if ((y + h) >= ST7789_HEIGHT) {
 8003476:	19bb      	adds	r3, r7, r6
 8003478:	2bef      	cmp	r3, #239	@ 0xef
 800347a:	dd02      	ble.n	8003482 <ST7789_DrawFilledRectangle+0x46>
		h = ST7789_HEIGHT - y;
 800347c:	f1c7 06f0 	rsb	r6, r7, #240	@ 0xf0
 8003480:	b2b6      	uxth	r6, r6
	}

	/* Draw lines */
	for (i = 0; i <= h; i++) {
 8003482:	2400      	movs	r4, #0
 8003484:	e00c      	b.n	80034a0 <ST7789_DrawFilledRectangle+0x64>
		/* Draw lines */
		ST7789_DrawLine(x, y + i, x + w, y + i, color);
 8003486:	19e1      	adds	r1, r4, r7
 8003488:	b289      	uxth	r1, r1
 800348a:	eb08 0205 	add.w	r2, r8, r5
 800348e:	f8cd 9000 	str.w	r9, [sp]
 8003492:	460b      	mov	r3, r1
 8003494:	b292      	uxth	r2, r2
 8003496:	4628      	mov	r0, r5
 8003498:	f7ff fda2 	bl	8002fe0 <ST7789_DrawLine>
	for (i = 0; i <= h; i++) {
 800349c:	3401      	adds	r4, #1
 800349e:	b2e4      	uxtb	r4, r4
 80034a0:	42b4      	cmp	r4, r6
 80034a2:	d9f0      	bls.n	8003486 <ST7789_DrawFilledRectangle+0x4a>
	}
	ST7789_UnSelect();
 80034a4:	2201      	movs	r2, #1
 80034a6:	f44f 6180 	mov.w	r1, #1024	@ 0x400
 80034aa:	4803      	ldr	r0, [pc, #12]	@ (80034b8 <ST7789_DrawFilledRectangle+0x7c>)
 80034ac:	f001 f807 	bl	80044be <HAL_GPIO_WritePin>
}
 80034b0:	b003      	add	sp, #12
 80034b2:	e8bd 83f0 	ldmia.w	sp!, {r4, r5, r6, r7, r8, r9, pc}
 80034b6:	bf00      	nop
 80034b8:	40010800 	.word	0x40010800

080034bc <ST7789_DrawTriangle>:
 * @param  xi&yi -> 3 coordinates of 3 top points.
 * @param color ->color of the lines
 * @return  none
 */
void ST7789_DrawTriangle(uint16_t x1, uint16_t y1, uint16_t x2, uint16_t y2, uint16_t x3, uint16_t y3, uint16_t color)
{
 80034bc:	e92d 4ff0 	stmdb	sp!, {r4, r5, r6, r7, r8, r9, sl, fp, lr}
 80034c0:	b083      	sub	sp, #12
 80034c2:	4604      	mov	r4, r0
 80034c4:	460d      	mov	r5, r1
 80034c6:	4616      	mov	r6, r2
 80034c8:	461f      	mov	r7, r3
 80034ca:	f8bd a030 	ldrh.w	sl, [sp, #48]	@ 0x30
 80034ce:	f8bd b034 	ldrh.w	fp, [sp, #52]	@ 0x34
 80034d2:	f8bd 8038 	ldrh.w	r8, [sp, #56]	@ 0x38
	ST7789_Select();
 80034d6:	f8df 9050 	ldr.w	r9, [pc, #80]	@ 8003528 <ST7789_DrawTriangle+0x6c>
 80034da:	2200      	movs	r2, #0
 80034dc:	f44f 6180 	mov.w	r1, #1024	@ 0x400
 80034e0:	4648      	mov	r0, r9
 80034e2:	f000 ffec 	bl	80044be <HAL_GPIO_WritePin>
	/* Draw lines */
	ST7789_DrawLine(x1, y1, x2, y2, color);
 80034e6:	f8cd 8000 	str.w	r8, [sp]
 80034ea:	463b      	mov	r3, r7
 80034ec:	4632      	mov	r2, r6
 80034ee:	4629      	mov	r1, r5
 80034f0:	4620      	mov	r0, r4
 80034f2:	f7ff fd75 	bl	8002fe0 <ST7789_DrawLine>
	ST7789_DrawLine(x2, y2, x3, y3, color);
 80034f6:	f8cd 8000 	str.w	r8, [sp]
 80034fa:	465b      	mov	r3, fp
 80034fc:	4652      	mov	r2, sl
 80034fe:	4639      	mov	r1, r7
 8003500:	4630      	mov	r0, r6
 8003502:	f7ff fd6d 	bl	8002fe0 <ST7789_DrawLine>
	ST7789_DrawLine(x3, y3, x1, y1, color);
 8003506:	f8cd 8000 	str.w	r8, [sp]
 800350a:	462b      	mov	r3, r5
 800350c:	4622      	mov	r2, r4
 800350e:	4659      	mov	r1, fp
 8003510:	4650      	mov	r0, sl
 8003512:	f7ff fd65 	bl	8002fe0 <ST7789_DrawLine>
	ST7789_UnSelect();
 8003516:	2201      	movs	r2, #1
 8003518:	f44f 6180 	mov.w	r1, #1024	@ 0x400
 800351c:	4648      	mov	r0, r9
 800351e:	f000 ffce 	bl	80044be <HAL_GPIO_WritePin>
}
 8003522:	b003      	add	sp, #12
 8003524:	e8bd 8ff0 	ldmia.w	sp!, {r4, r5, r6, r7, r8, r9, sl, fp, pc}
 8003528:	40010800 	.word	0x40010800

0800352c <ST7789_DrawFilledTriangle>:
 * @param  xi&yi -> 3 coordinates of 3 top points.
 * @param color ->color of the triangle
 * @return  none
 */
void ST7789_DrawFilledTriangle(uint16_t x1, uint16_t y1, uint16_t x2, uint16_t y2, uint16_t x3, uint16_t y3, uint16_t color)
{
 800352c:	e92d 4ff0 	stmdb	sp!, {r4, r5, r6, r7, r8, r9, sl, fp, lr}
 8003530:	b08b      	sub	sp, #44	@ 0x2c
 8003532:	4607      	mov	r7, r0
 8003534:	460d      	mov	r5, r1
 8003536:	4691      	mov	r9, r2
 8003538:	4698      	mov	r8, r3
 800353a:	f8bd 3050 	ldrh.w	r3, [sp, #80]	@ 0x50
 800353e:	9305      	str	r3, [sp, #20]
 8003540:	f8bd 3054 	ldrh.w	r3, [sp, #84]	@ 0x54
 8003544:	9306      	str	r3, [sp, #24]
 8003546:	f8bd 3058 	ldrh.w	r3, [sp, #88]	@ 0x58
 800354a:	9307      	str	r3, [sp, #28]
	ST7789_Select();
 800354c:	2200      	movs	r2, #0
 800354e:	f44f 6180 	mov.w	r1, #1024	@ 0x400
 8003552:	4838      	ldr	r0, [pc, #224]	@ (8003634 <ST7789_DrawFilledTriangle+0x108>)
 8003554:	f000 ffb3 	bl	80044be <HAL_GPIO_WritePin>
	int16_t deltax = 0, deltay = 0, x = 0, y = 0, xinc1 = 0, xinc2 = 0,
			yinc1 = 0, yinc2 = 0, den = 0, num = 0, numadd = 0, numpixels = 0,
			curpixel = 0;

	deltax = ABS(x2 - x1);
 8003558:	eba9 0a07 	sub.w	sl, r9, r7
 800355c:	f1ba 0f00 	cmp.w	sl, #0
 8003560:	bfb8      	it	lt
 8003562:	f1ca 0a00 	rsblt	sl, sl, #0
 8003566:	fa0f fa8a 	sxth.w	sl, sl
	deltay = ABS(y2 - y1);
 800356a:	eba8 0205 	sub.w	r2, r8, r5
 800356e:	2a00      	cmp	r2, #0
 8003570:	bfb8      	it	lt
 8003572:	4252      	neglt	r2, r2
 8003574:	fa0f fb82 	sxth.w	fp, r2
	x = x1;
 8003578:	b23c      	sxth	r4, r7
	y = y1;
 800357a:	b22e      	sxth	r6, r5

	if (x2 >= x1) {
 800357c:	45b9      	cmp	r9, r7
 800357e:	d313      	bcc.n	80035a8 <ST7789_DrawFilledTriangle+0x7c>
		xinc1 = 1;
 8003580:	2301      	movs	r3, #1
 8003582:	9308      	str	r3, [sp, #32]
	else {
		xinc1 = -1;
		xinc2 = -1;
	}

	if (y2 >= y1) {
 8003584:	45a8      	cmp	r8, r5
 8003586:	d313      	bcc.n	80035b0 <ST7789_DrawFilledTriangle+0x84>
		yinc1 = 1;
 8003588:	2301      	movs	r3, #1
 800358a:	9309      	str	r3, [sp, #36]	@ 0x24
	else {
		yinc1 = -1;
		yinc2 = -1;
	}

	if (deltax >= deltay) {
 800358c:	45da      	cmp	sl, fp
 800358e:	db13      	blt.n	80035b8 <ST7789_DrawFilledTriangle+0x8c>
		xinc1 = 0;
		yinc2 = 0;
		den = deltax;
		num = deltax / 2;
 8003590:	eb0a 78da 	add.w	r8, sl, sl, lsr #31
 8003594:	f348 084f 	sbfx	r8, r8, #1, #16
		numadd = deltay;
		numpixels = deltax;
 8003598:	9b08      	ldr	r3, [sp, #32]
 800359a:	9303      	str	r3, [sp, #12]
		yinc2 = 0;
 800359c:	2300      	movs	r3, #0
 800359e:	9308      	str	r3, [sp, #32]
		xinc1 = 0;
 80035a0:	9304      	str	r3, [sp, #16]
		num = deltay / 2;
		numadd = deltax;
		numpixels = deltay;
	}

	for (curpixel = 0; curpixel <= numpixels; curpixel++) {
 80035a2:	f04f 0900 	mov.w	r9, #0
 80035a6:	e01e      	b.n	80035e6 <ST7789_DrawFilledTriangle+0xba>
		xinc1 = -1;
 80035a8:	f04f 33ff 	mov.w	r3, #4294967295
 80035ac:	9308      	str	r3, [sp, #32]
 80035ae:	e7e9      	b.n	8003584 <ST7789_DrawFilledTriangle+0x58>
		yinc1 = -1;
 80035b0:	f04f 33ff 	mov.w	r3, #4294967295
 80035b4:	9309      	str	r3, [sp, #36]	@ 0x24
 80035b6:	e7e9      	b.n	800358c <ST7789_DrawFilledTriangle+0x60>
		num = deltay / 2;
 80035b8:	eb0b 78db 	add.w	r8, fp, fp, lsr #31
 80035bc:	f348 084f 	sbfx	r8, r8, #1, #16
 80035c0:	4653      	mov	r3, sl
		den = deltay;
 80035c2:	46da      	mov	sl, fp
		numadd = deltax;
 80035c4:	469b      	mov	fp, r3
		num = deltay / 2;
 80035c6:	9b09      	ldr	r3, [sp, #36]	@ 0x24
 80035c8:	9304      	str	r3, [sp, #16]
		yinc1 = 0;
 80035ca:	2300      	movs	r3, #0
 80035cc:	9309      	str	r3, [sp, #36]	@ 0x24
		xinc2 = 0;
 80035ce:	9303      	str	r3, [sp, #12]
 80035d0:	e7e7      	b.n	80035a2 <ST7789_DrawFilledTriangle+0x76>
		if (num >= den) {
			num -= den;
			x += xinc1;
			y += yinc1;
		}
		x += xinc2;
 80035d2:	9b03      	ldr	r3, [sp, #12]
 80035d4:	441c      	add	r4, r3
 80035d6:	b224      	sxth	r4, r4
		y += yinc2;
 80035d8:	9b04      	ldr	r3, [sp, #16]
 80035da:	441e      	add	r6, r3
 80035dc:	b236      	sxth	r6, r6
	for (curpixel = 0; curpixel <= numpixels; curpixel++) {
 80035de:	f109 0901 	add.w	r9, r9, #1
 80035e2:	fa0f f989 	sxth.w	r9, r9
 80035e6:	45ca      	cmp	sl, r9
 80035e8:	db1b      	blt.n	8003622 <ST7789_DrawFilledTriangle+0xf6>
		ST7789_DrawLine(x, y, x3, y3, color);
 80035ea:	b2a7      	uxth	r7, r4
 80035ec:	b2b5      	uxth	r5, r6
 80035ee:	9b07      	ldr	r3, [sp, #28]
 80035f0:	9300      	str	r3, [sp, #0]
 80035f2:	9b06      	ldr	r3, [sp, #24]
 80035f4:	9a05      	ldr	r2, [sp, #20]
 80035f6:	4629      	mov	r1, r5
 80035f8:	4638      	mov	r0, r7
 80035fa:	f7ff fcf1 	bl	8002fe0 <ST7789_DrawLine>
		num += numadd;
 80035fe:	44d8      	add	r8, fp
 8003600:	fa1f f388 	uxth.w	r3, r8
 8003604:	fa0f f888 	sxth.w	r8, r8
		if (num >= den) {
 8003608:	45c2      	cmp	sl, r8
 800360a:	dce2      	bgt.n	80035d2 <ST7789_DrawFilledTriangle+0xa6>
			num -= den;
 800360c:	eba3 030a 	sub.w	r3, r3, sl
 8003610:	fa0f f883 	sxth.w	r8, r3
			x += xinc1;
 8003614:	9b08      	ldr	r3, [sp, #32]
 8003616:	441f      	add	r7, r3
 8003618:	b23c      	sxth	r4, r7
			y += yinc1;
 800361a:	9b09      	ldr	r3, [sp, #36]	@ 0x24
 800361c:	441d      	add	r5, r3
 800361e:	b22e      	sxth	r6, r5
 8003620:	e7d7      	b.n	80035d2 <ST7789_DrawFilledTriangle+0xa6>
	}
	ST7789_UnSelect();
 8003622:	2201      	movs	r2, #1
 8003624:	f44f 6180 	mov.w	r1, #1024	@ 0x400
 8003628:	4802      	ldr	r0, [pc, #8]	@ (8003634 <ST7789_DrawFilledTriangle+0x108>)
 800362a:	f000 ff48 	bl	80044be <HAL_GPIO_WritePin>
}
 800362e:	b00b      	add	sp, #44	@ 0x2c
 8003630:	e8bd 8ff0 	ldmia.w	sp!, {r4, r5, r6, r7, r8, r9, sl, fp, pc}
 8003634:	40010800 	.word	0x40010800

08003638 <ST7789_DrawFilledCircle>:
 * @param r -> radius of circle
 * @param color -> color of circle
 * @return  none
 */
void ST7789_DrawFilledCircle(int16_t x0, int16_t y0, int16_t r, uint16_t color)
{
 8003638:	e92d 4ff0 	stmdb	sp!, {r4, r5, r6, r7, r8, r9, sl, fp, lr}
 800363c:	b087      	sub	sp, #28
 800363e:	4680      	mov	r8, r0
 8003640:	460f      	mov	r7, r1
 8003642:	4614      	mov	r4, r2
 8003644:	9202      	str	r2, [sp, #8]
 8003646:	469b      	mov	fp, r3
	ST7789_Select();
 8003648:	2200      	movs	r2, #0
 800364a:	f44f 6180 	mov.w	r1, #1024	@ 0x400
 800364e:	484a      	ldr	r0, [pc, #296]	@ (8003778 <ST7789_DrawFilledCircle+0x140>)
 8003650:	f000 ff35 	bl	80044be <HAL_GPIO_WritePin>
	int16_t f = 1 - r;
 8003654:	b2a5      	uxth	r5, r4
 8003656:	f1c5 0401 	rsb	r4, r5, #1
 800365a:	b224      	sxth	r4, r4
	int16_t ddF_x = 1;
	int16_t ddF_y = -2 * r;
 800365c:	ebc5 33c5 	rsb	r3, r5, r5, lsl #15
 8003660:	005b      	lsls	r3, r3, #1
 8003662:	b21b      	sxth	r3, r3
 8003664:	9305      	str	r3, [sp, #20]
	int16_t x = 0;
	int16_t y = r;

	ST7789_DrawPixel(x0, y0 + r, color);
 8003666:	fa1f f888 	uxth.w	r8, r8
 800366a:	b2bf      	uxth	r7, r7
 800366c:	19e9      	adds	r1, r5, r7
 800366e:	465a      	mov	r2, fp
 8003670:	b289      	uxth	r1, r1
 8003672:	4640      	mov	r0, r8
 8003674:	f7ff fc8c 	bl	8002f90 <ST7789_DrawPixel>
	ST7789_DrawPixel(x0, y0 - r, color);
 8003678:	1b79      	subs	r1, r7, r5
 800367a:	465a      	mov	r2, fp
 800367c:	b289      	uxth	r1, r1
 800367e:	4640      	mov	r0, r8
 8003680:	f7ff fc86 	bl	8002f90 <ST7789_DrawPixel>
	ST7789_DrawPixel(x0 + r, y0, color);
 8003684:	eb05 0608 	add.w	r6, r5, r8
 8003688:	b2b6      	uxth	r6, r6
 800368a:	465a      	mov	r2, fp
 800368c:	4639      	mov	r1, r7
 800368e:	4630      	mov	r0, r6
 8003690:	f7ff fc7e 	bl	8002f90 <ST7789_DrawPixel>
	ST7789_DrawPixel(x0 - r, y0, color);
 8003694:	eba8 0505 	sub.w	r5, r8, r5
 8003698:	b2ad      	uxth	r5, r5
 800369a:	465a      	mov	r2, fp
 800369c:	4639      	mov	r1, r7
 800369e:	4628      	mov	r0, r5
 80036a0:	f7ff fc76 	bl	8002f90 <ST7789_DrawPixel>
	ST7789_DrawLine(x0 - r, y0, x0 + r, y0, color);
 80036a4:	f8cd b000 	str.w	fp, [sp]
 80036a8:	463b      	mov	r3, r7
 80036aa:	4632      	mov	r2, r6
 80036ac:	4639      	mov	r1, r7
 80036ae:	4628      	mov	r0, r5
 80036b0:	f7ff fc96 	bl	8002fe0 <ST7789_DrawLine>
	int16_t x = 0;
 80036b4:	2300      	movs	r3, #0
 80036b6:	9303      	str	r3, [sp, #12]
	int16_t ddF_x = 1;
 80036b8:	2301      	movs	r3, #1
 80036ba:	9304      	str	r3, [sp, #16]

	while (x < y) {
 80036bc:	e04b      	b.n	8003756 <ST7789_DrawFilledCircle+0x11e>
		if (f >= 0) {
			y--;
 80036be:	9b02      	ldr	r3, [sp, #8]
 80036c0:	3b01      	subs	r3, #1
 80036c2:	b21b      	sxth	r3, r3
 80036c4:	9302      	str	r3, [sp, #8]
			ddF_y += 2;
 80036c6:	9a05      	ldr	r2, [sp, #20]
 80036c8:	3202      	adds	r2, #2
 80036ca:	b293      	uxth	r3, r2
 80036cc:	b212      	sxth	r2, r2
 80036ce:	9205      	str	r2, [sp, #20]
			f += ddF_y;
 80036d0:	4423      	add	r3, r4
 80036d2:	b21c      	sxth	r4, r3
		}
		x++;
 80036d4:	9b03      	ldr	r3, [sp, #12]
 80036d6:	3301      	adds	r3, #1
 80036d8:	b29d      	uxth	r5, r3
 80036da:	b21b      	sxth	r3, r3
 80036dc:	9303      	str	r3, [sp, #12]
		ddF_x += 2;
 80036de:	9a04      	ldr	r2, [sp, #16]
 80036e0:	3202      	adds	r2, #2
 80036e2:	b293      	uxth	r3, r2
 80036e4:	b212      	sxth	r2, r2
 80036e6:	9204      	str	r2, [sp, #16]
		f += ddF_x;
 80036e8:	4423      	add	r3, r4
 80036ea:	b21c      	sxth	r4, r3

		ST7789_DrawLine(x0 - x, y0 + y, x0 + x, y0 + y, color);
 80036ec:	eba8 0a05 	sub.w	sl, r8, r5
 80036f0:	fa1f fa8a 	uxth.w	sl, sl
 80036f4:	f8bd 6008 	ldrh.w	r6, [sp, #8]
 80036f8:	19b9      	adds	r1, r7, r6
 80036fa:	b289      	uxth	r1, r1
 80036fc:	eb08 0905 	add.w	r9, r8, r5
 8003700:	fa1f f989 	uxth.w	r9, r9
 8003704:	f8cd b000 	str.w	fp, [sp]
 8003708:	460b      	mov	r3, r1
 800370a:	464a      	mov	r2, r9
 800370c:	4650      	mov	r0, sl
 800370e:	f7ff fc67 	bl	8002fe0 <ST7789_DrawLine>
		ST7789_DrawLine(x0 + x, y0 - y, x0 - x, y0 - y, color);
 8003712:	1bb9      	subs	r1, r7, r6
 8003714:	b289      	uxth	r1, r1
 8003716:	f8cd b000 	str.w	fp, [sp]
 800371a:	460b      	mov	r3, r1
 800371c:	4652      	mov	r2, sl
 800371e:	4648      	mov	r0, r9
 8003720:	f7ff fc5e 	bl	8002fe0 <ST7789_DrawLine>

		ST7789_DrawLine(x0 + y, y0 + x, x0 - y, y0 + x, color);
 8003724:	eb08 0906 	add.w	r9, r8, r6
 8003728:	fa1f f989 	uxth.w	r9, r9
 800372c:	1979      	adds	r1, r7, r5
 800372e:	b289      	uxth	r1, r1
 8003730:	eba8 0606 	sub.w	r6, r8, r6
 8003734:	b2b6      	uxth	r6, r6
 8003736:	f8cd b000 	str.w	fp, [sp]
 800373a:	460b      	mov	r3, r1
 800373c:	4632      	mov	r2, r6
 800373e:	4648      	mov	r0, r9
 8003740:	f7ff fc4e 	bl	8002fe0 <ST7789_DrawLine>
		ST7789_DrawLine(x0 + y, y0 - x, x0 - y, y0 - x, color);
 8003744:	1b79      	subs	r1, r7, r5
 8003746:	b289      	uxth	r1, r1
 8003748:	f8cd b000 	str.w	fp, [sp]
 800374c:	460b      	mov	r3, r1
 800374e:	4632      	mov	r2, r6
 8003750:	4648      	mov	r0, r9
 8003752:	f7ff fc45 	bl	8002fe0 <ST7789_DrawLine>
	while (x < y) {
 8003756:	9b03      	ldr	r3, [sp, #12]
 8003758:	9a02      	ldr	r2, [sp, #8]
 800375a:	4293      	cmp	r3, r2
 800375c:	da02      	bge.n	8003764 <ST7789_DrawFilledCircle+0x12c>
		if (f >= 0) {
 800375e:	2c00      	cmp	r4, #0
 8003760:	daad      	bge.n	80036be <ST7789_DrawFilledCircle+0x86>
 8003762:	e7b7      	b.n	80036d4 <ST7789_DrawFilledCircle+0x9c>
	}
	ST7789_UnSelect();
 8003764:	2201      	movs	r2, #1
 8003766:	f44f 6180 	mov.w	r1, #1024	@ 0x400
 800376a:	4803      	ldr	r0, [pc, #12]	@ (8003778 <ST7789_DrawFilledCircle+0x140>)
 800376c:	f000 fea7 	bl	80044be <HAL_GPIO_WritePin>
}
 8003770:	b007      	add	sp, #28
 8003772:	e8bd 8ff0 	ldmia.w	sp!, {r4, r5, r6, r7, r8, r9, sl, fp, pc}
 8003776:	bf00      	nop
 8003778:	40010800 	.word	0x40010800

0800377c <ST7789_DrawFilledRoundedRect>:

void ST7789_DrawFilledRoundedRect(uint16_t x, uint16_t y, uint16_t w, uint16_t h, uint16_t r, uint16_t color) {
 800377c:	e92d 4ff0 	stmdb	sp!, {r4, r5, r6, r7, r8, r9, sl, fp, lr}
 8003780:	b085      	sub	sp, #20
 8003782:	4604      	mov	r4, r0
 8003784:	460d      	mov	r5, r1
 8003786:	4693      	mov	fp, r2
 8003788:	469a      	mov	sl, r3
 800378a:	f8bd 7038 	ldrh.w	r7, [sp, #56]	@ 0x38
 800378e:	f8bd 903c 	ldrh.w	r9, [sp, #60]	@ 0x3c
    // 1. Vẽ phần giữa (hình chữ nhật không bo)
	ST7789_Select();
 8003792:	2200      	movs	r2, #0
 8003794:	f44f 6180 	mov.w	r1, #1024	@ 0x400
 8003798:	482c      	ldr	r0, [pc, #176]	@ (800384c <ST7789_DrawFilledRoundedRect+0xd0>)
 800379a:	f000 fe90 	bl	80044be <HAL_GPIO_WritePin>
    ST7789_DrawFilledRectangle(x + r, y, w - 2*r, h, color); // phần giữa
 800379e:	19e3      	adds	r3, r4, r7
 80037a0:	b298      	uxth	r0, r3
 80037a2:	007e      	lsls	r6, r7, #1
 80037a4:	b2b6      	uxth	r6, r6
 80037a6:	ebab 0206 	sub.w	r2, fp, r6
 80037aa:	f8cd 9000 	str.w	r9, [sp]
 80037ae:	4653      	mov	r3, sl
 80037b0:	b292      	uxth	r2, r2
 80037b2:	4629      	mov	r1, r5
 80037b4:	9003      	str	r0, [sp, #12]
 80037b6:	f7ff fe41 	bl	800343c <ST7789_DrawFilledRectangle>

    // 2. Vẽ 2 dải thẳng đứng 2 bên
    ST7789_DrawFilledRectangle(x, y + r, r, h - 2*r, color); // trái
 80037ba:	eb07 0805 	add.w	r8, r7, r5
 80037be:	fa1f f888 	uxth.w	r8, r8
 80037c2:	ebaa 0606 	sub.w	r6, sl, r6
 80037c6:	b2b6      	uxth	r6, r6
 80037c8:	f8cd 9000 	str.w	r9, [sp]
 80037cc:	4633      	mov	r3, r6
 80037ce:	463a      	mov	r2, r7
 80037d0:	4641      	mov	r1, r8
 80037d2:	4620      	mov	r0, r4
 80037d4:	f7ff fe32 	bl	800343c <ST7789_DrawFilledRectangle>
    ST7789_DrawFilledRectangle(x + w - r, y + r, r, h - 2*r, color); // phải
 80037d8:	445c      	add	r4, fp
 80037da:	b2a4      	uxth	r4, r4
 80037dc:	1be4      	subs	r4, r4, r7
 80037de:	b2a4      	uxth	r4, r4
 80037e0:	f8cd 9000 	str.w	r9, [sp]
 80037e4:	4633      	mov	r3, r6
 80037e6:	463a      	mov	r2, r7
 80037e8:	4641      	mov	r1, r8
 80037ea:	4620      	mov	r0, r4
 80037ec:	f7ff fe26 	bl	800343c <ST7789_DrawFilledRectangle>

    // 3. Vẽ 4 góc bo tròn
    ST7789_DrawFilledCircle(x + r, y + r, r, color); // top-left
 80037f0:	f9bd b00c 	ldrsh.w	fp, [sp, #12]
 80037f4:	fa0f f888 	sxth.w	r8, r8
 80037f8:	b23e      	sxth	r6, r7
 80037fa:	464b      	mov	r3, r9
 80037fc:	4632      	mov	r2, r6
 80037fe:	4641      	mov	r1, r8
 8003800:	4658      	mov	r0, fp
 8003802:	f7ff ff19 	bl	8003638 <ST7789_DrawFilledCircle>
    ST7789_DrawFilledCircle(x + w - r - 1, y + r, r, color); // top-right
 8003806:	3c01      	subs	r4, #1
 8003808:	b224      	sxth	r4, r4
 800380a:	464b      	mov	r3, r9
 800380c:	4632      	mov	r2, r6
 800380e:	4641      	mov	r1, r8
 8003810:	4620      	mov	r0, r4
 8003812:	f7ff ff11 	bl	8003638 <ST7789_DrawFilledCircle>
    ST7789_DrawFilledCircle(x + r, y + h - r - 1, r, color); // bottom-left
 8003816:	4455      	add	r5, sl
 8003818:	b2ad      	uxth	r5, r5
 800381a:	1bed      	subs	r5, r5, r7
 800381c:	b2ad      	uxth	r5, r5
 800381e:	3d01      	subs	r5, #1
 8003820:	b22d      	sxth	r5, r5
 8003822:	464b      	mov	r3, r9
 8003824:	4632      	mov	r2, r6
 8003826:	4629      	mov	r1, r5
 8003828:	4658      	mov	r0, fp
 800382a:	f7ff ff05 	bl	8003638 <ST7789_DrawFilledCircle>
    ST7789_DrawFilledCircle(x + w - r - 1, y + h - r - 1, r, color); // bottom-right
 800382e:	464b      	mov	r3, r9
 8003830:	4632      	mov	r2, r6
 8003832:	4629      	mov	r1, r5
 8003834:	4620      	mov	r0, r4
 8003836:	f7ff feff 	bl	8003638 <ST7789_DrawFilledCircle>
    ST7789_UnSelect();
 800383a:	2201      	movs	r2, #1
 800383c:	f44f 6180 	mov.w	r1, #1024	@ 0x400
 8003840:	4802      	ldr	r0, [pc, #8]	@ (800384c <ST7789_DrawFilledRoundedRect+0xd0>)
 8003842:	f000 fe3c 	bl	80044be <HAL_GPIO_WritePin>
}
 8003846:	b005      	add	sp, #20
 8003848:	e8bd 8ff0 	ldmia.w	sp!, {r4, r5, r6, r7, r8, r9, sl, fp, pc}
 800384c:	40010800 	.word	0x40010800

08003850 <DuckEngine_Bind_ST7789>:
	.FillScreen = ST7789_Fill_Color,

};


void DuckEngine_Bind_ST7789(void) {
 8003850:	b508      	push	{r3, lr}

	ST7789_Init();
 8003852:	f7ff fb03 	bl	8002e5c <ST7789_Init>
	DuckEngine_BindDriver(&duckDriver);
 8003856:	4802      	ldr	r0, [pc, #8]	@ (8003860 <DuckEngine_Bind_ST7789+0x10>)
 8003858:	f7fc fcc0 	bl	80001dc <DuckEngine_BindDriver>
}
 800385c:	bd08      	pop	{r3, pc}
 800385e:	bf00      	nop
 8003860:	20000010 	.word	0x20000010

08003864 <HAL_MspInit>:
/* USER CODE END 0 */
/**
  * Initializes the Global MSP.
  */
void HAL_MspInit(void)
{
 8003864:	b500      	push	{lr}
 8003866:	b083      	sub	sp, #12

  /* USER CODE BEGIN MspInit 0 */

  /* USER CODE END MspInit 0 */

  __HAL_RCC_AFIO_CLK_ENABLE();
 8003868:	4b11      	ldr	r3, [pc, #68]	@ (80038b0 <HAL_MspInit+0x4c>)
 800386a:	699a      	ldr	r2, [r3, #24]
 800386c:	f042 0201 	orr.w	r2, r2, #1
 8003870:	619a      	str	r2, [r3, #24]
 8003872:	699a      	ldr	r2, [r3, #24]
 8003874:	f002 0201 	and.w	r2, r2, #1
 8003878:	9200      	str	r2, [sp, #0]
 800387a:	9a00      	ldr	r2, [sp, #0]
  __HAL_RCC_PWR_CLK_ENABLE();
 800387c:	69da      	ldr	r2, [r3, #28]
 800387e:	f042 5280 	orr.w	r2, r2, #268435456	@ 0x10000000
 8003882:	61da      	str	r2, [r3, #28]
 8003884:	69db      	ldr	r3, [r3, #28]
 8003886:	f003 5380 	and.w	r3, r3, #268435456	@ 0x10000000
 800388a:	9301      	str	r3, [sp, #4]
 800388c:	9b01      	ldr	r3, [sp, #4]

  /* System interrupt init*/
  /* PendSV_IRQn interrupt configuration */
  HAL_NVIC_SetPriority(PendSV_IRQn, 15, 0);
 800388e:	2200      	movs	r2, #0
 8003890:	210f      	movs	r1, #15
 8003892:	f06f 0001 	mvn.w	r0, #1
 8003896:	f000 fc6f 	bl	8004178 <HAL_NVIC_SetPriority>

  /** NOJTAG: JTAG-DP Disabled and SW-DP Enabled
  */
  __HAL_AFIO_REMAP_SWJ_NOJTAG();
 800389a:	4a06      	ldr	r2, [pc, #24]	@ (80038b4 <HAL_MspInit+0x50>)
 800389c:	6853      	ldr	r3, [r2, #4]
 800389e:	f023 63e0 	bic.w	r3, r3, #117440512	@ 0x7000000
 80038a2:	f043 7300 	orr.w	r3, r3, #33554432	@ 0x2000000
 80038a6:	6053      	str	r3, [r2, #4]

  /* USER CODE BEGIN MspInit 1 */

  /* USER CODE END MspInit 1 */
}
 80038a8:	b003      	add	sp, #12
 80038aa:	f85d fb04 	ldr.w	pc, [sp], #4
 80038ae:	bf00      	nop
 80038b0:	40021000 	.word	0x40021000
 80038b4:	40010000 	.word	0x40010000

080038b8 <HAL_ADC_MspInit>:
  * This function configures the hardware resources used in this example
  * @param hadc: ADC handle pointer
  * @retval None
  */
void HAL_ADC_MspInit(ADC_HandleTypeDef* hadc)
{
 80038b8:	b500      	push	{lr}
 80038ba:	b089      	sub	sp, #36	@ 0x24
  GPIO_InitTypeDef GPIO_InitStruct = {0};
 80038bc:	2300      	movs	r3, #0
 80038be:	9304      	str	r3, [sp, #16]
 80038c0:	9305      	str	r3, [sp, #20]
 80038c2:	9306      	str	r3, [sp, #24]
 80038c4:	9307      	str	r3, [sp, #28]
  if(hadc->Instance==ADC1)
 80038c6:	6803      	ldr	r3, [r0, #0]
 80038c8:	4a20      	ldr	r2, [pc, #128]	@ (800394c <HAL_ADC_MspInit+0x94>)
 80038ca:	4293      	cmp	r3, r2
 80038cc:	d005      	beq.n	80038da <HAL_ADC_MspInit+0x22>

    /* USER CODE BEGIN ADC1_MspInit 1 */

    /* USER CODE END ADC1_MspInit 1 */
  }
  else if(hadc->Instance==ADC2)
 80038ce:	4a20      	ldr	r2, [pc, #128]	@ (8003950 <HAL_ADC_MspInit+0x98>)
 80038d0:	4293      	cmp	r3, r2
 80038d2:	d01e      	beq.n	8003912 <HAL_ADC_MspInit+0x5a>
    /* USER CODE BEGIN ADC2_MspInit 1 */

    /* USER CODE END ADC2_MspInit 1 */
  }

}
 80038d4:	b009      	add	sp, #36	@ 0x24
 80038d6:	f85d fb04 	ldr.w	pc, [sp], #4
    __HAL_RCC_ADC1_CLK_ENABLE();
 80038da:	4b1e      	ldr	r3, [pc, #120]	@ (8003954 <HAL_ADC_MspInit+0x9c>)
 80038dc:	699a      	ldr	r2, [r3, #24]
 80038de:	f442 7200 	orr.w	r2, r2, #512	@ 0x200
 80038e2:	619a      	str	r2, [r3, #24]
 80038e4:	699a      	ldr	r2, [r3, #24]
 80038e6:	f402 7200 	and.w	r2, r2, #512	@ 0x200
 80038ea:	9200      	str	r2, [sp, #0]
 80038ec:	9a00      	ldr	r2, [sp, #0]
    __HAL_RCC_GPIOA_CLK_ENABLE();
 80038ee:	699a      	ldr	r2, [r3, #24]
 80038f0:	f042 0204 	orr.w	r2, r2, #4
 80038f4:	619a      	str	r2, [r3, #24]
 80038f6:	699b      	ldr	r3, [r3, #24]
 80038f8:	f003 0304 	and.w	r3, r3, #4
 80038fc:	9301      	str	r3, [sp, #4]
 80038fe:	9b01      	ldr	r3, [sp, #4]
    GPIO_InitStruct.Pin = GPIO_PIN_0;
 8003900:	2301      	movs	r3, #1
 8003902:	9304      	str	r3, [sp, #16]
    GPIO_InitStruct.Mode = GPIO_MODE_ANALOG;
 8003904:	2303      	movs	r3, #3
 8003906:	9305      	str	r3, [sp, #20]
    HAL_GPIO_Init(GPIOA, &GPIO_InitStruct);
 8003908:	a904      	add	r1, sp, #16
 800390a:	4813      	ldr	r0, [pc, #76]	@ (8003958 <HAL_ADC_MspInit+0xa0>)
 800390c:	f000 fcc2 	bl	8004294 <HAL_GPIO_Init>
 8003910:	e7e0      	b.n	80038d4 <HAL_ADC_MspInit+0x1c>
    __HAL_RCC_ADC2_CLK_ENABLE();
 8003912:	4b10      	ldr	r3, [pc, #64]	@ (8003954 <HAL_ADC_MspInit+0x9c>)
 8003914:	699a      	ldr	r2, [r3, #24]
 8003916:	f442 6280 	orr.w	r2, r2, #1024	@ 0x400
 800391a:	619a      	str	r2, [r3, #24]
 800391c:	699a      	ldr	r2, [r3, #24]
 800391e:	f402 6280 	and.w	r2, r2, #1024	@ 0x400
 8003922:	9202      	str	r2, [sp, #8]
 8003924:	9a02      	ldr	r2, [sp, #8]
    __HAL_RCC_GPIOA_CLK_ENABLE();
 8003926:	699a      	ldr	r2, [r3, #24]
 8003928:	f042 0204 	orr.w	r2, r2, #4
 800392c:	619a      	str	r2, [r3, #24]
 800392e:	699b      	ldr	r3, [r3, #24]
 8003930:	f003 0304 	and.w	r3, r3, #4
 8003934:	9303      	str	r3, [sp, #12]
 8003936:	9b03      	ldr	r3, [sp, #12]
    GPIO_InitStruct.Pin = GPIO_PIN_1;
 8003938:	2302      	movs	r3, #2
 800393a:	9304      	str	r3, [sp, #16]
    GPIO_InitStruct.Mode = GPIO_MODE_ANALOG;
 800393c:	2303      	movs	r3, #3
 800393e:	9305      	str	r3, [sp, #20]
    HAL_GPIO_Init(GPIOA, &GPIO_InitStruct);
 8003940:	a904      	add	r1, sp, #16
 8003942:	4805      	ldr	r0, [pc, #20]	@ (8003958 <HAL_ADC_MspInit+0xa0>)
 8003944:	f000 fca6 	bl	8004294 <HAL_GPIO_Init>
}
 8003948:	e7c4      	b.n	80038d4 <HAL_ADC_MspInit+0x1c>
 800394a:	bf00      	nop
 800394c:	40012400 	.word	0x40012400
 8003950:	40012800 	.word	0x40012800
 8003954:	40021000 	.word	0x40021000
 8003958:	40010800 	.word	0x40010800

0800395c <HAL_SPI_MspInit>:
  * This function configures the hardware resources used in this example
  * @param hspi: SPI handle pointer
  * @retval None
  */
void HAL_SPI_MspInit(SPI_HandleTypeDef* hspi)
{
 800395c:	b510      	push	{r4, lr}
 800395e:	b088      	sub	sp, #32
  GPIO_InitTypeDef GPIO_InitStruct = {0};
 8003960:	2300      	movs	r3, #0
 8003962:	9304      	str	r3, [sp, #16]
 8003964:	9305      	str	r3, [sp, #20]
 8003966:	9306      	str	r3, [sp, #24]
 8003968:	9307      	str	r3, [sp, #28]
  if(hspi->Instance==SPI1)
 800396a:	6803      	ldr	r3, [r0, #0]
 800396c:	4a27      	ldr	r2, [pc, #156]	@ (8003a0c <HAL_SPI_MspInit+0xb0>)
 800396e:	4293      	cmp	r3, r2
 8003970:	d004      	beq.n	800397c <HAL_SPI_MspInit+0x20>

    /* USER CODE BEGIN SPI1_MspInit 1 */

    /* USER CODE END SPI1_MspInit 1 */
  }
  else if(hspi->Instance==SPI2)
 8003972:	4a27      	ldr	r2, [pc, #156]	@ (8003a10 <HAL_SPI_MspInit+0xb4>)
 8003974:	4293      	cmp	r3, r2
 8003976:	d01f      	beq.n	80039b8 <HAL_SPI_MspInit+0x5c>
    /* USER CODE BEGIN SPI2_MspInit 1 */

    /* USER CODE END SPI2_MspInit 1 */
  }

}
 8003978:	b008      	add	sp, #32
 800397a:	bd10      	pop	{r4, pc}
    __HAL_RCC_SPI1_CLK_ENABLE();
 800397c:	4b25      	ldr	r3, [pc, #148]	@ (8003a14 <HAL_SPI_MspInit+0xb8>)
 800397e:	699a      	ldr	r2, [r3, #24]
 8003980:	f442 5280 	orr.w	r2, r2, #4096	@ 0x1000
 8003984:	619a      	str	r2, [r3, #24]
 8003986:	699a      	ldr	r2, [r3, #24]
 8003988:	f402 5280 	and.w	r2, r2, #4096	@ 0x1000
 800398c:	9200      	str	r2, [sp, #0]
 800398e:	9a00      	ldr	r2, [sp, #0]
    __HAL_RCC_GPIOA_CLK_ENABLE();
 8003990:	699a      	ldr	r2, [r3, #24]
 8003992:	f042 0204 	orr.w	r2, r2, #4
 8003996:	619a      	str	r2, [r3, #24]
 8003998:	699b      	ldr	r3, [r3, #24]
 800399a:	f003 0304 	and.w	r3, r3, #4
 800399e:	9301      	str	r3, [sp, #4]
 80039a0:	9b01      	ldr	r3, [sp, #4]
    GPIO_InitStruct.Pin = GPIO_PIN_5|GPIO_PIN_7;
 80039a2:	23a0      	movs	r3, #160	@ 0xa0
 80039a4:	9304      	str	r3, [sp, #16]
    GPIO_InitStruct.Mode = GPIO_MODE_AF_PP;
 80039a6:	2302      	movs	r3, #2
 80039a8:	9305      	str	r3, [sp, #20]
    GPIO_InitStruct.Speed = GPIO_SPEED_FREQ_HIGH;
 80039aa:	2303      	movs	r3, #3
 80039ac:	9307      	str	r3, [sp, #28]
    HAL_GPIO_Init(GPIOA, &GPIO_InitStruct);
 80039ae:	a904      	add	r1, sp, #16
 80039b0:	4819      	ldr	r0, [pc, #100]	@ (8003a18 <HAL_SPI_MspInit+0xbc>)
 80039b2:	f000 fc6f 	bl	8004294 <HAL_GPIO_Init>
 80039b6:	e7df      	b.n	8003978 <HAL_SPI_MspInit+0x1c>
    __HAL_RCC_SPI2_CLK_ENABLE();
 80039b8:	4b16      	ldr	r3, [pc, #88]	@ (8003a14 <HAL_SPI_MspInit+0xb8>)
 80039ba:	69da      	ldr	r2, [r3, #28]
 80039bc:	f442 4280 	orr.w	r2, r2, #16384	@ 0x4000
 80039c0:	61da      	str	r2, [r3, #28]
 80039c2:	69da      	ldr	r2, [r3, #28]
 80039c4:	f402 4280 	and.w	r2, r2, #16384	@ 0x4000
 80039c8:	9202      	str	r2, [sp, #8]
 80039ca:	9a02      	ldr	r2, [sp, #8]
    __HAL_RCC_GPIOB_CLK_ENABLE();
 80039cc:	699a      	ldr	r2, [r3, #24]
 80039ce:	f042 0208 	orr.w	r2, r2, #8
 80039d2:	619a      	str	r2, [r3, #24]
 80039d4:	699b      	ldr	r3, [r3, #24]
 80039d6:	f003 0308 	and.w	r3, r3, #8
 80039da:	9303      	str	r3, [sp, #12]
 80039dc:	9b03      	ldr	r3, [sp, #12]
    GPIO_InitStruct.Pin = GPIO_PIN_13|GPIO_PIN_15;
 80039de:	f44f 4320 	mov.w	r3, #40960	@ 0xa000
 80039e2:	9304      	str	r3, [sp, #16]
    GPIO_InitStruct.Mode = GPIO_MODE_AF_PP;
 80039e4:	2302      	movs	r3, #2
 80039e6:	9305      	str	r3, [sp, #20]
    GPIO_InitStruct.Speed = GPIO_SPEED_FREQ_HIGH;
 80039e8:	2303      	movs	r3, #3
 80039ea:	9307      	str	r3, [sp, #28]
    HAL_GPIO_Init(GPIOB, &GPIO_InitStruct);
 80039ec:	4c0b      	ldr	r4, [pc, #44]	@ (8003a1c <HAL_SPI_MspInit+0xc0>)
 80039ee:	a904      	add	r1, sp, #16
 80039f0:	4620      	mov	r0, r4
 80039f2:	f000 fc4f 	bl	8004294 <HAL_GPIO_Init>
    GPIO_InitStruct.Pin = GPIO_PIN_14;
 80039f6:	f44f 4380 	mov.w	r3, #16384	@ 0x4000
 80039fa:	9304      	str	r3, [sp, #16]
    GPIO_InitStruct.Mode = GPIO_MODE_INPUT;
 80039fc:	2300      	movs	r3, #0
 80039fe:	9305      	str	r3, [sp, #20]
    GPIO_InitStruct.Pull = GPIO_NOPULL;
 8003a00:	9306      	str	r3, [sp, #24]
    HAL_GPIO_Init(GPIOB, &GPIO_InitStruct);
 8003a02:	a904      	add	r1, sp, #16
 8003a04:	4620      	mov	r0, r4
 8003a06:	f000 fc45 	bl	8004294 <HAL_GPIO_Init>
}
 8003a0a:	e7b5      	b.n	8003978 <HAL_SPI_MspInit+0x1c>
 8003a0c:	40013000 	.word	0x40013000
 8003a10:	40003800 	.word	0x40003800
 8003a14:	40021000 	.word	0x40021000
 8003a18:	40010800 	.word	0x40010800
 8003a1c:	40010c00 	.word	0x40010c00

08003a20 <HAL_UART_MspInit>:
  * This function configures the hardware resources used in this example
  * @param huart: UART handle pointer
  * @retval None
  */
void HAL_UART_MspInit(UART_HandleTypeDef* huart)
{
 8003a20:	b530      	push	{r4, r5, lr}
 8003a22:	b087      	sub	sp, #28
  GPIO_InitTypeDef GPIO_InitStruct = {0};
 8003a24:	2300      	movs	r3, #0
 8003a26:	9302      	str	r3, [sp, #8]
 8003a28:	9303      	str	r3, [sp, #12]
 8003a2a:	9304      	str	r3, [sp, #16]
 8003a2c:	9305      	str	r3, [sp, #20]
  if(huart->Instance==USART3)
 8003a2e:	6802      	ldr	r2, [r0, #0]
 8003a30:	4b1b      	ldr	r3, [pc, #108]	@ (8003aa0 <HAL_UART_MspInit+0x80>)
 8003a32:	429a      	cmp	r2, r3
 8003a34:	d001      	beq.n	8003a3a <HAL_UART_MspInit+0x1a>

    /* USER CODE END USART3_MspInit 1 */

  }

}
 8003a36:	b007      	add	sp, #28
 8003a38:	bd30      	pop	{r4, r5, pc}
    __HAL_RCC_USART3_CLK_ENABLE();
 8003a3a:	f503 33e4 	add.w	r3, r3, #116736	@ 0x1c800
 8003a3e:	69da      	ldr	r2, [r3, #28]
 8003a40:	f442 2280 	orr.w	r2, r2, #262144	@ 0x40000
 8003a44:	61da      	str	r2, [r3, #28]
 8003a46:	69da      	ldr	r2, [r3, #28]
 8003a48:	f402 2280 	and.w	r2, r2, #262144	@ 0x40000
 8003a4c:	9200      	str	r2, [sp, #0]
 8003a4e:	9a00      	ldr	r2, [sp, #0]
    __HAL_RCC_GPIOB_CLK_ENABLE();
 8003a50:	699a      	ldr	r2, [r3, #24]
 8003a52:	f042 0208 	orr.w	r2, r2, #8
 8003a56:	619a      	str	r2, [r3, #24]
 8003a58:	699b      	ldr	r3, [r3, #24]
 8003a5a:	f003 0308 	and.w	r3, r3, #8
 8003a5e:	9301      	str	r3, [sp, #4]
 8003a60:	9b01      	ldr	r3, [sp, #4]
    GPIO_InitStruct.Pin = GPIO_PIN_10;
 8003a62:	f44f 6380 	mov.w	r3, #1024	@ 0x400
 8003a66:	9302      	str	r3, [sp, #8]
    GPIO_InitStruct.Mode = GPIO_MODE_AF_PP;
 8003a68:	2302      	movs	r3, #2
 8003a6a:	9303      	str	r3, [sp, #12]
    GPIO_InitStruct.Speed = GPIO_SPEED_FREQ_HIGH;
 8003a6c:	2303      	movs	r3, #3
 8003a6e:	9305      	str	r3, [sp, #20]
    HAL_GPIO_Init(GPIOB, &GPIO_InitStruct);
 8003a70:	4d0c      	ldr	r5, [pc, #48]	@ (8003aa4 <HAL_UART_MspInit+0x84>)
 8003a72:	a902      	add	r1, sp, #8
 8003a74:	4628      	mov	r0, r5
 8003a76:	f000 fc0d 	bl	8004294 <HAL_GPIO_Init>
    GPIO_InitStruct.Pin = GPIO_PIN_11;
 8003a7a:	f44f 6300 	mov.w	r3, #2048	@ 0x800
 8003a7e:	9302      	str	r3, [sp, #8]
    GPIO_InitStruct.Mode = GPIO_MODE_INPUT;
 8003a80:	2400      	movs	r4, #0
 8003a82:	9403      	str	r4, [sp, #12]
    GPIO_InitStruct.Pull = GPIO_NOPULL;
 8003a84:	9404      	str	r4, [sp, #16]
    HAL_GPIO_Init(GPIOB, &GPIO_InitStruct);
 8003a86:	a902      	add	r1, sp, #8
 8003a88:	4628      	mov	r0, r5
 8003a8a:	f000 fc03 	bl	8004294 <HAL_GPIO_Init>
    HAL_NVIC_SetPriority(USART3_IRQn, 5, 0);
 8003a8e:	4622      	mov	r2, r4
 8003a90:	2105      	movs	r1, #5
 8003a92:	2027      	movs	r0, #39	@ 0x27
 8003a94:	f000 fb70 	bl	8004178 <HAL_NVIC_SetPriority>
    HAL_NVIC_EnableIRQ(USART3_IRQn);
 8003a98:	2027      	movs	r0, #39	@ 0x27
 8003a9a:	f000 fb7d 	bl	8004198 <HAL_NVIC_EnableIRQ>
}
 8003a9e:	e7ca      	b.n	8003a36 <HAL_UART_MspInit+0x16>
 8003aa0:	40004800 	.word	0x40004800
 8003aa4:	40010c00 	.word	0x40010c00

08003aa8 <HAL_InitTick>:
  *         reset by HAL_Init() or at any time when clock is configured, by HAL_RCC_ClockConfig().
  * @param  TickPriority: Tick interrupt priority.
  * @retval HAL status
  */
HAL_StatusTypeDef HAL_InitTick(uint32_t TickPriority)
{
 8003aa8:	b530      	push	{r4, r5, lr}
 8003aaa:	b089      	sub	sp, #36	@ 0x24
 8003aac:	4604      	mov	r4, r0
  uint32_t              pFLatency;

  HAL_StatusTypeDef     status = HAL_OK;

  /* Enable TIM2 clock */
  __HAL_RCC_TIM2_CLK_ENABLE();
 8003aae:	4b22      	ldr	r3, [pc, #136]	@ (8003b38 <HAL_InitTick+0x90>)
 8003ab0:	69da      	ldr	r2, [r3, #28]
 8003ab2:	f042 0201 	orr.w	r2, r2, #1
 8003ab6:	61da      	str	r2, [r3, #28]
 8003ab8:	69db      	ldr	r3, [r3, #28]
 8003aba:	f003 0301 	and.w	r3, r3, #1
 8003abe:	9301      	str	r3, [sp, #4]
 8003ac0:	9b01      	ldr	r3, [sp, #4]

  /* Get clock configuration */
  HAL_RCC_GetClockConfig(&clkconfig, &pFLatency);
 8003ac2:	a902      	add	r1, sp, #8
 8003ac4:	a803      	add	r0, sp, #12
 8003ac6:	f001 f825 	bl	8004b14 <HAL_RCC_GetClockConfig>

  /* Get APB1 prescaler */
  uwAPB1Prescaler = clkconfig.APB1CLKDivider;
 8003aca:	9b06      	ldr	r3, [sp, #24]
  /* Compute TIM2 clock */
  if (uwAPB1Prescaler == RCC_HCLK_DIV1)
 8003acc:	b9d3      	cbnz	r3, 8003b04 <HAL_InitTick+0x5c>
  {
    uwTimclock = HAL_RCC_GetPCLK1Freq();
 8003ace:	f001 f801 	bl	8004ad4 <HAL_RCC_GetPCLK1Freq>
 8003ad2:	4603      	mov	r3, r0
  {
    uwTimclock = 2UL * HAL_RCC_GetPCLK1Freq();
  }

  /* Compute the prescaler value to have TIM2 counter clock equal to 1MHz */
  uwPrescalerValue = (uint32_t) ((uwTimclock / 1000000U) - 1U);
 8003ad4:	4a19      	ldr	r2, [pc, #100]	@ (8003b3c <HAL_InitTick+0x94>)
 8003ad6:	fba2 2303 	umull	r2, r3, r2, r3
 8003ada:	0c9b      	lsrs	r3, r3, #18
 8003adc:	3b01      	subs	r3, #1

  /* Initialize TIM2 */
  htim2.Instance = TIM2;
 8003ade:	4818      	ldr	r0, [pc, #96]	@ (8003b40 <HAL_InitTick+0x98>)
 8003ae0:	f04f 4280 	mov.w	r2, #1073741824	@ 0x40000000
 8003ae4:	6002      	str	r2, [r0, #0]
   * Period = [(TIM2CLK/1000) - 1]. to have a (1/1000) s time base.
   * Prescaler = (uwTimclock/1000000 - 1) to have a 1MHz counter clock.
   * ClockDivision = 0
   * Counter direction = Up
   */
  htim2.Init.Period = (1000000U / 1000U) - 1U;
 8003ae6:	f240 32e7 	movw	r2, #999	@ 0x3e7
 8003aea:	60c2      	str	r2, [r0, #12]
  htim2.Init.Prescaler = uwPrescalerValue;
 8003aec:	6043      	str	r3, [r0, #4]
  htim2.Init.ClockDivision = 0;
 8003aee:	2300      	movs	r3, #0
 8003af0:	6103      	str	r3, [r0, #16]
  htim2.Init.CounterMode = TIM_COUNTERMODE_UP;
 8003af2:	6083      	str	r3, [r0, #8]
  htim2.Init.AutoReloadPreload = TIM_AUTORELOAD_PRELOAD_DISABLE;
 8003af4:	6183      	str	r3, [r0, #24]

  status = HAL_TIM_Base_Init(&htim2);
 8003af6:	f001 fba5 	bl	8005244 <HAL_TIM_Base_Init>
  if (status == HAL_OK)
 8003afa:	4605      	mov	r5, r0
 8003afc:	b130      	cbz	r0, 8003b0c <HAL_InitTick+0x64>
    }
  }

 /* Return function status */
  return status;
}
 8003afe:	4628      	mov	r0, r5
 8003b00:	b009      	add	sp, #36	@ 0x24
 8003b02:	bd30      	pop	{r4, r5, pc}
    uwTimclock = 2UL * HAL_RCC_GetPCLK1Freq();
 8003b04:	f000 ffe6 	bl	8004ad4 <HAL_RCC_GetPCLK1Freq>
 8003b08:	0043      	lsls	r3, r0, #1
 8003b0a:	e7e3      	b.n	8003ad4 <HAL_InitTick+0x2c>
    status = HAL_TIM_Base_Start_IT(&htim2);
 8003b0c:	480c      	ldr	r0, [pc, #48]	@ (8003b40 <HAL_InitTick+0x98>)
 8003b0e:	f001 fa6f 	bl	8004ff0 <HAL_TIM_Base_Start_IT>
    if (status == HAL_OK)
 8003b12:	4605      	mov	r5, r0
 8003b14:	2800      	cmp	r0, #0
 8003b16:	d1f2      	bne.n	8003afe <HAL_InitTick+0x56>
        HAL_NVIC_EnableIRQ(TIM2_IRQn);
 8003b18:	201c      	movs	r0, #28
 8003b1a:	f000 fb3d 	bl	8004198 <HAL_NVIC_EnableIRQ>
      if (TickPriority < (1UL << __NVIC_PRIO_BITS))
 8003b1e:	2c0f      	cmp	r4, #15
 8003b20:	d901      	bls.n	8003b26 <HAL_InitTick+0x7e>
        status = HAL_ERROR;
 8003b22:	2501      	movs	r5, #1
 8003b24:	e7eb      	b.n	8003afe <HAL_InitTick+0x56>
        HAL_NVIC_SetPriority(TIM2_IRQn, TickPriority, 0U);
 8003b26:	2200      	movs	r2, #0
 8003b28:	4621      	mov	r1, r4
 8003b2a:	201c      	movs	r0, #28
 8003b2c:	f000 fb24 	bl	8004178 <HAL_NVIC_SetPriority>
        uwTickPrio = TickPriority;
 8003b30:	4b04      	ldr	r3, [pc, #16]	@ (8003b44 <HAL_InitTick+0x9c>)
 8003b32:	601c      	str	r4, [r3, #0]
 8003b34:	e7e3      	b.n	8003afe <HAL_InitTick+0x56>
 8003b36:	bf00      	nop
 8003b38:	40021000 	.word	0x40021000
 8003b3c:	431bde83 	.word	0x431bde83
 8003b40:	200018e0 	.word	0x200018e0
 8003b44:	20000050 	.word	0x20000050

08003b48 <NMI_Handler>:
{
  /* USER CODE BEGIN NonMaskableInt_IRQn 0 */

  /* USER CODE END NonMaskableInt_IRQn 0 */
  /* USER CODE BEGIN NonMaskableInt_IRQn 1 */
   while (1)
 8003b48:	e7fe      	b.n	8003b48 <NMI_Handler>

08003b4a <HardFault_Handler>:
void HardFault_Handler(void)
{
  /* USER CODE BEGIN HardFault_IRQn 0 */

  /* USER CODE END HardFault_IRQn 0 */
  while (1)
 8003b4a:	e7fe      	b.n	8003b4a <HardFault_Handler>

08003b4c <MemManage_Handler>:
void MemManage_Handler(void)
{
  /* USER CODE BEGIN MemoryManagement_IRQn 0 */

  /* USER CODE END MemoryManagement_IRQn 0 */
  while (1)
 8003b4c:	e7fe      	b.n	8003b4c <MemManage_Handler>

08003b4e <BusFault_Handler>:
void BusFault_Handler(void)
{
  /* USER CODE BEGIN BusFault_IRQn 0 */

  /* USER CODE END BusFault_IRQn 0 */
  while (1)
 8003b4e:	e7fe      	b.n	8003b4e <BusFault_Handler>

08003b50 <UsageFault_Handler>:
void UsageFault_Handler(void)
{
  /* USER CODE BEGIN UsageFault_IRQn 0 */

  /* USER CODE END UsageFault_IRQn 0 */
  while (1)
 8003b50:	e7fe      	b.n	8003b50 <UsageFault_Handler>

08003b52 <DebugMon_Handler>:

  /* USER CODE END DebugMonitor_IRQn 0 */
  /* USER CODE BEGIN DebugMonitor_IRQn 1 */

  /* USER CODE END DebugMonitor_IRQn 1 */
}
 8003b52:	4770      	bx	lr

08003b54 <TIM2_IRQHandler>:

/**
  * @brief This function handles TIM2 global interrupt.
  */
void TIM2_IRQHandler(void)
{
 8003b54:	b508      	push	{r3, lr}
  /* USER CODE BEGIN TIM2_IRQn 0 */

  /* USER CODE END TIM2_IRQn 0 */
  HAL_TIM_IRQHandler(&htim2);
 8003b56:	4802      	ldr	r0, [pc, #8]	@ (8003b60 <TIM2_IRQHandler+0xc>)
 8003b58:	f001 fa82 	bl	8005060 <HAL_TIM_IRQHandler>
  /* USER CODE BEGIN TIM2_IRQn 1 */

  /* USER CODE END TIM2_IRQn 1 */
}
 8003b5c:	bd08      	pop	{r3, pc}
 8003b5e:	bf00      	nop
 8003b60:	200018e0 	.word	0x200018e0

08003b64 <USART3_IRQHandler>:

/**
  * @brief This function handles USART3 global interrupt.
  */
void USART3_IRQHandler(void)
{
 8003b64:	b508      	push	{r3, lr}
  /* USER CODE BEGIN USART3_IRQn 0 */

  /* USER CODE END USART3_IRQn 0 */
  HAL_UART_IRQHandler(&huart3);
 8003b66:	4802      	ldr	r0, [pc, #8]	@ (8003b70 <USART3_IRQHandler+0xc>)
 8003b68:	f001 fe10 	bl	800578c <HAL_UART_IRQHandler>
  /* USER CODE BEGIN USART3_IRQn 1 */

  /* USER CODE END USART3_IRQn 1 */
}
 8003b6c:	bd08      	pop	{r3, pc}
 8003b6e:	bf00      	nop
 8003b70:	20001788 	.word	0x20001788

08003b74 <_getpid>:
}

int _getpid(void)
{
  return 1;
}
 8003b74:	2001      	movs	r0, #1
 8003b76:	4770      	bx	lr

08003b78 <_kill>:

int _kill(int pid, int sig)
{
 8003b78:	b508      	push	{r3, lr}
  (void)pid;
  (void)sig;
  errno = EINVAL;
 8003b7a:	f003 fdc5 	bl	8007708 <__errno>
 8003b7e:	2316      	movs	r3, #22
 8003b80:	6003      	str	r3, [r0, #0]
  return -1;
}
 8003b82:	f04f 30ff 	mov.w	r0, #4294967295
 8003b86:	bd08      	pop	{r3, pc}

08003b88 <_exit>:

void _exit (int status)
{
 8003b88:	b508      	push	{r3, lr}
  _kill(status, -1);
 8003b8a:	f04f 31ff 	mov.w	r1, #4294967295
 8003b8e:	f7ff fff3 	bl	8003b78 <_kill>
  while (1) {}    /* Make sure we hang here */
 8003b92:	e7fe      	b.n	8003b92 <_exit+0xa>

08003b94 <_read>:
}

__attribute__((weak)) int _read(int file, char *ptr, int len)
{
 8003b94:	b570      	push	{r4, r5, r6, lr}
 8003b96:	460c      	mov	r4, r1
 8003b98:	4616      	mov	r6, r2
  (void)file;
  int DataIdx;

  for (DataIdx = 0; DataIdx < len; DataIdx++)
 8003b9a:	2500      	movs	r5, #0
 8003b9c:	e006      	b.n	8003bac <_read+0x18>
  {
    *ptr++ = __io_getchar();
 8003b9e:	f3af 8000 	nop.w
 8003ba2:	4621      	mov	r1, r4
 8003ba4:	f801 0b01 	strb.w	r0, [r1], #1
  for (DataIdx = 0; DataIdx < len; DataIdx++)
 8003ba8:	3501      	adds	r5, #1
    *ptr++ = __io_getchar();
 8003baa:	460c      	mov	r4, r1
  for (DataIdx = 0; DataIdx < len; DataIdx++)
 8003bac:	42b5      	cmp	r5, r6
 8003bae:	dbf6      	blt.n	8003b9e <_read+0xa>
  }

  return len;
}
 8003bb0:	4630      	mov	r0, r6
 8003bb2:	bd70      	pop	{r4, r5, r6, pc}

08003bb4 <_close>:

int _close(int file)
{
  (void)file;
  return -1;
}
 8003bb4:	f04f 30ff 	mov.w	r0, #4294967295
 8003bb8:	4770      	bx	lr

08003bba <_fstat>:


int _fstat(int file, struct stat *st)
{
  (void)file;
  st->st_mode = S_IFCHR;
 8003bba:	f44f 5300 	mov.w	r3, #8192	@ 0x2000
 8003bbe:	604b      	str	r3, [r1, #4]
  return 0;
}
 8003bc0:	2000      	movs	r0, #0
 8003bc2:	4770      	bx	lr

08003bc4 <_isatty>:

int _isatty(int file)
{
  (void)file;
  return 1;
}
 8003bc4:	2001      	movs	r0, #1
 8003bc6:	4770      	bx	lr

08003bc8 <_lseek>:
{
  (void)file;
  (void)ptr;
  (void)dir;
  return 0;
}
 8003bc8:	2000      	movs	r0, #0
 8003bca:	4770      	bx	lr

08003bcc <_sbrk>:
 *
 * @param incr Memory size
 * @return Pointer to allocated memory
 */
void *_sbrk(ptrdiff_t incr)
{
 8003bcc:	b510      	push	{r4, lr}
 8003bce:	4603      	mov	r3, r0
  extern uint8_t _end; /* Symbol defined in the linker script */
  extern uint8_t _estack; /* Symbol defined in the linker script */
  extern uint32_t _Min_Stack_Size; /* Symbol defined in the linker script */
  const uint32_t stack_limit = (uint32_t)&_estack - (uint32_t)&_Min_Stack_Size;
 8003bd0:	4a0c      	ldr	r2, [pc, #48]	@ (8003c04 <_sbrk+0x38>)
 8003bd2:	490d      	ldr	r1, [pc, #52]	@ (8003c08 <_sbrk+0x3c>)
  const uint8_t *max_heap = (uint8_t *)stack_limit;
  uint8_t *prev_heap_end;

  /* Initialize heap end at first call */
  if (NULL == __sbrk_heap_end)
 8003bd4:	480d      	ldr	r0, [pc, #52]	@ (8003c0c <_sbrk+0x40>)
 8003bd6:	6800      	ldr	r0, [r0, #0]
 8003bd8:	b140      	cbz	r0, 8003bec <_sbrk+0x20>
  {
    __sbrk_heap_end = &_end;
  }

  /* Protect heap from growing into the reserved MSP stack */
  if (__sbrk_heap_end + incr > max_heap)
 8003bda:	480c      	ldr	r0, [pc, #48]	@ (8003c0c <_sbrk+0x40>)
 8003bdc:	6800      	ldr	r0, [r0, #0]
 8003bde:	4403      	add	r3, r0
 8003be0:	1a52      	subs	r2, r2, r1
 8003be2:	4293      	cmp	r3, r2
 8003be4:	d806      	bhi.n	8003bf4 <_sbrk+0x28>
    errno = ENOMEM;
    return (void *)-1;
  }

  prev_heap_end = __sbrk_heap_end;
  __sbrk_heap_end += incr;
 8003be6:	4a09      	ldr	r2, [pc, #36]	@ (8003c0c <_sbrk+0x40>)
 8003be8:	6013      	str	r3, [r2, #0]

  return (void *)prev_heap_end;

}
 8003bea:	bd10      	pop	{r4, pc}
    __sbrk_heap_end = &_end;
 8003bec:	4807      	ldr	r0, [pc, #28]	@ (8003c0c <_sbrk+0x40>)
 8003bee:	4c08      	ldr	r4, [pc, #32]	@ (8003c10 <_sbrk+0x44>)
 8003bf0:	6004      	str	r4, [r0, #0]
 8003bf2:	e7f2      	b.n	8003bda <_sbrk+0xe>
    errno = ENOMEM;
 8003bf4:	f003 fd88 	bl	8007708 <__errno>
 8003bf8:	230c      	movs	r3, #12
 8003bfa:	6003      	str	r3, [r0, #0]
    return (void *)-1;
 8003bfc:	f04f 30ff 	mov.w	r0, #4294967295
 8003c00:	e7f3      	b.n	8003bea <_sbrk+0x1e>
 8003c02:	bf00      	nop
 8003c04:	20005000 	.word	0x20005000
 8003c08:	00000400 	.word	0x00000400
 8003c0c:	20001928 	.word	0x20001928
 8003c10:	20003b10 	.word	0x20003b10

08003c14 <SystemInit>:

  /* Configure the Vector Table location -------------------------------------*/
#if defined(USER_VECT_TAB_ADDRESS)
  SCB->VTOR = VECT_TAB_BASE_ADDRESS | VECT_TAB_OFFSET; /* Vector Table Relocation in Internal SRAM. */
#endif /* USER_VECT_TAB_ADDRESS */
}
 8003c14:	4770      	bx	lr
	...

08003c18 <Reset_Handler>:
  .weak Reset_Handler
  .type Reset_Handler, %function
Reset_Handler:

/* Call the clock system initialization function.*/
;    bl  SystemInit
 8003c18:	f7ff fffc 	bl	8003c14 <SystemInit>

/* Copy the data segment initializers from flash to SRAM */
  ldr r0, =_sdata
 8003c1c:	480b      	ldr	r0, [pc, #44]	@ (8003c4c <LoopFillZerobss+0xe>)
  ldr r1, =_edata
 8003c1e:	490c      	ldr	r1, [pc, #48]	@ (8003c50 <LoopFillZerobss+0x12>)
  ldr r2, =_sidata
 8003c20:	4a0c      	ldr	r2, [pc, #48]	@ (8003c54 <LoopFillZerobss+0x16>)
  movs r3, #0
 8003c22:	2300      	movs	r3, #0
  b LoopCopyDataInit
 8003c24:	e002      	b.n	8003c2c <LoopCopyDataInit>

08003c26 <CopyDataInit>:

CopyDataInit:
  ldr r4, [r2, r3]
 8003c26:	58d4      	ldr	r4, [r2, r3]
  str r4, [r0, r3]
 8003c28:	50c4      	str	r4, [r0, r3]
  adds r3, r3, #4
 8003c2a:	3304      	adds	r3, #4

08003c2c <LoopCopyDataInit>:

LoopCopyDataInit:
  adds r4, r0, r3
 8003c2c:	18c4      	adds	r4, r0, r3
  cmp r4, r1
 8003c2e:	428c      	cmp	r4, r1
  bcc CopyDataInit
 8003c30:	d3f9      	bcc.n	8003c26 <CopyDataInit>
  
/* Zero fill the bss segment. */
  ldr r2, =_sbss
 8003c32:	4a09      	ldr	r2, [pc, #36]	@ (8003c58 <LoopFillZerobss+0x1a>)
  ldr r4, =_ebss
 8003c34:	4c09      	ldr	r4, [pc, #36]	@ (8003c5c <LoopFillZerobss+0x1e>)
  movs r3, #0
 8003c36:	2300      	movs	r3, #0
  b LoopFillZerobss
 8003c38:	e001      	b.n	8003c3e <LoopFillZerobss>

08003c3a <FillZerobss>:

FillZerobss:
  str  r3, [r2]
 8003c3a:	6013      	str	r3, [r2, #0]
   adds r2, r2, #4
 8003c3c:	3204      	adds	r2, #4

08003c3e <LoopFillZerobss>:

LoopFillZerobss:
  cmp r2, r4
 8003c3e:	42a2      	cmp	r2, r4
  bcc FillZerobss
 8003c40:	d3fb      	bcc.n	8003c3a <FillZerobss>

/* Call static constructors */
    bl __libc_init_array
 8003c42:	f003 fd67 	bl	8007714 <__libc_init_array>
/* Call the application's entry point.*/
  bl main
 8003c46:	f7fd fbe1 	bl	800140c <main>
  bx lr
 8003c4a:	4770      	bx	lr
  ldr r0, =_sdata
 8003c4c:	20000000 	.word	0x20000000
  ldr r1, =_edata
 8003c50:	200000b4 	.word	0x200000b4
  ldr r2, =_sidata
 8003c54:	0800a574 	.word	0x0800a574
  ldr r2, =_sbss
 8003c58:	200000b4 	.word	0x200000b4
  ldr r4, =_ebss
 8003c5c:	20003b10 	.word	0x20003b10

08003c60 <ADC1_2_IRQHandler>:
 * @retval : None
*/
    .section .text.Default_Handler,"ax",%progbits
Default_Handler:
Infinite_Loop:
  b Infinite_Loop
 8003c60:	e7fe      	b.n	8003c60 <ADC1_2_IRQHandler>
	...

08003c64 <HAL_Init>:
  *         need to ensure that the SysTick time base is always set to 1 millisecond
  *         to have correct HAL operation.
  * @retval HAL status
  */
HAL_StatusTypeDef HAL_Init(void)
{
 8003c64:	b508      	push	{r3, lr}
    defined(STM32F102x6) || defined(STM32F102xB) || \
    defined(STM32F103x6) || defined(STM32F103xB) || defined(STM32F103xE) || defined(STM32F103xG) || \
    defined(STM32F105xC) || defined(STM32F107xC)

  /* Prefetch buffer is not available on value line devices */
  __HAL_FLASH_PREFETCH_BUFFER_ENABLE();
 8003c66:	4a07      	ldr	r2, [pc, #28]	@ (8003c84 <HAL_Init+0x20>)
 8003c68:	6813      	ldr	r3, [r2, #0]
 8003c6a:	f043 0310 	orr.w	r3, r3, #16
 8003c6e:	6013      	str	r3, [r2, #0]
#endif
#endif /* PREFETCH_ENABLE */

  /* Set Interrupt Group Priority */
  HAL_NVIC_SetPriorityGrouping(NVIC_PRIORITYGROUP_4);
 8003c70:	2003      	movs	r0, #3
 8003c72:	f000 fa6f 	bl	8004154 <HAL_NVIC_SetPriorityGrouping>

  /* Use systick as time base source and configure 1ms tick (default clock after Reset is HSI) */
  HAL_InitTick(TICK_INT_PRIORITY);
 8003c76:	200f      	movs	r0, #15
 8003c78:	f7ff ff16 	bl	8003aa8 <HAL_InitTick>

  /* Init the low level hardware */
  HAL_MspInit();
 8003c7c:	f7ff fdf2 	bl	8003864 <HAL_MspInit>

  /* Return function status */
  return HAL_OK;
}
 8003c80:	2000      	movs	r0, #0
 8003c82:	bd08      	pop	{r3, pc}
 8003c84:	40022000 	.word	0x40022000

08003c88 <HAL_IncTick>:
  *      implementations in user file.
  * @retval None
  */
__weak void HAL_IncTick(void)
{
  uwTick += uwTickFreq;
 8003c88:	4a03      	ldr	r2, [pc, #12]	@ (8003c98 <HAL_IncTick+0x10>)
 8003c8a:	6811      	ldr	r1, [r2, #0]
 8003c8c:	4b03      	ldr	r3, [pc, #12]	@ (8003c9c <HAL_IncTick+0x14>)
 8003c8e:	781b      	ldrb	r3, [r3, #0]
 8003c90:	440b      	add	r3, r1
 8003c92:	6013      	str	r3, [r2, #0]
}
 8003c94:	4770      	bx	lr
 8003c96:	bf00      	nop
 8003c98:	2000192c 	.word	0x2000192c
 8003c9c:	2000004c 	.word	0x2000004c

08003ca0 <HAL_GetTick>:
  *       implementations in user file.
  * @retval tick value
  */
__weak uint32_t HAL_GetTick(void)
{
  return uwTick;
 8003ca0:	4b01      	ldr	r3, [pc, #4]	@ (8003ca8 <HAL_GetTick+0x8>)
 8003ca2:	6818      	ldr	r0, [r3, #0]
}
 8003ca4:	4770      	bx	lr
 8003ca6:	bf00      	nop
 8003ca8:	2000192c 	.word	0x2000192c

08003cac <HAL_Delay>:
  *       implementations in user file.
  * @param Delay specifies the delay time length, in milliseconds.
  * @retval None
  */
__weak void HAL_Delay(uint32_t Delay)
{
 8003cac:	b538      	push	{r3, r4, r5, lr}
 8003cae:	4604      	mov	r4, r0
  uint32_t tickstart = HAL_GetTick();
 8003cb0:	f7ff fff6 	bl	8003ca0 <HAL_GetTick>
 8003cb4:	4605      	mov	r5, r0
  uint32_t wait = Delay;

  /* Add a freq to guarantee minimum wait */
  if (wait < HAL_MAX_DELAY)
 8003cb6:	f1b4 3fff 	cmp.w	r4, #4294967295
 8003cba:	d002      	beq.n	8003cc2 <HAL_Delay+0x16>
  {
    wait += (uint32_t)(uwTickFreq);
 8003cbc:	4b04      	ldr	r3, [pc, #16]	@ (8003cd0 <HAL_Delay+0x24>)
 8003cbe:	781b      	ldrb	r3, [r3, #0]
 8003cc0:	441c      	add	r4, r3
  }

  while ((HAL_GetTick() - tickstart) < wait)
 8003cc2:	f7ff ffed 	bl	8003ca0 <HAL_GetTick>
 8003cc6:	1b40      	subs	r0, r0, r5
 8003cc8:	42a0      	cmp	r0, r4
 8003cca:	d3fa      	bcc.n	8003cc2 <HAL_Delay+0x16>
  {
  }
}
 8003ccc:	bd38      	pop	{r3, r4, r5, pc}
 8003cce:	bf00      	nop
 8003cd0:	2000004c 	.word	0x2000004c

08003cd4 <HAL_ADC_GetValue>:

  /* Note: EOC flag is not cleared here by software because automatically     */
  /*       cleared by hardware when reading register DR.                      */
  
  /* Return ADC converted value */ 
  return hadc->Instance->DR;
 8003cd4:	6803      	ldr	r3, [r0, #0]
 8003cd6:	6cd8      	ldr	r0, [r3, #76]	@ 0x4c
}
 8003cd8:	4770      	bx	lr
	...

08003cdc <HAL_ADC_ConfigChannel>:
  * @param  hadc: ADC handle
  * @param  sConfig: Structure of ADC channel for regular group.
  * @retval HAL status
  */
HAL_StatusTypeDef HAL_ADC_ConfigChannel(ADC_HandleTypeDef* hadc, ADC_ChannelConfTypeDef* sConfig)
{ 
 8003cdc:	b430      	push	{r4, r5}
 8003cde:	b082      	sub	sp, #8
  HAL_StatusTypeDef tmp_hal_status = HAL_OK;
  __IO uint32_t wait_loop_index = 0U;
 8003ce0:	2200      	movs	r2, #0
 8003ce2:	9201      	str	r2, [sp, #4]
  assert_param(IS_ADC_CHANNEL(sConfig->Channel));
  assert_param(IS_ADC_REGULAR_RANK(sConfig->Rank));
  assert_param(IS_ADC_SAMPLE_TIME(sConfig->SamplingTime));
  
  /* Process locked */
  __HAL_LOCK(hadc);
 8003ce4:	f890 2024 	ldrb.w	r2, [r0, #36]	@ 0x24
 8003ce8:	2a01      	cmp	r2, #1
 8003cea:	f000 808f 	beq.w	8003e0c <HAL_ADC_ConfigChannel+0x130>
 8003cee:	4603      	mov	r3, r0
 8003cf0:	2201      	movs	r2, #1
 8003cf2:	f880 2024 	strb.w	r2, [r0, #36]	@ 0x24
  
  
  /* Regular sequence configuration */
  /* For Rank 1 to 6 */
  if (sConfig->Rank < 7U)
 8003cf6:	684a      	ldr	r2, [r1, #4]
 8003cf8:	2a06      	cmp	r2, #6
 8003cfa:	d82d      	bhi.n	8003d58 <HAL_ADC_ConfigChannel+0x7c>
  {
    MODIFY_REG(hadc->Instance->SQR3                        ,
 8003cfc:	6804      	ldr	r4, [r0, #0]
 8003cfe:	6b60      	ldr	r0, [r4, #52]	@ 0x34
 8003d00:	eb02 0282 	add.w	r2, r2, r2, lsl #2
 8003d04:	3a05      	subs	r2, #5
 8003d06:	f04f 0c1f 	mov.w	ip, #31
 8003d0a:	fa0c fc02 	lsl.w	ip, ip, r2
 8003d0e:	ea20 000c 	bic.w	r0, r0, ip
 8003d12:	680d      	ldr	r5, [r1, #0]
 8003d14:	fa05 f202 	lsl.w	r2, r5, r2
 8003d18:	4302      	orrs	r2, r0
 8003d1a:	6362      	str	r2, [r4, #52]	@ 0x34
  }
  
  
  /* Channel sampling time configuration */
  /* For channels 10 to 17 */
  if (sConfig->Channel >= ADC_CHANNEL_10)
 8003d1c:	680a      	ldr	r2, [r1, #0]
 8003d1e:	2a09      	cmp	r2, #9
 8003d20:	d938      	bls.n	8003d94 <HAL_ADC_ConfigChannel+0xb8>
  {
    MODIFY_REG(hadc->Instance->SMPR1                             ,
 8003d22:	681c      	ldr	r4, [r3, #0]
 8003d24:	68e0      	ldr	r0, [r4, #12]
 8003d26:	eb02 0242 	add.w	r2, r2, r2, lsl #1
 8003d2a:	3a1e      	subs	r2, #30
 8003d2c:	f04f 0c07 	mov.w	ip, #7
 8003d30:	fa0c fc02 	lsl.w	ip, ip, r2
 8003d34:	ea20 000c 	bic.w	r0, r0, ip
 8003d38:	688d      	ldr	r5, [r1, #8]
 8003d3a:	fa05 f202 	lsl.w	r2, r5, r2
 8003d3e:	4302      	orrs	r2, r0
 8003d40:	60e2      	str	r2, [r4, #12]
               ADC_SMPR2(sConfig->SamplingTime, sConfig->Channel) );
  }
  
  /* If ADC1 Channel_16 or Channel_17 is selected, enable Temperature sensor  */
  /* and VREFINT measurement path.                                            */
  if ((sConfig->Channel == ADC_CHANNEL_TEMPSENSOR) ||
 8003d42:	680a      	ldr	r2, [r1, #0]
 8003d44:	3a10      	subs	r2, #16
 8003d46:	2a01      	cmp	r2, #1
 8003d48:	d934      	bls.n	8003db4 <HAL_ADC_ConfigChannel+0xd8>
  HAL_StatusTypeDef tmp_hal_status = HAL_OK;
 8003d4a:	2000      	movs	r0, #0
      tmp_hal_status = HAL_ERROR;
    }
  }
  
  /* Process unlocked */
  __HAL_UNLOCK(hadc);
 8003d4c:	2200      	movs	r2, #0
 8003d4e:	f883 2024 	strb.w	r2, [r3, #36]	@ 0x24
  
  /* Return function status */
  return tmp_hal_status;
}
 8003d52:	b002      	add	sp, #8
 8003d54:	bc30      	pop	{r4, r5}
 8003d56:	4770      	bx	lr
  else if (sConfig->Rank < 13U)
 8003d58:	2a0c      	cmp	r2, #12
 8003d5a:	d80d      	bhi.n	8003d78 <HAL_ADC_ConfigChannel+0x9c>
    MODIFY_REG(hadc->Instance->SQR2                        ,
 8003d5c:	6805      	ldr	r5, [r0, #0]
 8003d5e:	6b28      	ldr	r0, [r5, #48]	@ 0x30
 8003d60:	eb02 0282 	add.w	r2, r2, r2, lsl #2
 8003d64:	3a23      	subs	r2, #35	@ 0x23
 8003d66:	241f      	movs	r4, #31
 8003d68:	4094      	lsls	r4, r2
 8003d6a:	ea20 0004 	bic.w	r0, r0, r4
 8003d6e:	680c      	ldr	r4, [r1, #0]
 8003d70:	4094      	lsls	r4, r2
 8003d72:	4320      	orrs	r0, r4
 8003d74:	6328      	str	r0, [r5, #48]	@ 0x30
 8003d76:	e7d1      	b.n	8003d1c <HAL_ADC_ConfigChannel+0x40>
    MODIFY_REG(hadc->Instance->SQR1                        ,
 8003d78:	6805      	ldr	r5, [r0, #0]
 8003d7a:	6ae8      	ldr	r0, [r5, #44]	@ 0x2c
 8003d7c:	eb02 0282 	add.w	r2, r2, r2, lsl #2
 8003d80:	3a41      	subs	r2, #65	@ 0x41
 8003d82:	241f      	movs	r4, #31
 8003d84:	4094      	lsls	r4, r2
 8003d86:	ea20 0004 	bic.w	r0, r0, r4
 8003d8a:	680c      	ldr	r4, [r1, #0]
 8003d8c:	4094      	lsls	r4, r2
 8003d8e:	4320      	orrs	r0, r4
 8003d90:	62e8      	str	r0, [r5, #44]	@ 0x2c
 8003d92:	e7c3      	b.n	8003d1c <HAL_ADC_ConfigChannel+0x40>
    MODIFY_REG(hadc->Instance->SMPR2                             ,
 8003d94:	681c      	ldr	r4, [r3, #0]
 8003d96:	6920      	ldr	r0, [r4, #16]
 8003d98:	eb02 0242 	add.w	r2, r2, r2, lsl #1
 8003d9c:	f04f 0c07 	mov.w	ip, #7
 8003da0:	fa0c fc02 	lsl.w	ip, ip, r2
 8003da4:	ea20 000c 	bic.w	r0, r0, ip
 8003da8:	688d      	ldr	r5, [r1, #8]
 8003daa:	fa05 f202 	lsl.w	r2, r5, r2
 8003dae:	4302      	orrs	r2, r0
 8003db0:	6122      	str	r2, [r4, #16]
 8003db2:	e7c6      	b.n	8003d42 <HAL_ADC_ConfigChannel+0x66>
    if (hadc->Instance == ADC1)
 8003db4:	681a      	ldr	r2, [r3, #0]
 8003db6:	4816      	ldr	r0, [pc, #88]	@ (8003e10 <HAL_ADC_ConfigChannel+0x134>)
 8003db8:	4282      	cmp	r2, r0
 8003dba:	d005      	beq.n	8003dc8 <HAL_ADC_ConfigChannel+0xec>
      SET_BIT(hadc->State, HAL_ADC_STATE_ERROR_CONFIG);
 8003dbc:	6a9a      	ldr	r2, [r3, #40]	@ 0x28
 8003dbe:	f042 0220 	orr.w	r2, r2, #32
 8003dc2:	629a      	str	r2, [r3, #40]	@ 0x28
      tmp_hal_status = HAL_ERROR;
 8003dc4:	2001      	movs	r0, #1
 8003dc6:	e7c1      	b.n	8003d4c <HAL_ADC_ConfigChannel+0x70>
      if (READ_BIT(hadc->Instance->CR2, ADC_CR2_TSVREFE) == RESET)
 8003dc8:	6890      	ldr	r0, [r2, #8]
 8003dca:	f410 0f00 	tst.w	r0, #8388608	@ 0x800000
 8003dce:	d11b      	bne.n	8003e08 <HAL_ADC_ConfigChannel+0x12c>
        SET_BIT(hadc->Instance->CR2, ADC_CR2_TSVREFE);
 8003dd0:	6890      	ldr	r0, [r2, #8]
 8003dd2:	f440 0000 	orr.w	r0, r0, #8388608	@ 0x800000
 8003dd6:	6090      	str	r0, [r2, #8]
        if (sConfig->Channel == ADC_CHANNEL_TEMPSENSOR)
 8003dd8:	680a      	ldr	r2, [r1, #0]
 8003dda:	2a10      	cmp	r2, #16
 8003ddc:	d001      	beq.n	8003de2 <HAL_ADC_ConfigChannel+0x106>
  HAL_StatusTypeDef tmp_hal_status = HAL_OK;
 8003dde:	2000      	movs	r0, #0
 8003de0:	e7b4      	b.n	8003d4c <HAL_ADC_ConfigChannel+0x70>
          wait_loop_index = (ADC_TEMPSENSOR_DELAY_US * (SystemCoreClock / 1000000U));
 8003de2:	4a0c      	ldr	r2, [pc, #48]	@ (8003e14 <HAL_ADC_ConfigChannel+0x138>)
 8003de4:	6812      	ldr	r2, [r2, #0]
 8003de6:	490c      	ldr	r1, [pc, #48]	@ (8003e18 <HAL_ADC_ConfigChannel+0x13c>)
 8003de8:	fba1 1202 	umull	r1, r2, r1, r2
 8003dec:	0c92      	lsrs	r2, r2, #18
 8003dee:	eb02 0282 	add.w	r2, r2, r2, lsl #2
 8003df2:	0052      	lsls	r2, r2, #1
 8003df4:	9201      	str	r2, [sp, #4]
          while(wait_loop_index != 0U)
 8003df6:	e002      	b.n	8003dfe <HAL_ADC_ConfigChannel+0x122>
            wait_loop_index--;
 8003df8:	9a01      	ldr	r2, [sp, #4]
 8003dfa:	3a01      	subs	r2, #1
 8003dfc:	9201      	str	r2, [sp, #4]
          while(wait_loop_index != 0U)
 8003dfe:	9a01      	ldr	r2, [sp, #4]
 8003e00:	2a00      	cmp	r2, #0
 8003e02:	d1f9      	bne.n	8003df8 <HAL_ADC_ConfigChannel+0x11c>
  HAL_StatusTypeDef tmp_hal_status = HAL_OK;
 8003e04:	2000      	movs	r0, #0
 8003e06:	e7a1      	b.n	8003d4c <HAL_ADC_ConfigChannel+0x70>
 8003e08:	2000      	movs	r0, #0
 8003e0a:	e79f      	b.n	8003d4c <HAL_ADC_ConfigChannel+0x70>
  __HAL_LOCK(hadc);
 8003e0c:	2002      	movs	r0, #2
 8003e0e:	e7a0      	b.n	8003d52 <HAL_ADC_ConfigChannel+0x76>
 8003e10:	40012400 	.word	0x40012400
 8003e14:	20000048 	.word	0x20000048
 8003e18:	431bde83 	.word	0x431bde83

08003e1c <ADC_Enable>:
  *         and voltage regulator must be enabled (done into HAL_ADC_Init()).
  * @param  hadc: ADC handle
  * @retval HAL status.
  */
HAL_StatusTypeDef ADC_Enable(ADC_HandleTypeDef* hadc)
{
 8003e1c:	b530      	push	{r4, r5, lr}
 8003e1e:	b083      	sub	sp, #12
  uint32_t tickstart = 0U;
  __IO uint32_t wait_loop_index = 0U;
 8003e20:	2300      	movs	r3, #0
 8003e22:	9301      	str	r3, [sp, #4]
  
  /* ADC enable and wait for ADC ready (in case of ADC is disabled or         */
  /* enabling phase not yet completed: flag ADC ready not yet set).           */
  /* Timeout implemented to not be stuck if ADC cannot be enabled (possible   */
  /* causes: ADC clock not running, ...).                                     */
  if (ADC_IS_ENABLE(hadc) == RESET)
 8003e24:	6803      	ldr	r3, [r0, #0]
 8003e26:	689a      	ldr	r2, [r3, #8]
 8003e28:	f012 0f01 	tst.w	r2, #1
 8003e2c:	d133      	bne.n	8003e96 <ADC_Enable+0x7a>
 8003e2e:	4604      	mov	r4, r0
  {
    /* Enable the Peripheral */
    __HAL_ADC_ENABLE(hadc);
 8003e30:	689a      	ldr	r2, [r3, #8]
 8003e32:	f042 0201 	orr.w	r2, r2, #1
 8003e36:	609a      	str	r2, [r3, #8]
    
    /* Delay for ADC stabilization time */
    /* Compute number of CPU cycles to wait for */
    wait_loop_index = (ADC_STAB_DELAY_US * (SystemCoreClock / 1000000U));
 8003e38:	4b18      	ldr	r3, [pc, #96]	@ (8003e9c <ADC_Enable+0x80>)
 8003e3a:	681b      	ldr	r3, [r3, #0]
 8003e3c:	4a18      	ldr	r2, [pc, #96]	@ (8003ea0 <ADC_Enable+0x84>)
 8003e3e:	fba2 2303 	umull	r2, r3, r2, r3
 8003e42:	0c9b      	lsrs	r3, r3, #18
 8003e44:	9301      	str	r3, [sp, #4]
    while(wait_loop_index != 0U)
 8003e46:	e002      	b.n	8003e4e <ADC_Enable+0x32>
    {
      wait_loop_index--;
 8003e48:	9b01      	ldr	r3, [sp, #4]
 8003e4a:	3b01      	subs	r3, #1
 8003e4c:	9301      	str	r3, [sp, #4]
    while(wait_loop_index != 0U)
 8003e4e:	9b01      	ldr	r3, [sp, #4]
 8003e50:	2b00      	cmp	r3, #0
 8003e52:	d1f9      	bne.n	8003e48 <ADC_Enable+0x2c>
    }
    
    /* Get tick count */
    tickstart = HAL_GetTick();
 8003e54:	f7ff ff24 	bl	8003ca0 <HAL_GetTick>
 8003e58:	4605      	mov	r5, r0

    /* Wait for ADC effectively enabled */
    while(ADC_IS_ENABLE(hadc) == RESET)
 8003e5a:	6823      	ldr	r3, [r4, #0]
 8003e5c:	689b      	ldr	r3, [r3, #8]
 8003e5e:	f013 0f01 	tst.w	r3, #1
 8003e62:	d116      	bne.n	8003e92 <ADC_Enable+0x76>
    {
      if((HAL_GetTick() - tickstart) > ADC_ENABLE_TIMEOUT)
 8003e64:	f7ff ff1c 	bl	8003ca0 <HAL_GetTick>
 8003e68:	1b43      	subs	r3, r0, r5
 8003e6a:	2b02      	cmp	r3, #2
 8003e6c:	d9f5      	bls.n	8003e5a <ADC_Enable+0x3e>
      {
        /* New check to avoid false timeout detection in case of preemption */
        if(ADC_IS_ENABLE(hadc) == RESET)
 8003e6e:	6823      	ldr	r3, [r4, #0]
 8003e70:	689b      	ldr	r3, [r3, #8]
 8003e72:	f013 0f01 	tst.w	r3, #1
 8003e76:	d1f0      	bne.n	8003e5a <ADC_Enable+0x3e>
        {
          /* Update ADC state machine to error */
          SET_BIT(hadc->State, HAL_ADC_STATE_ERROR_INTERNAL);
 8003e78:	6aa3      	ldr	r3, [r4, #40]	@ 0x28
 8003e7a:	f043 0310 	orr.w	r3, r3, #16
 8003e7e:	62a3      	str	r3, [r4, #40]	@ 0x28

          /* Set ADC error code to ADC IP internal error */
          SET_BIT(hadc->ErrorCode, HAL_ADC_ERROR_INTERNAL);
 8003e80:	6ae3      	ldr	r3, [r4, #44]	@ 0x2c
 8003e82:	f043 0301 	orr.w	r3, r3, #1
 8003e86:	62e3      	str	r3, [r4, #44]	@ 0x2c

          /* Process unlocked */
          __HAL_UNLOCK(hadc);
 8003e88:	2300      	movs	r3, #0
 8003e8a:	f884 3024 	strb.w	r3, [r4, #36]	@ 0x24

          return HAL_ERROR;
 8003e8e:	2001      	movs	r0, #1
 8003e90:	e002      	b.n	8003e98 <ADC_Enable+0x7c>
      }
    }
  }
   
  /* Return HAL status */
  return HAL_OK;
 8003e92:	2000      	movs	r0, #0
 8003e94:	e000      	b.n	8003e98 <ADC_Enable+0x7c>
 8003e96:	2000      	movs	r0, #0
}
 8003e98:	b003      	add	sp, #12
 8003e9a:	bd30      	pop	{r4, r5, pc}
 8003e9c:	20000048 	.word	0x20000048
 8003ea0:	431bde83 	.word	0x431bde83

08003ea4 <HAL_ADC_Start>:
  __HAL_LOCK(hadc);
 8003ea4:	f890 3024 	ldrb.w	r3, [r0, #36]	@ 0x24
 8003ea8:	2b01      	cmp	r3, #1
 8003eaa:	d068      	beq.n	8003f7e <HAL_ADC_Start+0xda>
{
 8003eac:	b510      	push	{r4, lr}
 8003eae:	4604      	mov	r4, r0
  __HAL_LOCK(hadc);
 8003eb0:	2301      	movs	r3, #1
 8003eb2:	f880 3024 	strb.w	r3, [r0, #36]	@ 0x24
  tmp_hal_status = ADC_Enable(hadc);
 8003eb6:	f7ff ffb1 	bl	8003e1c <ADC_Enable>
  if (tmp_hal_status == HAL_OK)
 8003eba:	2800      	cmp	r0, #0
 8003ebc:	d15b      	bne.n	8003f76 <HAL_ADC_Start+0xd2>
    ADC_STATE_CLR_SET(hadc->State,
 8003ebe:	6aa3      	ldr	r3, [r4, #40]	@ 0x28
 8003ec0:	f423 7340 	bic.w	r3, r3, #768	@ 0x300
 8003ec4:	f023 0301 	bic.w	r3, r3, #1
 8003ec8:	f443 7380 	orr.w	r3, r3, #256	@ 0x100
 8003ecc:	62a3      	str	r3, [r4, #40]	@ 0x28
    if (ADC_NONMULTIMODE_OR_MULTIMODEMASTER(hadc))
 8003ece:	6823      	ldr	r3, [r4, #0]
 8003ed0:	4a2c      	ldr	r2, [pc, #176]	@ (8003f84 <HAL_ADC_Start+0xe0>)
 8003ed2:	4293      	cmp	r3, r2
 8003ed4:	d027      	beq.n	8003f26 <HAL_ADC_Start+0x82>
      CLEAR_BIT(hadc->State, HAL_ADC_STATE_MULTIMODE_SLAVE);
 8003ed6:	6aa2      	ldr	r2, [r4, #40]	@ 0x28
 8003ed8:	f422 1280 	bic.w	r2, r2, #1048576	@ 0x100000
 8003edc:	62a2      	str	r2, [r4, #40]	@ 0x28
      if (READ_BIT(hadc->Instance->CR1, ADC_CR1_JAUTO) != RESET)
 8003ede:	685a      	ldr	r2, [r3, #4]
 8003ee0:	f412 6f80 	tst.w	r2, #1024	@ 0x400
 8003ee4:	d005      	beq.n	8003ef2 <HAL_ADC_Start+0x4e>
        ADC_STATE_CLR_SET(hadc->State, HAL_ADC_STATE_INJ_EOC, HAL_ADC_STATE_INJ_BUSY);  
 8003ee6:	6aa2      	ldr	r2, [r4, #40]	@ 0x28
 8003ee8:	f422 5240 	bic.w	r2, r2, #12288	@ 0x3000
 8003eec:	f442 5280 	orr.w	r2, r2, #4096	@ 0x1000
 8003ef0:	62a2      	str	r2, [r4, #40]	@ 0x28
    if (HAL_IS_BIT_SET(hadc->State, HAL_ADC_STATE_INJ_BUSY))
 8003ef2:	6aa2      	ldr	r2, [r4, #40]	@ 0x28
 8003ef4:	f412 5f80 	tst.w	r2, #4096	@ 0x1000
 8003ef8:	d02b      	beq.n	8003f52 <HAL_ADC_Start+0xae>
      CLEAR_BIT(hadc->ErrorCode, (HAL_ADC_ERROR_OVR | HAL_ADC_ERROR_DMA));         
 8003efa:	6ae2      	ldr	r2, [r4, #44]	@ 0x2c
 8003efc:	f022 0206 	bic.w	r2, r2, #6
 8003f00:	62e2      	str	r2, [r4, #44]	@ 0x2c
    __HAL_UNLOCK(hadc);
 8003f02:	2200      	movs	r2, #0
 8003f04:	f884 2024 	strb.w	r2, [r4, #36]	@ 0x24
    __HAL_ADC_CLEAR_FLAG(hadc, ADC_FLAG_EOC);
 8003f08:	f06f 0202 	mvn.w	r2, #2
 8003f0c:	601a      	str	r2, [r3, #0]
    if (ADC_IS_SOFTWARE_START_REGULAR(hadc)      &&
 8003f0e:	6823      	ldr	r3, [r4, #0]
 8003f10:	689a      	ldr	r2, [r3, #8]
 8003f12:	f402 2260 	and.w	r2, r2, #917504	@ 0xe0000
 8003f16:	f5b2 2f60 	cmp.w	r2, #917504	@ 0xe0000
 8003f1a:	d01d      	beq.n	8003f58 <HAL_ADC_Start+0xb4>
      SET_BIT(hadc->Instance->CR2, ADC_CR2_EXTTRIG);
 8003f1c:	689a      	ldr	r2, [r3, #8]
 8003f1e:	f442 1280 	orr.w	r2, r2, #1048576	@ 0x100000
 8003f22:	609a      	str	r2, [r3, #8]
 8003f24:	e02a      	b.n	8003f7c <HAL_ADC_Start+0xd8>
    if (ADC_NONMULTIMODE_OR_MULTIMODEMASTER(hadc))
 8003f26:	f5a2 6280 	sub.w	r2, r2, #1024	@ 0x400
 8003f2a:	6852      	ldr	r2, [r2, #4]
 8003f2c:	f412 2f70 	tst.w	r2, #983040	@ 0xf0000
 8003f30:	d0d1      	beq.n	8003ed6 <HAL_ADC_Start+0x32>
      SET_BIT(hadc->State, HAL_ADC_STATE_MULTIMODE_SLAVE);
 8003f32:	6aa2      	ldr	r2, [r4, #40]	@ 0x28
 8003f34:	f442 1280 	orr.w	r2, r2, #1048576	@ 0x100000
 8003f38:	62a2      	str	r2, [r4, #40]	@ 0x28
      if (ADC_MULTIMODE_AUTO_INJECTED(hadc))
 8003f3a:	4a13      	ldr	r2, [pc, #76]	@ (8003f88 <HAL_ADC_Start+0xe4>)
 8003f3c:	6852      	ldr	r2, [r2, #4]
 8003f3e:	f412 6f80 	tst.w	r2, #1024	@ 0x400
 8003f42:	d0d6      	beq.n	8003ef2 <HAL_ADC_Start+0x4e>
        ADC_STATE_CLR_SET(hadc->State, HAL_ADC_STATE_INJ_EOC, HAL_ADC_STATE_INJ_BUSY);
 8003f44:	6aa2      	ldr	r2, [r4, #40]	@ 0x28
 8003f46:	f422 5240 	bic.w	r2, r2, #12288	@ 0x3000
 8003f4a:	f442 5280 	orr.w	r2, r2, #4096	@ 0x1000
 8003f4e:	62a2      	str	r2, [r4, #40]	@ 0x28
 8003f50:	e7cf      	b.n	8003ef2 <HAL_ADC_Start+0x4e>
      ADC_CLEAR_ERRORCODE(hadc);
 8003f52:	2200      	movs	r2, #0
 8003f54:	62e2      	str	r2, [r4, #44]	@ 0x2c
 8003f56:	e7d4      	b.n	8003f02 <HAL_ADC_Start+0x5e>
    if (ADC_IS_SOFTWARE_START_REGULAR(hadc)      &&
 8003f58:	4a0a      	ldr	r2, [pc, #40]	@ (8003f84 <HAL_ADC_Start+0xe0>)
 8003f5a:	4293      	cmp	r3, r2
 8003f5c:	d004      	beq.n	8003f68 <HAL_ADC_Start+0xc4>
      SET_BIT(hadc->Instance->CR2, (ADC_CR2_SWSTART | ADC_CR2_EXTTRIG));
 8003f5e:	689a      	ldr	r2, [r3, #8]
 8003f60:	f442 02a0 	orr.w	r2, r2, #5242880	@ 0x500000
 8003f64:	609a      	str	r2, [r3, #8]
 8003f66:	e009      	b.n	8003f7c <HAL_ADC_Start+0xd8>
        ADC_NONMULTIMODE_OR_MULTIMODEMASTER(hadc)  )
 8003f68:	f5a2 6280 	sub.w	r2, r2, #1024	@ 0x400
 8003f6c:	6852      	ldr	r2, [r2, #4]
    if (ADC_IS_SOFTWARE_START_REGULAR(hadc)      &&
 8003f6e:	f412 2f70 	tst.w	r2, #983040	@ 0xf0000
 8003f72:	d1d3      	bne.n	8003f1c <HAL_ADC_Start+0x78>
 8003f74:	e7f3      	b.n	8003f5e <HAL_ADC_Start+0xba>
    __HAL_UNLOCK(hadc);
 8003f76:	2300      	movs	r3, #0
 8003f78:	f884 3024 	strb.w	r3, [r4, #36]	@ 0x24
}
 8003f7c:	bd10      	pop	{r4, pc}
  __HAL_LOCK(hadc);
 8003f7e:	2002      	movs	r0, #2
}
 8003f80:	4770      	bx	lr
 8003f82:	bf00      	nop
 8003f84:	40012800 	.word	0x40012800
 8003f88:	40012400 	.word	0x40012400

08003f8c <ADC_ConversionStop_Disable>:
  *         stopped to disable the ADC.
  * @param  hadc: ADC handle
  * @retval HAL status.
  */
HAL_StatusTypeDef ADC_ConversionStop_Disable(ADC_HandleTypeDef* hadc)
{
 8003f8c:	b538      	push	{r3, r4, r5, lr}
  uint32_t tickstart = 0U;
  
  /* Verification if ADC is not already disabled */
  if (ADC_IS_ENABLE(hadc) != RESET)
 8003f8e:	6803      	ldr	r3, [r0, #0]
 8003f90:	689a      	ldr	r2, [r3, #8]
 8003f92:	f012 0f01 	tst.w	r2, #1
 8003f96:	d101      	bne.n	8003f9c <ADC_ConversionStop_Disable+0x10>
      }
    }
  }
  
  /* Return HAL status */
  return HAL_OK;
 8003f98:	2000      	movs	r0, #0
}
 8003f9a:	bd38      	pop	{r3, r4, r5, pc}
 8003f9c:	4604      	mov	r4, r0
    __HAL_ADC_DISABLE(hadc);
 8003f9e:	689a      	ldr	r2, [r3, #8]
 8003fa0:	f022 0201 	bic.w	r2, r2, #1
 8003fa4:	609a      	str	r2, [r3, #8]
    tickstart = HAL_GetTick();
 8003fa6:	f7ff fe7b 	bl	8003ca0 <HAL_GetTick>
 8003faa:	4605      	mov	r5, r0
    while(ADC_IS_ENABLE(hadc) != RESET)
 8003fac:	6823      	ldr	r3, [r4, #0]
 8003fae:	689b      	ldr	r3, [r3, #8]
 8003fb0:	f013 0f01 	tst.w	r3, #1
 8003fb4:	d013      	beq.n	8003fde <ADC_ConversionStop_Disable+0x52>
      if((HAL_GetTick() - tickstart) > ADC_DISABLE_TIMEOUT)
 8003fb6:	f7ff fe73 	bl	8003ca0 <HAL_GetTick>
 8003fba:	1b43      	subs	r3, r0, r5
 8003fbc:	2b02      	cmp	r3, #2
 8003fbe:	d9f5      	bls.n	8003fac <ADC_ConversionStop_Disable+0x20>
        if(ADC_IS_ENABLE(hadc) != RESET)
 8003fc0:	6823      	ldr	r3, [r4, #0]
 8003fc2:	689b      	ldr	r3, [r3, #8]
 8003fc4:	f013 0f01 	tst.w	r3, #1
 8003fc8:	d0f0      	beq.n	8003fac <ADC_ConversionStop_Disable+0x20>
          SET_BIT(hadc->State, HAL_ADC_STATE_ERROR_INTERNAL);
 8003fca:	6aa3      	ldr	r3, [r4, #40]	@ 0x28
 8003fcc:	f043 0310 	orr.w	r3, r3, #16
 8003fd0:	62a3      	str	r3, [r4, #40]	@ 0x28
          SET_BIT(hadc->ErrorCode, HAL_ADC_ERROR_INTERNAL);
 8003fd2:	6ae3      	ldr	r3, [r4, #44]	@ 0x2c
 8003fd4:	f043 0301 	orr.w	r3, r3, #1
 8003fd8:	62e3      	str	r3, [r4, #44]	@ 0x2c
          return HAL_ERROR;
 8003fda:	2001      	movs	r0, #1
 8003fdc:	e7dd      	b.n	8003f9a <ADC_ConversionStop_Disable+0xe>
  return HAL_OK;
 8003fde:	2000      	movs	r0, #0
 8003fe0:	e7db      	b.n	8003f9a <ADC_ConversionStop_Disable+0xe>
	...

08003fe4 <HAL_ADC_Init>:
  if(hadc == NULL)
 8003fe4:	2800      	cmp	r0, #0
 8003fe6:	d07b      	beq.n	80040e0 <HAL_ADC_Init+0xfc>
{
 8003fe8:	b570      	push	{r4, r5, r6, lr}
 8003fea:	4604      	mov	r4, r0
  if (hadc->State == HAL_ADC_STATE_RESET)
 8003fec:	6a83      	ldr	r3, [r0, #40]	@ 0x28
 8003fee:	2b00      	cmp	r3, #0
 8003ff0:	d04d      	beq.n	800408e <HAL_ADC_Init+0xaa>
  tmp_hal_status = ADC_ConversionStop_Disable(hadc);
 8003ff2:	4620      	mov	r0, r4
 8003ff4:	f7ff ffca 	bl	8003f8c <ADC_ConversionStop_Disable>
  if (HAL_IS_BIT_CLR(hadc->State, HAL_ADC_STATE_ERROR_INTERNAL) &&
 8003ff8:	6aa3      	ldr	r3, [r4, #40]	@ 0x28
 8003ffa:	f013 0310 	ands.w	r3, r3, #16
 8003ffe:	d169      	bne.n	80040d4 <HAL_ADC_Init+0xf0>
 8004000:	2800      	cmp	r0, #0
 8004002:	d167      	bne.n	80040d4 <HAL_ADC_Init+0xf0>
    ADC_STATE_CLR_SET(hadc->State,
 8004004:	6aa2      	ldr	r2, [r4, #40]	@ 0x28
 8004006:	f422 5288 	bic.w	r2, r2, #4352	@ 0x1100
 800400a:	f022 0202 	bic.w	r2, r2, #2
 800400e:	f042 0202 	orr.w	r2, r2, #2
 8004012:	62a2      	str	r2, [r4, #40]	@ 0x28
    tmp_cr2 |= (hadc->Init.DataAlign                                          |
 8004014:	6862      	ldr	r2, [r4, #4]
                ADC_CFGR_EXTSEL(hadc, hadc->Init.ExternalTrigConv)            |
 8004016:	69e1      	ldr	r1, [r4, #28]
    tmp_cr2 |= (hadc->Init.DataAlign                                          |
 8004018:	430a      	orrs	r2, r1
                ADC_CR2_CONTINUOUS((uint32_t)hadc->Init.ContinuousConvMode)   );
 800401a:	7b21      	ldrb	r1, [r4, #12]
                ADC_CFGR_EXTSEL(hadc, hadc->Init.ExternalTrigConv)            |
 800401c:	ea42 0241 	orr.w	r2, r2, r1, lsl #1
    tmp_cr1 |= (ADC_CR1_SCAN_SET(hadc->Init.ScanConvMode));
 8004020:	68a5      	ldr	r5, [r4, #8]
 8004022:	f5b5 7f80 	cmp.w	r5, #256	@ 0x100
 8004026:	d002      	beq.n	800402e <HAL_ADC_Init+0x4a>
 8004028:	2d01      	cmp	r5, #1
 800402a:	d036      	beq.n	800409a <HAL_ADC_Init+0xb6>
 800402c:	461d      	mov	r5, r3
    if (hadc->Init.DiscontinuousConvMode == ENABLE)
 800402e:	7d26      	ldrb	r6, [r4, #20]
 8004030:	2e01      	cmp	r6, #1
 8004032:	d035      	beq.n	80040a0 <HAL_ADC_Init+0xbc>
      MODIFY_REG(hadc->Instance->CR1,
 8004034:	6826      	ldr	r6, [r4, #0]
 8004036:	6871      	ldr	r1, [r6, #4]
 8004038:	f421 4169 	bic.w	r1, r1, #59648	@ 0xe900
 800403c:	4329      	orrs	r1, r5
 800403e:	6071      	str	r1, [r6, #4]
      MODIFY_REG(hadc->Instance->CR2,
 8004040:	6825      	ldr	r5, [r4, #0]
 8004042:	68ae      	ldr	r6, [r5, #8]
 8004044:	4927      	ldr	r1, [pc, #156]	@ (80040e4 <HAL_ADC_Init+0x100>)
 8004046:	4031      	ands	r1, r6
 8004048:	4311      	orrs	r1, r2
 800404a:	60a9      	str	r1, [r5, #8]
    if (ADC_CR1_SCAN_SET(hadc->Init.ScanConvMode) == ADC_SCAN_ENABLE)
 800404c:	68a1      	ldr	r1, [r4, #8]
 800404e:	f5b1 7f80 	cmp.w	r1, #256	@ 0x100
 8004052:	d001      	beq.n	8004058 <HAL_ADC_Init+0x74>
 8004054:	2901      	cmp	r1, #1
 8004056:	d102      	bne.n	800405e <HAL_ADC_Init+0x7a>
      tmp_sqr1 = ADC_SQR1_L_SHIFT(hadc->Init.NbrOfConversion);
 8004058:	6923      	ldr	r3, [r4, #16]
 800405a:	3b01      	subs	r3, #1
 800405c:	051b      	lsls	r3, r3, #20
    MODIFY_REG(hadc->Instance->SQR1,
 800405e:	6825      	ldr	r5, [r4, #0]
 8004060:	6ae9      	ldr	r1, [r5, #44]	@ 0x2c
 8004062:	f421 0170 	bic.w	r1, r1, #15728640	@ 0xf00000
 8004066:	430b      	orrs	r3, r1
 8004068:	62eb      	str	r3, [r5, #44]	@ 0x2c
    if (READ_BIT(hadc->Instance->CR2, ~(ADC_CR2_ADON | ADC_CR2_DMA |
 800406a:	6823      	ldr	r3, [r4, #0]
 800406c:	6899      	ldr	r1, [r3, #8]
 800406e:	4b1e      	ldr	r3, [pc, #120]	@ (80040e8 <HAL_ADC_Init+0x104>)
 8004070:	400b      	ands	r3, r1
 8004072:	429a      	cmp	r2, r3
 8004074:	d025      	beq.n	80040c2 <HAL_ADC_Init+0xde>
      ADC_STATE_CLR_SET(hadc->State,
 8004076:	6aa3      	ldr	r3, [r4, #40]	@ 0x28
 8004078:	f023 0312 	bic.w	r3, r3, #18
 800407c:	f043 0310 	orr.w	r3, r3, #16
 8004080:	62a3      	str	r3, [r4, #40]	@ 0x28
      SET_BIT(hadc->ErrorCode, HAL_ADC_ERROR_INTERNAL);
 8004082:	6ae3      	ldr	r3, [r4, #44]	@ 0x2c
 8004084:	f043 0301 	orr.w	r3, r3, #1
 8004088:	62e3      	str	r3, [r4, #44]	@ 0x2c
      tmp_hal_status = HAL_ERROR;
 800408a:	2001      	movs	r0, #1
 800408c:	e027      	b.n	80040de <HAL_ADC_Init+0xfa>
    ADC_CLEAR_ERRORCODE(hadc);
 800408e:	62c3      	str	r3, [r0, #44]	@ 0x2c
    hadc->Lock = HAL_UNLOCKED;
 8004090:	f880 3024 	strb.w	r3, [r0, #36]	@ 0x24
    HAL_ADC_MspInit(hadc);
 8004094:	f7ff fc10 	bl	80038b8 <HAL_ADC_MspInit>
 8004098:	e7ab      	b.n	8003ff2 <HAL_ADC_Init+0xe>
    tmp_cr1 |= (ADC_CR1_SCAN_SET(hadc->Init.ScanConvMode));
 800409a:	f44f 7580 	mov.w	r5, #256	@ 0x100
 800409e:	e7c6      	b.n	800402e <HAL_ADC_Init+0x4a>
      if (hadc->Init.ContinuousConvMode == DISABLE)
 80040a0:	b931      	cbnz	r1, 80040b0 <HAL_ADC_Init+0xcc>
        SET_BIT(tmp_cr1, ADC_CR1_DISCEN                                            |
 80040a2:	69a1      	ldr	r1, [r4, #24]
 80040a4:	3901      	subs	r1, #1
 80040a6:	ea45 3141 	orr.w	r1, r5, r1, lsl #13
 80040aa:	f441 6500 	orr.w	r5, r1, #2048	@ 0x800
 80040ae:	e7c1      	b.n	8004034 <HAL_ADC_Init+0x50>
        SET_BIT(hadc->State, HAL_ADC_STATE_ERROR_CONFIG);
 80040b0:	6aa1      	ldr	r1, [r4, #40]	@ 0x28
 80040b2:	f041 0120 	orr.w	r1, r1, #32
 80040b6:	62a1      	str	r1, [r4, #40]	@ 0x28
        SET_BIT(hadc->ErrorCode, HAL_ADC_ERROR_INTERNAL);
 80040b8:	6ae1      	ldr	r1, [r4, #44]	@ 0x2c
 80040ba:	f041 0101 	orr.w	r1, r1, #1
 80040be:	62e1      	str	r1, [r4, #44]	@ 0x2c
 80040c0:	e7b8      	b.n	8004034 <HAL_ADC_Init+0x50>
      ADC_CLEAR_ERRORCODE(hadc);
 80040c2:	2300      	movs	r3, #0
 80040c4:	62e3      	str	r3, [r4, #44]	@ 0x2c
      ADC_STATE_CLR_SET(hadc->State,
 80040c6:	6aa3      	ldr	r3, [r4, #40]	@ 0x28
 80040c8:	f023 0303 	bic.w	r3, r3, #3
 80040cc:	f043 0301 	orr.w	r3, r3, #1
 80040d0:	62a3      	str	r3, [r4, #40]	@ 0x28
 80040d2:	e004      	b.n	80040de <HAL_ADC_Init+0xfa>
    SET_BIT(hadc->State, HAL_ADC_STATE_ERROR_INTERNAL);
 80040d4:	6aa3      	ldr	r3, [r4, #40]	@ 0x28
 80040d6:	f043 0310 	orr.w	r3, r3, #16
 80040da:	62a3      	str	r3, [r4, #40]	@ 0x28
    tmp_hal_status = HAL_ERROR;
 80040dc:	2001      	movs	r0, #1
}
 80040de:	bd70      	pop	{r4, r5, r6, pc}
    return HAL_ERROR;
 80040e0:	2001      	movs	r0, #1
}
 80040e2:	4770      	bx	lr
 80040e4:	ffe1f7fd 	.word	0xffe1f7fd
 80040e8:	ff1f0efe 	.word	0xff1f0efe

080040ec <__NVIC_SetPriority>:
  \param [in]  priority  Priority to set.
  \note    The priority cannot be set for every processor exception.
 */
__STATIC_INLINE void __NVIC_SetPriority(IRQn_Type IRQn, uint32_t priority)
{
  if ((int32_t)(IRQn) >= 0)
 80040ec:	2800      	cmp	r0, #0
 80040ee:	db08      	blt.n	8004102 <__NVIC_SetPriority+0x16>
  {
    NVIC->IP[((uint32_t)IRQn)]               = (uint8_t)((priority << (8U - __NVIC_PRIO_BITS)) & (uint32_t)0xFFUL);
 80040f0:	0109      	lsls	r1, r1, #4
 80040f2:	b2c9      	uxtb	r1, r1
 80040f4:	f100 4060 	add.w	r0, r0, #3758096384	@ 0xe0000000
 80040f8:	f500 4061 	add.w	r0, r0, #57600	@ 0xe100
 80040fc:	f880 1300 	strb.w	r1, [r0, #768]	@ 0x300
 8004100:	4770      	bx	lr
  }
  else
  {
    SCB->SHP[(((uint32_t)IRQn) & 0xFUL)-4UL] = (uint8_t)((priority << (8U - __NVIC_PRIO_BITS)) & (uint32_t)0xFFUL);
 8004102:	f000 000f 	and.w	r0, r0, #15
 8004106:	0109      	lsls	r1, r1, #4
 8004108:	b2c9      	uxtb	r1, r1
 800410a:	4b01      	ldr	r3, [pc, #4]	@ (8004110 <__NVIC_SetPriority+0x24>)
 800410c:	5419      	strb	r1, [r3, r0]
  }
}
 800410e:	4770      	bx	lr
 8004110:	e000ed14 	.word	0xe000ed14

08004114 <NVIC_EncodePriority>:
  \param [in]   PreemptPriority  Preemptive priority value (starting from 0).
  \param [in]       SubPriority  Subpriority value (starting from 0).
  \return                        Encoded priority. Value can be used in the function \ref NVIC_SetPriority().
 */
__STATIC_INLINE uint32_t NVIC_EncodePriority (uint32_t PriorityGroup, uint32_t PreemptPriority, uint32_t SubPriority)
{
 8004114:	b500      	push	{lr}
  uint32_t PriorityGroupTmp = (PriorityGroup & (uint32_t)0x07UL);   /* only values 0..7 are used          */
 8004116:	f000 0007 	and.w	r0, r0, #7
  uint32_t PreemptPriorityBits;
  uint32_t SubPriorityBits;

  PreemptPriorityBits = ((7UL - PriorityGroupTmp) > (uint32_t)(__NVIC_PRIO_BITS)) ? (uint32_t)(__NVIC_PRIO_BITS) : (uint32_t)(7UL - PriorityGroupTmp);
 800411a:	f1c0 0c07 	rsb	ip, r0, #7
 800411e:	f1bc 0f04 	cmp.w	ip, #4
 8004122:	bf28      	it	cs
 8004124:	f04f 0c04 	movcs.w	ip, #4
  SubPriorityBits     = ((PriorityGroupTmp + (uint32_t)(__NVIC_PRIO_BITS)) < (uint32_t)7UL) ? (uint32_t)0UL : (uint32_t)((PriorityGroupTmp - 7UL) + (uint32_t)(__NVIC_PRIO_BITS));
 8004128:	1d03      	adds	r3, r0, #4
 800412a:	2b06      	cmp	r3, #6
 800412c:	d90f      	bls.n	800414e <NVIC_EncodePriority+0x3a>
 800412e:	1ec3      	subs	r3, r0, #3

  return (
           ((PreemptPriority & (uint32_t)((1UL << (PreemptPriorityBits)) - 1UL)) << SubPriorityBits) |
 8004130:	f04f 3eff 	mov.w	lr, #4294967295
 8004134:	fa0e f00c 	lsl.w	r0, lr, ip
 8004138:	ea21 0100 	bic.w	r1, r1, r0
 800413c:	4099      	lsls	r1, r3
           ((SubPriority     & (uint32_t)((1UL << (SubPriorityBits    )) - 1UL)))
 800413e:	fa0e fe03 	lsl.w	lr, lr, r3
 8004142:	ea22 020e 	bic.w	r2, r2, lr
         );
}
 8004146:	ea41 0002 	orr.w	r0, r1, r2
 800414a:	f85d fb04 	ldr.w	pc, [sp], #4
  SubPriorityBits     = ((PriorityGroupTmp + (uint32_t)(__NVIC_PRIO_BITS)) < (uint32_t)7UL) ? (uint32_t)0UL : (uint32_t)((PriorityGroupTmp - 7UL) + (uint32_t)(__NVIC_PRIO_BITS));
 800414e:	2300      	movs	r3, #0
 8004150:	e7ee      	b.n	8004130 <NVIC_EncodePriority+0x1c>
	...

08004154 <HAL_NVIC_SetPriorityGrouping>:
  reg_value  =  SCB->AIRCR;                                                   /* read old register configuration    */
 8004154:	4a07      	ldr	r2, [pc, #28]	@ (8004174 <HAL_NVIC_SetPriorityGrouping+0x20>)
 8004156:	68d3      	ldr	r3, [r2, #12]
  reg_value &= ~((uint32_t)(SCB_AIRCR_VECTKEY_Msk | SCB_AIRCR_PRIGROUP_Msk)); /* clear bits to change               */
 8004158:	f423 63e0 	bic.w	r3, r3, #1792	@ 0x700
 800415c:	041b      	lsls	r3, r3, #16
 800415e:	0c1b      	lsrs	r3, r3, #16
                (PriorityGroupTmp << SCB_AIRCR_PRIGROUP_Pos) );               /* Insert write key and priority group */
 8004160:	0200      	lsls	r0, r0, #8
 8004162:	f400 60e0 	and.w	r0, r0, #1792	@ 0x700
                ((uint32_t)0x5FAUL << SCB_AIRCR_VECTKEY_Pos) |
 8004166:	4303      	orrs	r3, r0
  reg_value  =  (reg_value                                   |
 8004168:	f043 63bf 	orr.w	r3, r3, #100139008	@ 0x5f80000
 800416c:	f443 3300 	orr.w	r3, r3, #131072	@ 0x20000
  SCB->AIRCR =  reg_value;
 8004170:	60d3      	str	r3, [r2, #12]
  /* Check the parameters */
  assert_param(IS_NVIC_PRIORITY_GROUP(PriorityGroup));
  
  /* Set the PRIGROUP[10:8] bits according to the PriorityGroup parameter value */
  NVIC_SetPriorityGrouping(PriorityGroup);
}
 8004172:	4770      	bx	lr
 8004174:	e000ed00 	.word	0xe000ed00

08004178 <HAL_NVIC_SetPriority>:
  *         This parameter can be a value between 0 and 15
  *         A lower priority value indicates a higher priority.          
  * @retval None
  */
void HAL_NVIC_SetPriority(IRQn_Type IRQn, uint32_t PreemptPriority, uint32_t SubPriority)
{ 
 8004178:	b510      	push	{r4, lr}
 800417a:	4604      	mov	r4, r0
  return ((uint32_t)((SCB->AIRCR & SCB_AIRCR_PRIGROUP_Msk) >> SCB_AIRCR_PRIGROUP_Pos));
 800417c:	4b05      	ldr	r3, [pc, #20]	@ (8004194 <HAL_NVIC_SetPriority+0x1c>)
 800417e:	68d8      	ldr	r0, [r3, #12]
  assert_param(IS_NVIC_SUB_PRIORITY(SubPriority));
  assert_param(IS_NVIC_PREEMPTION_PRIORITY(PreemptPriority));
  
  prioritygroup = NVIC_GetPriorityGrouping();
  
  NVIC_SetPriority(IRQn, NVIC_EncodePriority(prioritygroup, PreemptPriority, SubPriority));
 8004180:	f3c0 2002 	ubfx	r0, r0, #8, #3
 8004184:	f7ff ffc6 	bl	8004114 <NVIC_EncodePriority>
 8004188:	4601      	mov	r1, r0
 800418a:	4620      	mov	r0, r4
 800418c:	f7ff ffae 	bl	80040ec <__NVIC_SetPriority>
}
 8004190:	bd10      	pop	{r4, pc}
 8004192:	bf00      	nop
 8004194:	e000ed00 	.word	0xe000ed00

08004198 <HAL_NVIC_EnableIRQ>:
  if ((int32_t)(IRQn) >= 0)
 8004198:	2800      	cmp	r0, #0
 800419a:	db07      	blt.n	80041ac <HAL_NVIC_EnableIRQ+0x14>
    NVIC->ISER[(((uint32_t)IRQn) >> 5UL)] = (uint32_t)(1UL << (((uint32_t)IRQn) & 0x1FUL));
 800419c:	f000 021f 	and.w	r2, r0, #31
 80041a0:	0940      	lsrs	r0, r0, #5
 80041a2:	2301      	movs	r3, #1
 80041a4:	4093      	lsls	r3, r2
 80041a6:	4a02      	ldr	r2, [pc, #8]	@ (80041b0 <HAL_NVIC_EnableIRQ+0x18>)
 80041a8:	f842 3020 	str.w	r3, [r2, r0, lsl #2]
  /* Check the parameters */
  assert_param(IS_NVIC_DEVICE_IRQ(IRQn));

  /* Enable interrupt */
  NVIC_EnableIRQ(IRQn);
}
 80041ac:	4770      	bx	lr
 80041ae:	bf00      	nop
 80041b0:	e000e100 	.word	0xe000e100

080041b4 <HAL_DMA_Abort>:
  * @param  hdma: pointer to a DMA_HandleTypeDef structure that contains
  *               the configuration information for the specified DMA Channel.
  * @retval HAL status
  */
HAL_StatusTypeDef HAL_DMA_Abort(DMA_HandleTypeDef *hdma)
{
 80041b4:	4603      	mov	r3, r0
  HAL_StatusTypeDef status = HAL_OK;
  
  if(hdma->State != HAL_DMA_STATE_BUSY)
 80041b6:	f890 2021 	ldrb.w	r2, [r0, #33]	@ 0x21
 80041ba:	b2d2      	uxtb	r2, r2
 80041bc:	2a02      	cmp	r2, #2
 80041be:	d006      	beq.n	80041ce <HAL_DMA_Abort+0x1a>
  {
    /* no transfer ongoing */
    hdma->ErrorCode = HAL_DMA_ERROR_NO_XFER;
 80041c0:	2204      	movs	r2, #4
 80041c2:	6382      	str	r2, [r0, #56]	@ 0x38
    
    /* Process Unlocked */
    __HAL_UNLOCK(hdma);
 80041c4:	2200      	movs	r2, #0
 80041c6:	f880 2020 	strb.w	r2, [r0, #32]
    
    return HAL_ERROR;
 80041ca:	2001      	movs	r0, #1
 80041cc:	4770      	bx	lr
  }
  else

  {
    /* Disable DMA IT */
    __HAL_DMA_DISABLE_IT(hdma, (DMA_IT_TC | DMA_IT_HT | DMA_IT_TE));
 80041ce:	6801      	ldr	r1, [r0, #0]
 80041d0:	680a      	ldr	r2, [r1, #0]
 80041d2:	f022 020e 	bic.w	r2, r2, #14
 80041d6:	600a      	str	r2, [r1, #0]
      
    /* Disable the channel */
    __HAL_DMA_DISABLE(hdma);
 80041d8:	6801      	ldr	r1, [r0, #0]
 80041da:	680a      	ldr	r2, [r1, #0]
 80041dc:	f022 0201 	bic.w	r2, r2, #1
 80041e0:	600a      	str	r2, [r1, #0]
      
    /* Clear all flags */
    hdma->DmaBaseAddress->IFCR = (DMA_ISR_GIF1 << hdma->ChannelIndex);
 80041e2:	6c02      	ldr	r2, [r0, #64]	@ 0x40
 80041e4:	6bc0      	ldr	r0, [r0, #60]	@ 0x3c
 80041e6:	2101      	movs	r1, #1
 80041e8:	fa01 f202 	lsl.w	r2, r1, r2
 80041ec:	6042      	str	r2, [r0, #4]
  }
  /* Change the DMA state */
  hdma->State = HAL_DMA_STATE_READY;
 80041ee:	f883 1021 	strb.w	r1, [r3, #33]	@ 0x21

  /* Process Unlocked */
  __HAL_UNLOCK(hdma);      
 80041f2:	2000      	movs	r0, #0
 80041f4:	f883 0020 	strb.w	r0, [r3, #32]
  
  return status; 
}
 80041f8:	4770      	bx	lr
	...

080041fc <HAL_DMA_Abort_IT>:
  * @param  hdma  : pointer to a DMA_HandleTypeDef structure that contains
  *                 the configuration information for the specified DMA Channel.
  * @retval HAL status
  */
HAL_StatusTypeDef HAL_DMA_Abort_IT(DMA_HandleTypeDef *hdma)
{  
 80041fc:	b508      	push	{r3, lr}
  HAL_StatusTypeDef status = HAL_OK;
  
  if(HAL_DMA_STATE_BUSY != hdma->State)
 80041fe:	f890 3021 	ldrb.w	r3, [r0, #33]	@ 0x21
 8004202:	b2db      	uxtb	r3, r3
 8004204:	2b02      	cmp	r3, #2
 8004206:	d003      	beq.n	8004210 <HAL_DMA_Abort_IT+0x14>
  {
    /* no transfer ongoing */
    hdma->ErrorCode = HAL_DMA_ERROR_NO_XFER;
 8004208:	2304      	movs	r3, #4
 800420a:	6383      	str	r3, [r0, #56]	@ 0x38
        
    status = HAL_ERROR;
 800420c:	2001      	movs	r0, #1
    {
      hdma->XferAbortCallback(hdma);
    } 
  }
  return status;
}
 800420e:	bd08      	pop	{r3, pc}
    __HAL_DMA_DISABLE_IT(hdma, (DMA_IT_TC | DMA_IT_HT | DMA_IT_TE));
 8004210:	6802      	ldr	r2, [r0, #0]
 8004212:	6813      	ldr	r3, [r2, #0]
 8004214:	f023 030e 	bic.w	r3, r3, #14
 8004218:	6013      	str	r3, [r2, #0]
    __HAL_DMA_DISABLE(hdma);
 800421a:	6802      	ldr	r2, [r0, #0]
 800421c:	6813      	ldr	r3, [r2, #0]
 800421e:	f023 0301 	bic.w	r3, r3, #1
 8004222:	6013      	str	r3, [r2, #0]
    __HAL_DMA_CLEAR_FLAG(hdma, __HAL_DMA_GET_GI_FLAG_INDEX(hdma));
 8004224:	6803      	ldr	r3, [r0, #0]
 8004226:	4a19      	ldr	r2, [pc, #100]	@ (800428c <HAL_DMA_Abort_IT+0x90>)
 8004228:	4293      	cmp	r3, r2
 800422a:	d014      	beq.n	8004256 <HAL_DMA_Abort_IT+0x5a>
 800422c:	3214      	adds	r2, #20
 800422e:	4293      	cmp	r3, r2
 8004230:	d01f      	beq.n	8004272 <HAL_DMA_Abort_IT+0x76>
 8004232:	3214      	adds	r2, #20
 8004234:	4293      	cmp	r3, r2
 8004236:	d01e      	beq.n	8004276 <HAL_DMA_Abort_IT+0x7a>
 8004238:	3214      	adds	r2, #20
 800423a:	4293      	cmp	r3, r2
 800423c:	d01e      	beq.n	800427c <HAL_DMA_Abort_IT+0x80>
 800423e:	3214      	adds	r2, #20
 8004240:	4293      	cmp	r3, r2
 8004242:	d01e      	beq.n	8004282 <HAL_DMA_Abort_IT+0x86>
 8004244:	3214      	adds	r2, #20
 8004246:	4293      	cmp	r3, r2
 8004248:	d002      	beq.n	8004250 <HAL_DMA_Abort_IT+0x54>
 800424a:	f04f 7280 	mov.w	r2, #16777216	@ 0x1000000
 800424e:	e003      	b.n	8004258 <HAL_DMA_Abort_IT+0x5c>
 8004250:	f44f 1280 	mov.w	r2, #1048576	@ 0x100000
 8004254:	e000      	b.n	8004258 <HAL_DMA_Abort_IT+0x5c>
 8004256:	2201      	movs	r2, #1
 8004258:	4b0d      	ldr	r3, [pc, #52]	@ (8004290 <HAL_DMA_Abort_IT+0x94>)
 800425a:	605a      	str	r2, [r3, #4]
    hdma->State = HAL_DMA_STATE_READY;
 800425c:	2301      	movs	r3, #1
 800425e:	f880 3021 	strb.w	r3, [r0, #33]	@ 0x21
    __HAL_UNLOCK(hdma);
 8004262:	2300      	movs	r3, #0
 8004264:	f880 3020 	strb.w	r3, [r0, #32]
    if(hdma->XferAbortCallback != NULL)
 8004268:	6b43      	ldr	r3, [r0, #52]	@ 0x34
 800426a:	b16b      	cbz	r3, 8004288 <HAL_DMA_Abort_IT+0x8c>
      hdma->XferAbortCallback(hdma);
 800426c:	4798      	blx	r3
  HAL_StatusTypeDef status = HAL_OK;
 800426e:	2000      	movs	r0, #0
 8004270:	e7cd      	b.n	800420e <HAL_DMA_Abort_IT+0x12>
    __HAL_DMA_CLEAR_FLAG(hdma, __HAL_DMA_GET_GI_FLAG_INDEX(hdma));
 8004272:	2210      	movs	r2, #16
 8004274:	e7f0      	b.n	8004258 <HAL_DMA_Abort_IT+0x5c>
 8004276:	f44f 7280 	mov.w	r2, #256	@ 0x100
 800427a:	e7ed      	b.n	8004258 <HAL_DMA_Abort_IT+0x5c>
 800427c:	f44f 5280 	mov.w	r2, #4096	@ 0x1000
 8004280:	e7ea      	b.n	8004258 <HAL_DMA_Abort_IT+0x5c>
 8004282:	f44f 3280 	mov.w	r2, #65536	@ 0x10000
 8004286:	e7e7      	b.n	8004258 <HAL_DMA_Abort_IT+0x5c>
  HAL_StatusTypeDef status = HAL_OK;
 8004288:	2000      	movs	r0, #0
 800428a:	e7c0      	b.n	800420e <HAL_DMA_Abort_IT+0x12>
 800428c:	40020008 	.word	0x40020008
 8004290:	40020000 	.word	0x40020000

08004294 <HAL_GPIO_Init>:
  * @param  GPIO_Init: pointer to a GPIO_InitTypeDef structure that contains
  *         the configuration information for the specified GPIO peripheral.
  * @retval None
  */
void HAL_GPIO_Init(GPIO_TypeDef  *GPIOx, GPIO_InitTypeDef *GPIO_Init)
{
 8004294:	b570      	push	{r4, r5, r6, lr}
 8004296:	b082      	sub	sp, #8
  uint32_t position = 0x00u;
  uint32_t ioposition;
  uint32_t iocurrent;
  uint32_t temp;
  uint32_t config = 0x00u;
 8004298:	2400      	movs	r4, #0
  uint32_t position = 0x00u;
 800429a:	46a4      	mov	ip, r4
  assert_param(IS_GPIO_ALL_INSTANCE(GPIOx));
  assert_param(IS_GPIO_PIN(GPIO_Init->Pin));
  assert_param(IS_GPIO_MODE(GPIO_Init->Mode));

  /* Configure the port pins */
  while (((GPIO_Init->Pin) >> position) != 0x00u)
 800429c:	e0a1      	b.n	80043e2 <HAL_GPIO_Init+0x14e>
    {
      /* Check the Alternate function parameters */
      assert_param(IS_GPIO_AF_INSTANCE(GPIOx));

      /* Based on the required mode, filling config variable with MODEy[1:0] and CNFy[3:2] corresponding bits */
      switch (GPIO_Init->Mode)
 800429e:	4d7e      	ldr	r5, [pc, #504]	@ (8004498 <HAL_GPIO_Init+0x204>)
 80042a0:	42ab      	cmp	r3, r5
 80042a2:	d014      	beq.n	80042ce <HAL_GPIO_Init+0x3a>
 80042a4:	d80c      	bhi.n	80042c0 <HAL_GPIO_Init+0x2c>
 80042a6:	f5a5 1580 	sub.w	r5, r5, #1048576	@ 0x100000
 80042aa:	42ab      	cmp	r3, r5
 80042ac:	d00f      	beq.n	80042ce <HAL_GPIO_Init+0x3a>
 80042ae:	f505 2570 	add.w	r5, r5, #983040	@ 0xf0000
 80042b2:	42ab      	cmp	r3, r5
 80042b4:	d00b      	beq.n	80042ce <HAL_GPIO_Init+0x3a>
 80042b6:	f5a5 1580 	sub.w	r5, r5, #1048576	@ 0x100000
 80042ba:	42ab      	cmp	r3, r5
 80042bc:	d110      	bne.n	80042e0 <HAL_GPIO_Init+0x4c>
 80042be:	e006      	b.n	80042ce <HAL_GPIO_Init+0x3a>
 80042c0:	4d76      	ldr	r5, [pc, #472]	@ (800449c <HAL_GPIO_Init+0x208>)
 80042c2:	42ab      	cmp	r3, r5
 80042c4:	d003      	beq.n	80042ce <HAL_GPIO_Init+0x3a>
 80042c6:	f505 3580 	add.w	r5, r5, #65536	@ 0x10000
 80042ca:	42ab      	cmp	r3, r5
 80042cc:	d108      	bne.n	80042e0 <HAL_GPIO_Init+0x4c>
        case GPIO_MODE_EVT_RISING:
        case GPIO_MODE_EVT_FALLING:
        case GPIO_MODE_EVT_RISING_FALLING:
          /* Check the GPIO pull parameter */
          assert_param(IS_GPIO_PULL(GPIO_Init->Pull));
          if (GPIO_Init->Pull == GPIO_NOPULL)
 80042ce:	688b      	ldr	r3, [r1, #8]
 80042d0:	2b00      	cmp	r3, #0
 80042d2:	d050      	beq.n	8004376 <HAL_GPIO_Init+0xe2>
          {
            config = GPIO_CR_MODE_INPUT + GPIO_CR_CNF_INPUT_FLOATING;
          }
          else if (GPIO_Init->Pull == GPIO_PULLUP)
 80042d4:	2b01      	cmp	r3, #1
 80042d6:	d049      	beq.n	800436c <HAL_GPIO_Init+0xd8>
          else /* GPIO_PULLDOWN */
          {
            config = GPIO_CR_MODE_INPUT + GPIO_CR_CNF_INPUT_PU_PD;

            /* Reset the corresponding ODR bit */
            GPIOx->BRR = ioposition;
 80042d8:	6142      	str	r2, [r0, #20]
            config = GPIO_CR_MODE_INPUT + GPIO_CR_CNF_INPUT_PU_PD;
 80042da:	2408      	movs	r4, #8
 80042dc:	e000      	b.n	80042e0 <HAL_GPIO_Init+0x4c>
          config = GPIO_Init->Speed + GPIO_CR_CNF_GP_OUTPUT_PP;
 80042de:	68cc      	ldr	r4, [r1, #12]
          break;
      }

      /* Check if the current bit belongs to first half or last half of the pin count number
       in order to address CRH or CRL register*/
      configregister = (iocurrent < GPIO_PIN_8) ? &GPIOx->CRL     : &GPIOx->CRH;
 80042e0:	f1be 0fff 	cmp.w	lr, #255	@ 0xff
 80042e4:	d849      	bhi.n	800437a <HAL_GPIO_Init+0xe6>
 80042e6:	4606      	mov	r6, r0
      registeroffset = (iocurrent < GPIO_PIN_8) ? (position << 2u) : ((position - 8u) << 2u);
 80042e8:	ea4f 028c 	mov.w	r2, ip, lsl #2

      /* Apply the new configuration of the pin to the register */
      MODIFY_REG((*configregister), ((GPIO_CRL_MODE0 | GPIO_CRL_CNF0) << registeroffset), (config << registeroffset));
 80042ec:	6833      	ldr	r3, [r6, #0]
 80042ee:	250f      	movs	r5, #15
 80042f0:	4095      	lsls	r5, r2
 80042f2:	ea23 0305 	bic.w	r3, r3, r5
 80042f6:	fa04 f202 	lsl.w	r2, r4, r2
 80042fa:	4313      	orrs	r3, r2
 80042fc:	6033      	str	r3, [r6, #0]

      /*--------------------- EXTI Mode Configuration ------------------------*/
      /* Configure the External Interrupt or event for the current IO */
      if ((GPIO_Init->Mode & EXTI_MODE) == EXTI_MODE)
 80042fe:	684b      	ldr	r3, [r1, #4]
 8004300:	f013 5f80 	tst.w	r3, #268435456	@ 0x10000000
 8004304:	d06b      	beq.n	80043de <HAL_GPIO_Init+0x14a>
      {
        /* Enable AFIO Clock */
        __HAL_RCC_AFIO_CLK_ENABLE();
 8004306:	4b66      	ldr	r3, [pc, #408]	@ (80044a0 <HAL_GPIO_Init+0x20c>)
 8004308:	699a      	ldr	r2, [r3, #24]
 800430a:	f042 0201 	orr.w	r2, r2, #1
 800430e:	619a      	str	r2, [r3, #24]
 8004310:	699b      	ldr	r3, [r3, #24]
 8004312:	f003 0301 	and.w	r3, r3, #1
 8004316:	9301      	str	r3, [sp, #4]
 8004318:	9b01      	ldr	r3, [sp, #4]
        temp = AFIO->EXTICR[position >> 2u];
 800431a:	ea4f 029c 	mov.w	r2, ip, lsr #2
 800431e:	1c95      	adds	r5, r2, #2
 8004320:	4b60      	ldr	r3, [pc, #384]	@ (80044a4 <HAL_GPIO_Init+0x210>)
 8004322:	f853 6025 	ldr.w	r6, [r3, r5, lsl #2]
        CLEAR_BIT(temp, (0x0Fu) << (4u * (position & 0x03u)));
 8004326:	f00c 0503 	and.w	r5, ip, #3
 800432a:	00ad      	lsls	r5, r5, #2
 800432c:	230f      	movs	r3, #15
 800432e:	40ab      	lsls	r3, r5
 8004330:	ea26 0603 	bic.w	r6, r6, r3
        SET_BIT(temp, (GPIO_GET_INDEX(GPIOx)) << (4u * (position & 0x03u)));
 8004334:	4b5c      	ldr	r3, [pc, #368]	@ (80044a8 <HAL_GPIO_Init+0x214>)
 8004336:	4298      	cmp	r0, r3
 8004338:	d026      	beq.n	8004388 <HAL_GPIO_Init+0xf4>
 800433a:	f503 6380 	add.w	r3, r3, #1024	@ 0x400
 800433e:	4298      	cmp	r0, r3
 8004340:	f000 808c 	beq.w	800445c <HAL_GPIO_Init+0x1c8>
 8004344:	f503 6380 	add.w	r3, r3, #1024	@ 0x400
 8004348:	4298      	cmp	r0, r3
 800434a:	f000 8089 	beq.w	8004460 <HAL_GPIO_Init+0x1cc>
 800434e:	f503 6380 	add.w	r3, r3, #1024	@ 0x400
 8004352:	4298      	cmp	r0, r3
 8004354:	d016      	beq.n	8004384 <HAL_GPIO_Init+0xf0>
 8004356:	2304      	movs	r3, #4
 8004358:	e017      	b.n	800438a <HAL_GPIO_Init+0xf6>
          config = GPIO_Init->Speed + GPIO_CR_CNF_GP_OUTPUT_OD;
 800435a:	68cc      	ldr	r4, [r1, #12]
 800435c:	3404      	adds	r4, #4
          break;
 800435e:	e7bf      	b.n	80042e0 <HAL_GPIO_Init+0x4c>
          config = GPIO_Init->Speed + GPIO_CR_CNF_AF_OUTPUT_PP;
 8004360:	68cc      	ldr	r4, [r1, #12]
 8004362:	3408      	adds	r4, #8
          break;
 8004364:	e7bc      	b.n	80042e0 <HAL_GPIO_Init+0x4c>
          config = GPIO_Init->Speed + GPIO_CR_CNF_AF_OUTPUT_OD;
 8004366:	68cc      	ldr	r4, [r1, #12]
 8004368:	340c      	adds	r4, #12
          break;
 800436a:	e7b9      	b.n	80042e0 <HAL_GPIO_Init+0x4c>
            GPIOx->BSRR = ioposition;
 800436c:	6102      	str	r2, [r0, #16]
            config = GPIO_CR_MODE_INPUT + GPIO_CR_CNF_INPUT_PU_PD;
 800436e:	2408      	movs	r4, #8
 8004370:	e7b6      	b.n	80042e0 <HAL_GPIO_Init+0x4c>
          config = GPIO_CR_MODE_INPUT + GPIO_CR_CNF_ANALOG;
 8004372:	2400      	movs	r4, #0
 8004374:	e7b4      	b.n	80042e0 <HAL_GPIO_Init+0x4c>
            config = GPIO_CR_MODE_INPUT + GPIO_CR_CNF_INPUT_FLOATING;
 8004376:	2404      	movs	r4, #4
 8004378:	e7b2      	b.n	80042e0 <HAL_GPIO_Init+0x4c>
      configregister = (iocurrent < GPIO_PIN_8) ? &GPIOx->CRL     : &GPIOx->CRH;
 800437a:	1d06      	adds	r6, r0, #4
      registeroffset = (iocurrent < GPIO_PIN_8) ? (position << 2u) : ((position - 8u) << 2u);
 800437c:	f1ac 0208 	sub.w	r2, ip, #8
 8004380:	0092      	lsls	r2, r2, #2
 8004382:	e7b3      	b.n	80042ec <HAL_GPIO_Init+0x58>
        SET_BIT(temp, (GPIO_GET_INDEX(GPIOx)) << (4u * (position & 0x03u)));
 8004384:	2303      	movs	r3, #3
 8004386:	e000      	b.n	800438a <HAL_GPIO_Init+0xf6>
 8004388:	2300      	movs	r3, #0
 800438a:	40ab      	lsls	r3, r5
 800438c:	4333      	orrs	r3, r6
        AFIO->EXTICR[position >> 2u] = temp;
 800438e:	3202      	adds	r2, #2
 8004390:	4d44      	ldr	r5, [pc, #272]	@ (80044a4 <HAL_GPIO_Init+0x210>)
 8004392:	f845 3022 	str.w	r3, [r5, r2, lsl #2]


        /* Enable or disable the rising trigger */
        if ((GPIO_Init->Mode & RISING_EDGE) == RISING_EDGE)
 8004396:	684b      	ldr	r3, [r1, #4]
 8004398:	f413 1f80 	tst.w	r3, #1048576	@ 0x100000
 800439c:	d062      	beq.n	8004464 <HAL_GPIO_Init+0x1d0>
        {
          SET_BIT(EXTI->RTSR, iocurrent);
 800439e:	4a43      	ldr	r2, [pc, #268]	@ (80044ac <HAL_GPIO_Init+0x218>)
 80043a0:	6893      	ldr	r3, [r2, #8]
 80043a2:	ea43 030e 	orr.w	r3, r3, lr
 80043a6:	6093      	str	r3, [r2, #8]
        {
          CLEAR_BIT(EXTI->RTSR, iocurrent);
        }

        /* Enable or disable the falling trigger */
        if ((GPIO_Init->Mode & FALLING_EDGE) == FALLING_EDGE)
 80043a8:	684b      	ldr	r3, [r1, #4]
 80043aa:	f413 1f00 	tst.w	r3, #2097152	@ 0x200000
 80043ae:	d05f      	beq.n	8004470 <HAL_GPIO_Init+0x1dc>
        {
          SET_BIT(EXTI->FTSR, iocurrent);
 80043b0:	4a3e      	ldr	r2, [pc, #248]	@ (80044ac <HAL_GPIO_Init+0x218>)
 80043b2:	68d3      	ldr	r3, [r2, #12]
 80043b4:	ea43 030e 	orr.w	r3, r3, lr
 80043b8:	60d3      	str	r3, [r2, #12]
        {
          CLEAR_BIT(EXTI->FTSR, iocurrent);
        }

        /* Configure the event mask */
        if ((GPIO_Init->Mode & GPIO_MODE_EVT) == GPIO_MODE_EVT)
 80043ba:	684b      	ldr	r3, [r1, #4]
 80043bc:	f413 3f00 	tst.w	r3, #131072	@ 0x20000
 80043c0:	d05c      	beq.n	800447c <HAL_GPIO_Init+0x1e8>
        {
          SET_BIT(EXTI->EMR, iocurrent);
 80043c2:	4a3a      	ldr	r2, [pc, #232]	@ (80044ac <HAL_GPIO_Init+0x218>)
 80043c4:	6853      	ldr	r3, [r2, #4]
 80043c6:	ea43 030e 	orr.w	r3, r3, lr
 80043ca:	6053      	str	r3, [r2, #4]
        {
          CLEAR_BIT(EXTI->EMR, iocurrent);
        }

        /* Configure the interrupt mask */
        if ((GPIO_Init->Mode & GPIO_MODE_IT) == GPIO_MODE_IT)
 80043cc:	684b      	ldr	r3, [r1, #4]
 80043ce:	f413 3f80 	tst.w	r3, #65536	@ 0x10000
 80043d2:	d059      	beq.n	8004488 <HAL_GPIO_Init+0x1f4>
        {
          SET_BIT(EXTI->IMR, iocurrent);
 80043d4:	4a35      	ldr	r2, [pc, #212]	@ (80044ac <HAL_GPIO_Init+0x218>)
 80043d6:	6813      	ldr	r3, [r2, #0]
 80043d8:	ea43 030e 	orr.w	r3, r3, lr
 80043dc:	6013      	str	r3, [r2, #0]
          CLEAR_BIT(EXTI->IMR, iocurrent);
        }
      }
    }

	position++;
 80043de:	f10c 0c01 	add.w	ip, ip, #1
  while (((GPIO_Init->Pin) >> position) != 0x00u)
 80043e2:	680b      	ldr	r3, [r1, #0]
 80043e4:	fa33 f20c 	lsrs.w	r2, r3, ip
 80043e8:	d054      	beq.n	8004494 <HAL_GPIO_Init+0x200>
    ioposition = (0x01uL << position);
 80043ea:	2201      	movs	r2, #1
 80043ec:	fa02 f20c 	lsl.w	r2, r2, ip
    iocurrent = (uint32_t)(GPIO_Init->Pin) & ioposition;
 80043f0:	ea03 0e02 	and.w	lr, r3, r2
    if (iocurrent == ioposition)
 80043f4:	ea32 0303 	bics.w	r3, r2, r3
 80043f8:	d1f1      	bne.n	80043de <HAL_GPIO_Init+0x14a>
      switch (GPIO_Init->Mode)
 80043fa:	684b      	ldr	r3, [r1, #4]
 80043fc:	2b12      	cmp	r3, #18
 80043fe:	f63f af4e 	bhi.w	800429e <HAL_GPIO_Init+0xa>
 8004402:	2b12      	cmp	r3, #18
 8004404:	f63f af6c 	bhi.w	80042e0 <HAL_GPIO_Init+0x4c>
 8004408:	a501      	add	r5, pc, #4	@ (adr r5, 8004410 <HAL_GPIO_Init+0x17c>)
 800440a:	f855 f023 	ldr.w	pc, [r5, r3, lsl #2]
 800440e:	bf00      	nop
 8004410:	080042cf 	.word	0x080042cf
 8004414:	080042df 	.word	0x080042df
 8004418:	08004361 	.word	0x08004361
 800441c:	08004373 	.word	0x08004373
 8004420:	080042e1 	.word	0x080042e1
 8004424:	080042e1 	.word	0x080042e1
 8004428:	080042e1 	.word	0x080042e1
 800442c:	080042e1 	.word	0x080042e1
 8004430:	080042e1 	.word	0x080042e1
 8004434:	080042e1 	.word	0x080042e1
 8004438:	080042e1 	.word	0x080042e1
 800443c:	080042e1 	.word	0x080042e1
 8004440:	080042e1 	.word	0x080042e1
 8004444:	080042e1 	.word	0x080042e1
 8004448:	080042e1 	.word	0x080042e1
 800444c:	080042e1 	.word	0x080042e1
 8004450:	080042e1 	.word	0x080042e1
 8004454:	0800435b 	.word	0x0800435b
 8004458:	08004367 	.word	0x08004367
        SET_BIT(temp, (GPIO_GET_INDEX(GPIOx)) << (4u * (position & 0x03u)));
 800445c:	2301      	movs	r3, #1
 800445e:	e794      	b.n	800438a <HAL_GPIO_Init+0xf6>
 8004460:	2302      	movs	r3, #2
 8004462:	e792      	b.n	800438a <HAL_GPIO_Init+0xf6>
          CLEAR_BIT(EXTI->RTSR, iocurrent);
 8004464:	4a11      	ldr	r2, [pc, #68]	@ (80044ac <HAL_GPIO_Init+0x218>)
 8004466:	6893      	ldr	r3, [r2, #8]
 8004468:	ea23 030e 	bic.w	r3, r3, lr
 800446c:	6093      	str	r3, [r2, #8]
 800446e:	e79b      	b.n	80043a8 <HAL_GPIO_Init+0x114>
          CLEAR_BIT(EXTI->FTSR, iocurrent);
 8004470:	4a0e      	ldr	r2, [pc, #56]	@ (80044ac <HAL_GPIO_Init+0x218>)
 8004472:	68d3      	ldr	r3, [r2, #12]
 8004474:	ea23 030e 	bic.w	r3, r3, lr
 8004478:	60d3      	str	r3, [r2, #12]
 800447a:	e79e      	b.n	80043ba <HAL_GPIO_Init+0x126>
          CLEAR_BIT(EXTI->EMR, iocurrent);
 800447c:	4a0b      	ldr	r2, [pc, #44]	@ (80044ac <HAL_GPIO_Init+0x218>)
 800447e:	6853      	ldr	r3, [r2, #4]
 8004480:	ea23 030e 	bic.w	r3, r3, lr
 8004484:	6053      	str	r3, [r2, #4]
 8004486:	e7a1      	b.n	80043cc <HAL_GPIO_Init+0x138>
          CLEAR_BIT(EXTI->IMR, iocurrent);
 8004488:	4a08      	ldr	r2, [pc, #32]	@ (80044ac <HAL_GPIO_Init+0x218>)
 800448a:	6813      	ldr	r3, [r2, #0]
 800448c:	ea23 030e 	bic.w	r3, r3, lr
 8004490:	6013      	str	r3, [r2, #0]
 8004492:	e7a4      	b.n	80043de <HAL_GPIO_Init+0x14a>
  }
}
 8004494:	b002      	add	sp, #8
 8004496:	bd70      	pop	{r4, r5, r6, pc}
 8004498:	10220000 	.word	0x10220000
 800449c:	10310000 	.word	0x10310000
 80044a0:	40021000 	.word	0x40021000
 80044a4:	40010000 	.word	0x40010000
 80044a8:	40010800 	.word	0x40010800
 80044ac:	40010400 	.word	0x40010400

080044b0 <HAL_GPIO_ReadPin>:
  GPIO_PinState bitstatus;

  /* Check the parameters */
  assert_param(IS_GPIO_PIN(GPIO_Pin));

  if ((GPIOx->IDR & GPIO_Pin) != (uint32_t)GPIO_PIN_RESET)
 80044b0:	6883      	ldr	r3, [r0, #8]
 80044b2:	4219      	tst	r1, r3
 80044b4:	d001      	beq.n	80044ba <HAL_GPIO_ReadPin+0xa>
  {
    bitstatus = GPIO_PIN_SET;
 80044b6:	2001      	movs	r0, #1
 80044b8:	4770      	bx	lr
  }
  else
  {
    bitstatus = GPIO_PIN_RESET;
 80044ba:	2000      	movs	r0, #0
  }
  return bitstatus;
}
 80044bc:	4770      	bx	lr

080044be <HAL_GPIO_WritePin>:
{
  /* Check the parameters */
  assert_param(IS_GPIO_PIN(GPIO_Pin));
  assert_param(IS_GPIO_PIN_ACTION(PinState));

  if (PinState != GPIO_PIN_RESET)
 80044be:	b10a      	cbz	r2, 80044c4 <HAL_GPIO_WritePin+0x6>
  {
    GPIOx->BSRR = GPIO_Pin;
 80044c0:	6101      	str	r1, [r0, #16]
 80044c2:	4770      	bx	lr
  }
  else
  {
    GPIOx->BSRR = (uint32_t)GPIO_Pin << 16u;
 80044c4:	0409      	lsls	r1, r1, #16
 80044c6:	6101      	str	r1, [r0, #16]
  }
}
 80044c8:	4770      	bx	lr
	...

080044cc <RCC_Delay>:
  * @brief  This function provides delay (in milliseconds) based on CPU cycles method.
  * @param  mdelay: specifies the delay time length, in milliseconds.
  * @retval None
  */
static void RCC_Delay(uint32_t mdelay)
{
 80044cc:	b082      	sub	sp, #8
  __IO uint32_t Delay = mdelay * (SystemCoreClock / 8U / 1000U);
 80044ce:	4b08      	ldr	r3, [pc, #32]	@ (80044f0 <RCC_Delay+0x24>)
 80044d0:	681b      	ldr	r3, [r3, #0]
 80044d2:	4a08      	ldr	r2, [pc, #32]	@ (80044f4 <RCC_Delay+0x28>)
 80044d4:	fba2 2303 	umull	r2, r3, r2, r3
 80044d8:	0a5b      	lsrs	r3, r3, #9
 80044da:	fb00 f303 	mul.w	r3, r0, r3
 80044de:	9301      	str	r3, [sp, #4]
  do
  {
    __NOP();
 80044e0:	bf00      	nop
  }
  while (Delay --);
 80044e2:	9b01      	ldr	r3, [sp, #4]
 80044e4:	1e5a      	subs	r2, r3, #1
 80044e6:	9201      	str	r2, [sp, #4]
 80044e8:	2b00      	cmp	r3, #0
 80044ea:	d1f9      	bne.n	80044e0 <RCC_Delay+0x14>
}
 80044ec:	b002      	add	sp, #8
 80044ee:	4770      	bx	lr
 80044f0:	20000048 	.word	0x20000048
 80044f4:	10624dd3 	.word	0x10624dd3

080044f8 <HAL_RCC_OscConfig>:
  if (RCC_OscInitStruct == NULL)
 80044f8:	2800      	cmp	r0, #0
 80044fa:	f000 81f1 	beq.w	80048e0 <HAL_RCC_OscConfig+0x3e8>
{
 80044fe:	b570      	push	{r4, r5, r6, lr}
 8004500:	b082      	sub	sp, #8
 8004502:	4604      	mov	r4, r0
  if (((RCC_OscInitStruct->OscillatorType) & RCC_OSCILLATORTYPE_HSE) == RCC_OSCILLATORTYPE_HSE)
 8004504:	6803      	ldr	r3, [r0, #0]
 8004506:	f013 0f01 	tst.w	r3, #1
 800450a:	d02c      	beq.n	8004566 <HAL_RCC_OscConfig+0x6e>
    if ((__HAL_RCC_GET_SYSCLK_SOURCE() == RCC_SYSCLKSOURCE_STATUS_HSE)
 800450c:	4b99      	ldr	r3, [pc, #612]	@ (8004774 <HAL_RCC_OscConfig+0x27c>)
 800450e:	685b      	ldr	r3, [r3, #4]
 8004510:	f003 030c 	and.w	r3, r3, #12
 8004514:	2b04      	cmp	r3, #4
 8004516:	d01d      	beq.n	8004554 <HAL_RCC_OscConfig+0x5c>
        || ((__HAL_RCC_GET_SYSCLK_SOURCE() == RCC_SYSCLKSOURCE_STATUS_PLLCLK) && (__HAL_RCC_GET_PLL_OSCSOURCE() == RCC_PLLSOURCE_HSE)))
 8004518:	4b96      	ldr	r3, [pc, #600]	@ (8004774 <HAL_RCC_OscConfig+0x27c>)
 800451a:	685b      	ldr	r3, [r3, #4]
 800451c:	f003 030c 	and.w	r3, r3, #12
 8004520:	2b08      	cmp	r3, #8
 8004522:	d012      	beq.n	800454a <HAL_RCC_OscConfig+0x52>
      __HAL_RCC_HSE_CONFIG(RCC_OscInitStruct->HSEState);
 8004524:	6863      	ldr	r3, [r4, #4]
 8004526:	f5b3 3f80 	cmp.w	r3, #65536	@ 0x10000
 800452a:	d041      	beq.n	80045b0 <HAL_RCC_OscConfig+0xb8>
 800452c:	2b00      	cmp	r3, #0
 800452e:	d155      	bne.n	80045dc <HAL_RCC_OscConfig+0xe4>
 8004530:	f103 4380 	add.w	r3, r3, #1073741824	@ 0x40000000
 8004534:	f503 3304 	add.w	r3, r3, #135168	@ 0x21000
 8004538:	681a      	ldr	r2, [r3, #0]
 800453a:	f422 3280 	bic.w	r2, r2, #65536	@ 0x10000
 800453e:	601a      	str	r2, [r3, #0]
 8004540:	681a      	ldr	r2, [r3, #0]
 8004542:	f422 2280 	bic.w	r2, r2, #262144	@ 0x40000
 8004546:	601a      	str	r2, [r3, #0]
 8004548:	e037      	b.n	80045ba <HAL_RCC_OscConfig+0xc2>
        || ((__HAL_RCC_GET_SYSCLK_SOURCE() == RCC_SYSCLKSOURCE_STATUS_PLLCLK) && (__HAL_RCC_GET_PLL_OSCSOURCE() == RCC_PLLSOURCE_HSE)))
 800454a:	4b8a      	ldr	r3, [pc, #552]	@ (8004774 <HAL_RCC_OscConfig+0x27c>)
 800454c:	685b      	ldr	r3, [r3, #4]
 800454e:	f413 3f80 	tst.w	r3, #65536	@ 0x10000
 8004552:	d0e7      	beq.n	8004524 <HAL_RCC_OscConfig+0x2c>
      if ((__HAL_RCC_GET_FLAG(RCC_FLAG_HSERDY) != RESET) && (RCC_OscInitStruct->HSEState == RCC_HSE_OFF))
 8004554:	4b87      	ldr	r3, [pc, #540]	@ (8004774 <HAL_RCC_OscConfig+0x27c>)
 8004556:	681b      	ldr	r3, [r3, #0]
 8004558:	f413 3f00 	tst.w	r3, #131072	@ 0x20000
 800455c:	d003      	beq.n	8004566 <HAL_RCC_OscConfig+0x6e>
 800455e:	6863      	ldr	r3, [r4, #4]
 8004560:	2b00      	cmp	r3, #0
 8004562:	f000 81bf 	beq.w	80048e4 <HAL_RCC_OscConfig+0x3ec>
  if (((RCC_OscInitStruct->OscillatorType) & RCC_OSCILLATORTYPE_HSI) == RCC_OSCILLATORTYPE_HSI)
 8004566:	6823      	ldr	r3, [r4, #0]
 8004568:	f013 0f02 	tst.w	r3, #2
 800456c:	d075      	beq.n	800465a <HAL_RCC_OscConfig+0x162>
    if ((__HAL_RCC_GET_SYSCLK_SOURCE() == RCC_SYSCLKSOURCE_STATUS_HSI)
 800456e:	4b81      	ldr	r3, [pc, #516]	@ (8004774 <HAL_RCC_OscConfig+0x27c>)
 8004570:	685b      	ldr	r3, [r3, #4]
 8004572:	f013 0f0c 	tst.w	r3, #12
 8004576:	d05f      	beq.n	8004638 <HAL_RCC_OscConfig+0x140>
        || ((__HAL_RCC_GET_SYSCLK_SOURCE() == RCC_SYSCLKSOURCE_STATUS_PLLCLK) && (__HAL_RCC_GET_PLL_OSCSOURCE() == RCC_PLLSOURCE_HSI_DIV2)))
 8004578:	4b7e      	ldr	r3, [pc, #504]	@ (8004774 <HAL_RCC_OscConfig+0x27c>)
 800457a:	685b      	ldr	r3, [r3, #4]
 800457c:	f003 030c 	and.w	r3, r3, #12
 8004580:	2b08      	cmp	r3, #8
 8004582:	d054      	beq.n	800462e <HAL_RCC_OscConfig+0x136>
      if (RCC_OscInitStruct->HSIState != RCC_HSI_OFF)
 8004584:	6923      	ldr	r3, [r4, #16]
 8004586:	2b00      	cmp	r3, #0
 8004588:	f000 808a 	beq.w	80046a0 <HAL_RCC_OscConfig+0x1a8>
        __HAL_RCC_HSI_ENABLE();
 800458c:	4b7a      	ldr	r3, [pc, #488]	@ (8004778 <HAL_RCC_OscConfig+0x280>)
 800458e:	2201      	movs	r2, #1
 8004590:	601a      	str	r2, [r3, #0]
        tickstart = HAL_GetTick();
 8004592:	f7ff fb85 	bl	8003ca0 <HAL_GetTick>
 8004596:	4605      	mov	r5, r0
        while (__HAL_RCC_GET_FLAG(RCC_FLAG_HSIRDY) == RESET)
 8004598:	4b76      	ldr	r3, [pc, #472]	@ (8004774 <HAL_RCC_OscConfig+0x27c>)
 800459a:	681b      	ldr	r3, [r3, #0]
 800459c:	f013 0f02 	tst.w	r3, #2
 80045a0:	d175      	bne.n	800468e <HAL_RCC_OscConfig+0x196>
          if ((HAL_GetTick() - tickstart) > HSI_TIMEOUT_VALUE)
 80045a2:	f7ff fb7d 	bl	8003ca0 <HAL_GetTick>
 80045a6:	1b40      	subs	r0, r0, r5
 80045a8:	2802      	cmp	r0, #2
 80045aa:	d9f5      	bls.n	8004598 <HAL_RCC_OscConfig+0xa0>
            return HAL_TIMEOUT;
 80045ac:	2003      	movs	r0, #3
 80045ae:	e19e      	b.n	80048ee <HAL_RCC_OscConfig+0x3f6>
      __HAL_RCC_HSE_CONFIG(RCC_OscInitStruct->HSEState);
 80045b0:	4a70      	ldr	r2, [pc, #448]	@ (8004774 <HAL_RCC_OscConfig+0x27c>)
 80045b2:	6813      	ldr	r3, [r2, #0]
 80045b4:	f443 3380 	orr.w	r3, r3, #65536	@ 0x10000
 80045b8:	6013      	str	r3, [r2, #0]
      if (RCC_OscInitStruct->HSEState != RCC_HSE_OFF)
 80045ba:	6863      	ldr	r3, [r4, #4]
 80045bc:	b343      	cbz	r3, 8004610 <HAL_RCC_OscConfig+0x118>
        tickstart = HAL_GetTick();
 80045be:	f7ff fb6f 	bl	8003ca0 <HAL_GetTick>
 80045c2:	4605      	mov	r5, r0
        while (__HAL_RCC_GET_FLAG(RCC_FLAG_HSERDY) == RESET)
 80045c4:	4b6b      	ldr	r3, [pc, #428]	@ (8004774 <HAL_RCC_OscConfig+0x27c>)
 80045c6:	681b      	ldr	r3, [r3, #0]
 80045c8:	f413 3f00 	tst.w	r3, #131072	@ 0x20000
 80045cc:	d1cb      	bne.n	8004566 <HAL_RCC_OscConfig+0x6e>
          if ((HAL_GetTick() - tickstart) > HSE_TIMEOUT_VALUE)
 80045ce:	f7ff fb67 	bl	8003ca0 <HAL_GetTick>
 80045d2:	1b40      	subs	r0, r0, r5
 80045d4:	2864      	cmp	r0, #100	@ 0x64
 80045d6:	d9f5      	bls.n	80045c4 <HAL_RCC_OscConfig+0xcc>
            return HAL_TIMEOUT;
 80045d8:	2003      	movs	r0, #3
 80045da:	e188      	b.n	80048ee <HAL_RCC_OscConfig+0x3f6>
      __HAL_RCC_HSE_CONFIG(RCC_OscInitStruct->HSEState);
 80045dc:	f5b3 2fa0 	cmp.w	r3, #327680	@ 0x50000
 80045e0:	d009      	beq.n	80045f6 <HAL_RCC_OscConfig+0xfe>
 80045e2:	4b64      	ldr	r3, [pc, #400]	@ (8004774 <HAL_RCC_OscConfig+0x27c>)
 80045e4:	681a      	ldr	r2, [r3, #0]
 80045e6:	f422 3280 	bic.w	r2, r2, #65536	@ 0x10000
 80045ea:	601a      	str	r2, [r3, #0]
 80045ec:	681a      	ldr	r2, [r3, #0]
 80045ee:	f422 2280 	bic.w	r2, r2, #262144	@ 0x40000
 80045f2:	601a      	str	r2, [r3, #0]
 80045f4:	e7e1      	b.n	80045ba <HAL_RCC_OscConfig+0xc2>
 80045f6:	f103 4380 	add.w	r3, r3, #1073741824	@ 0x40000000
 80045fa:	f5a3 333c 	sub.w	r3, r3, #192512	@ 0x2f000
 80045fe:	681a      	ldr	r2, [r3, #0]
 8004600:	f442 2280 	orr.w	r2, r2, #262144	@ 0x40000
 8004604:	601a      	str	r2, [r3, #0]
 8004606:	681a      	ldr	r2, [r3, #0]
 8004608:	f442 3280 	orr.w	r2, r2, #65536	@ 0x10000
 800460c:	601a      	str	r2, [r3, #0]
 800460e:	e7d4      	b.n	80045ba <HAL_RCC_OscConfig+0xc2>
        tickstart = HAL_GetTick();
 8004610:	f7ff fb46 	bl	8003ca0 <HAL_GetTick>
 8004614:	4605      	mov	r5, r0
        while (__HAL_RCC_GET_FLAG(RCC_FLAG_HSERDY) != RESET)
 8004616:	4b57      	ldr	r3, [pc, #348]	@ (8004774 <HAL_RCC_OscConfig+0x27c>)
 8004618:	681b      	ldr	r3, [r3, #0]
 800461a:	f413 3f00 	tst.w	r3, #131072	@ 0x20000
 800461e:	d0a2      	beq.n	8004566 <HAL_RCC_OscConfig+0x6e>
          if ((HAL_GetTick() - tickstart) > HSE_TIMEOUT_VALUE)
 8004620:	f7ff fb3e 	bl	8003ca0 <HAL_GetTick>
 8004624:	1b40      	subs	r0, r0, r5
 8004626:	2864      	cmp	r0, #100	@ 0x64
 8004628:	d9f5      	bls.n	8004616 <HAL_RCC_OscConfig+0x11e>
            return HAL_TIMEOUT;
 800462a:	2003      	movs	r0, #3
 800462c:	e15f      	b.n	80048ee <HAL_RCC_OscConfig+0x3f6>
        || ((__HAL_RCC_GET_SYSCLK_SOURCE() == RCC_SYSCLKSOURCE_STATUS_PLLCLK) && (__HAL_RCC_GET_PLL_OSCSOURCE() == RCC_PLLSOURCE_HSI_DIV2)))
 800462e:	4b51      	ldr	r3, [pc, #324]	@ (8004774 <HAL_RCC_OscConfig+0x27c>)
 8004630:	685b      	ldr	r3, [r3, #4]
 8004632:	f413 3f80 	tst.w	r3, #65536	@ 0x10000
 8004636:	d1a5      	bne.n	8004584 <HAL_RCC_OscConfig+0x8c>
      if ((__HAL_RCC_GET_FLAG(RCC_FLAG_HSIRDY) != RESET) && (RCC_OscInitStruct->HSIState != RCC_HSI_ON))
 8004638:	4b4e      	ldr	r3, [pc, #312]	@ (8004774 <HAL_RCC_OscConfig+0x27c>)
 800463a:	681b      	ldr	r3, [r3, #0]
 800463c:	f013 0f02 	tst.w	r3, #2
 8004640:	d003      	beq.n	800464a <HAL_RCC_OscConfig+0x152>
 8004642:	6923      	ldr	r3, [r4, #16]
 8004644:	2b01      	cmp	r3, #1
 8004646:	f040 814f 	bne.w	80048e8 <HAL_RCC_OscConfig+0x3f0>
        __HAL_RCC_HSI_CALIBRATIONVALUE_ADJUST(RCC_OscInitStruct->HSICalibrationValue);
 800464a:	4a4a      	ldr	r2, [pc, #296]	@ (8004774 <HAL_RCC_OscConfig+0x27c>)
 800464c:	6813      	ldr	r3, [r2, #0]
 800464e:	f023 03f8 	bic.w	r3, r3, #248	@ 0xf8
 8004652:	6961      	ldr	r1, [r4, #20]
 8004654:	ea43 03c1 	orr.w	r3, r3, r1, lsl #3
 8004658:	6013      	str	r3, [r2, #0]
  if (((RCC_OscInitStruct->OscillatorType) & RCC_OSCILLATORTYPE_LSI) == RCC_OSCILLATORTYPE_LSI)
 800465a:	6823      	ldr	r3, [r4, #0]
 800465c:	f013 0f08 	tst.w	r3, #8
 8004660:	d033      	beq.n	80046ca <HAL_RCC_OscConfig+0x1d2>
    if (RCC_OscInitStruct->LSIState != RCC_LSI_OFF)
 8004662:	69a3      	ldr	r3, [r4, #24]
 8004664:	2b00      	cmp	r3, #0
 8004666:	d05c      	beq.n	8004722 <HAL_RCC_OscConfig+0x22a>
      __HAL_RCC_LSI_ENABLE();
 8004668:	4b43      	ldr	r3, [pc, #268]	@ (8004778 <HAL_RCC_OscConfig+0x280>)
 800466a:	2201      	movs	r2, #1
 800466c:	f8c3 2480 	str.w	r2, [r3, #1152]	@ 0x480
      tickstart = HAL_GetTick();
 8004670:	f7ff fb16 	bl	8003ca0 <HAL_GetTick>
 8004674:	4605      	mov	r5, r0
      while (__HAL_RCC_GET_FLAG(RCC_FLAG_LSIRDY) == RESET)
 8004676:	4b3f      	ldr	r3, [pc, #252]	@ (8004774 <HAL_RCC_OscConfig+0x27c>)
 8004678:	6a5b      	ldr	r3, [r3, #36]	@ 0x24
 800467a:	f013 0f02 	tst.w	r3, #2
 800467e:	d121      	bne.n	80046c4 <HAL_RCC_OscConfig+0x1cc>
        if ((HAL_GetTick() - tickstart) > LSI_TIMEOUT_VALUE)
 8004680:	f7ff fb0e 	bl	8003ca0 <HAL_GetTick>
 8004684:	1b40      	subs	r0, r0, r5
 8004686:	2802      	cmp	r0, #2
 8004688:	d9f5      	bls.n	8004676 <HAL_RCC_OscConfig+0x17e>
          return HAL_TIMEOUT;
 800468a:	2003      	movs	r0, #3
 800468c:	e12f      	b.n	80048ee <HAL_RCC_OscConfig+0x3f6>
        __HAL_RCC_HSI_CALIBRATIONVALUE_ADJUST(RCC_OscInitStruct->HSICalibrationValue);
 800468e:	4a39      	ldr	r2, [pc, #228]	@ (8004774 <HAL_RCC_OscConfig+0x27c>)
 8004690:	6813      	ldr	r3, [r2, #0]
 8004692:	f023 03f8 	bic.w	r3, r3, #248	@ 0xf8
 8004696:	6961      	ldr	r1, [r4, #20]
 8004698:	ea43 03c1 	orr.w	r3, r3, r1, lsl #3
 800469c:	6013      	str	r3, [r2, #0]
 800469e:	e7dc      	b.n	800465a <HAL_RCC_OscConfig+0x162>
        __HAL_RCC_HSI_DISABLE();
 80046a0:	4b35      	ldr	r3, [pc, #212]	@ (8004778 <HAL_RCC_OscConfig+0x280>)
 80046a2:	2200      	movs	r2, #0
 80046a4:	601a      	str	r2, [r3, #0]
        tickstart = HAL_GetTick();
 80046a6:	f7ff fafb 	bl	8003ca0 <HAL_GetTick>
 80046aa:	4605      	mov	r5, r0
        while (__HAL_RCC_GET_FLAG(RCC_FLAG_HSIRDY) != RESET)
 80046ac:	4b31      	ldr	r3, [pc, #196]	@ (8004774 <HAL_RCC_OscConfig+0x27c>)
 80046ae:	681b      	ldr	r3, [r3, #0]
 80046b0:	f013 0f02 	tst.w	r3, #2
 80046b4:	d0d1      	beq.n	800465a <HAL_RCC_OscConfig+0x162>
          if ((HAL_GetTick() - tickstart) > HSI_TIMEOUT_VALUE)
 80046b6:	f7ff faf3 	bl	8003ca0 <HAL_GetTick>
 80046ba:	1b40      	subs	r0, r0, r5
 80046bc:	2802      	cmp	r0, #2
 80046be:	d9f5      	bls.n	80046ac <HAL_RCC_OscConfig+0x1b4>
            return HAL_TIMEOUT;
 80046c0:	2003      	movs	r0, #3
 80046c2:	e114      	b.n	80048ee <HAL_RCC_OscConfig+0x3f6>
      RCC_Delay(1);
 80046c4:	2001      	movs	r0, #1
 80046c6:	f7ff ff01 	bl	80044cc <RCC_Delay>
  if (((RCC_OscInitStruct->OscillatorType) & RCC_OSCILLATORTYPE_LSE) == RCC_OSCILLATORTYPE_LSE)
 80046ca:	6823      	ldr	r3, [r4, #0]
 80046cc:	f013 0f04 	tst.w	r3, #4
 80046d0:	f000 8096 	beq.w	8004800 <HAL_RCC_OscConfig+0x308>
    if (__HAL_RCC_PWR_IS_CLK_DISABLED())
 80046d4:	4b27      	ldr	r3, [pc, #156]	@ (8004774 <HAL_RCC_OscConfig+0x27c>)
 80046d6:	69db      	ldr	r3, [r3, #28]
 80046d8:	f013 5f80 	tst.w	r3, #268435456	@ 0x10000000
 80046dc:	d134      	bne.n	8004748 <HAL_RCC_OscConfig+0x250>
      __HAL_RCC_PWR_CLK_ENABLE();
 80046de:	4b25      	ldr	r3, [pc, #148]	@ (8004774 <HAL_RCC_OscConfig+0x27c>)
 80046e0:	69da      	ldr	r2, [r3, #28]
 80046e2:	f042 5280 	orr.w	r2, r2, #268435456	@ 0x10000000
 80046e6:	61da      	str	r2, [r3, #28]
 80046e8:	69db      	ldr	r3, [r3, #28]
 80046ea:	f003 5380 	and.w	r3, r3, #268435456	@ 0x10000000
 80046ee:	9301      	str	r3, [sp, #4]
 80046f0:	9b01      	ldr	r3, [sp, #4]
      pwrclkchanged = SET;
 80046f2:	2501      	movs	r5, #1
    if (HAL_IS_BIT_CLR(PWR->CR, PWR_CR_DBP))
 80046f4:	4b21      	ldr	r3, [pc, #132]	@ (800477c <HAL_RCC_OscConfig+0x284>)
 80046f6:	681b      	ldr	r3, [r3, #0]
 80046f8:	f413 7f80 	tst.w	r3, #256	@ 0x100
 80046fc:	d026      	beq.n	800474c <HAL_RCC_OscConfig+0x254>
    __HAL_RCC_LSE_CONFIG(RCC_OscInitStruct->LSEState);
 80046fe:	68e3      	ldr	r3, [r4, #12]
 8004700:	2b01      	cmp	r3, #1
 8004702:	d03d      	beq.n	8004780 <HAL_RCC_OscConfig+0x288>
 8004704:	2b00      	cmp	r3, #0
 8004706:	d153      	bne.n	80047b0 <HAL_RCC_OscConfig+0x2b8>
 8004708:	f103 4380 	add.w	r3, r3, #1073741824	@ 0x40000000
 800470c:	f503 3304 	add.w	r3, r3, #135168	@ 0x21000
 8004710:	6a1a      	ldr	r2, [r3, #32]
 8004712:	f022 0201 	bic.w	r2, r2, #1
 8004716:	621a      	str	r2, [r3, #32]
 8004718:	6a1a      	ldr	r2, [r3, #32]
 800471a:	f022 0204 	bic.w	r2, r2, #4
 800471e:	621a      	str	r2, [r3, #32]
 8004720:	e033      	b.n	800478a <HAL_RCC_OscConfig+0x292>
      __HAL_RCC_LSI_DISABLE();
 8004722:	4b15      	ldr	r3, [pc, #84]	@ (8004778 <HAL_RCC_OscConfig+0x280>)
 8004724:	2200      	movs	r2, #0
 8004726:	f8c3 2480 	str.w	r2, [r3, #1152]	@ 0x480
      tickstart = HAL_GetTick();
 800472a:	f7ff fab9 	bl	8003ca0 <HAL_GetTick>
 800472e:	4605      	mov	r5, r0
      while (__HAL_RCC_GET_FLAG(RCC_FLAG_LSIRDY) != RESET)
 8004730:	4b10      	ldr	r3, [pc, #64]	@ (8004774 <HAL_RCC_OscConfig+0x27c>)
 8004732:	6a5b      	ldr	r3, [r3, #36]	@ 0x24
 8004734:	f013 0f02 	tst.w	r3, #2
 8004738:	d0c7      	beq.n	80046ca <HAL_RCC_OscConfig+0x1d2>
        if ((HAL_GetTick() - tickstart) > LSI_TIMEOUT_VALUE)
 800473a:	f7ff fab1 	bl	8003ca0 <HAL_GetTick>
 800473e:	1b40      	subs	r0, r0, r5
 8004740:	2802      	cmp	r0, #2
 8004742:	d9f5      	bls.n	8004730 <HAL_RCC_OscConfig+0x238>
          return HAL_TIMEOUT;
 8004744:	2003      	movs	r0, #3
 8004746:	e0d2      	b.n	80048ee <HAL_RCC_OscConfig+0x3f6>
    FlagStatus       pwrclkchanged = RESET;
 8004748:	2500      	movs	r5, #0
 800474a:	e7d3      	b.n	80046f4 <HAL_RCC_OscConfig+0x1fc>
      SET_BIT(PWR->CR, PWR_CR_DBP);
 800474c:	4a0b      	ldr	r2, [pc, #44]	@ (800477c <HAL_RCC_OscConfig+0x284>)
 800474e:	6813      	ldr	r3, [r2, #0]
 8004750:	f443 7380 	orr.w	r3, r3, #256	@ 0x100
 8004754:	6013      	str	r3, [r2, #0]
      tickstart = HAL_GetTick();
 8004756:	f7ff faa3 	bl	8003ca0 <HAL_GetTick>
 800475a:	4606      	mov	r6, r0
      while (HAL_IS_BIT_CLR(PWR->CR, PWR_CR_DBP))
 800475c:	4b07      	ldr	r3, [pc, #28]	@ (800477c <HAL_RCC_OscConfig+0x284>)
 800475e:	681b      	ldr	r3, [r3, #0]
 8004760:	f413 7f80 	tst.w	r3, #256	@ 0x100
 8004764:	d1cb      	bne.n	80046fe <HAL_RCC_OscConfig+0x206>
        if ((HAL_GetTick() - tickstart) > RCC_DBP_TIMEOUT_VALUE)
 8004766:	f7ff fa9b 	bl	8003ca0 <HAL_GetTick>
 800476a:	1b80      	subs	r0, r0, r6
 800476c:	2864      	cmp	r0, #100	@ 0x64
 800476e:	d9f5      	bls.n	800475c <HAL_RCC_OscConfig+0x264>
          return HAL_TIMEOUT;
 8004770:	2003      	movs	r0, #3
 8004772:	e0bc      	b.n	80048ee <HAL_RCC_OscConfig+0x3f6>
 8004774:	40021000 	.word	0x40021000
 8004778:	42420000 	.word	0x42420000
 800477c:	40007000 	.word	0x40007000
    __HAL_RCC_LSE_CONFIG(RCC_OscInitStruct->LSEState);
 8004780:	4a5f      	ldr	r2, [pc, #380]	@ (8004900 <HAL_RCC_OscConfig+0x408>)
 8004782:	6a13      	ldr	r3, [r2, #32]
 8004784:	f043 0301 	orr.w	r3, r3, #1
 8004788:	6213      	str	r3, [r2, #32]
    if (RCC_OscInitStruct->LSEState != RCC_LSE_OFF)
 800478a:	68e3      	ldr	r3, [r4, #12]
 800478c:	b333      	cbz	r3, 80047dc <HAL_RCC_OscConfig+0x2e4>
      tickstart = HAL_GetTick();
 800478e:	f7ff fa87 	bl	8003ca0 <HAL_GetTick>
 8004792:	4606      	mov	r6, r0
      while (__HAL_RCC_GET_FLAG(RCC_FLAG_LSERDY) == RESET)
 8004794:	4b5a      	ldr	r3, [pc, #360]	@ (8004900 <HAL_RCC_OscConfig+0x408>)
 8004796:	6a1b      	ldr	r3, [r3, #32]
 8004798:	f013 0f02 	tst.w	r3, #2
 800479c:	d12f      	bne.n	80047fe <HAL_RCC_OscConfig+0x306>
        if ((HAL_GetTick() - tickstart) > RCC_LSE_TIMEOUT_VALUE)
 800479e:	f7ff fa7f 	bl	8003ca0 <HAL_GetTick>
 80047a2:	1b80      	subs	r0, r0, r6
 80047a4:	f241 3388 	movw	r3, #5000	@ 0x1388
 80047a8:	4298      	cmp	r0, r3
 80047aa:	d9f3      	bls.n	8004794 <HAL_RCC_OscConfig+0x29c>
          return HAL_TIMEOUT;
 80047ac:	2003      	movs	r0, #3
 80047ae:	e09e      	b.n	80048ee <HAL_RCC_OscConfig+0x3f6>
    __HAL_RCC_LSE_CONFIG(RCC_OscInitStruct->LSEState);
 80047b0:	2b05      	cmp	r3, #5
 80047b2:	d009      	beq.n	80047c8 <HAL_RCC_OscConfig+0x2d0>
 80047b4:	4b52      	ldr	r3, [pc, #328]	@ (8004900 <HAL_RCC_OscConfig+0x408>)
 80047b6:	6a1a      	ldr	r2, [r3, #32]
 80047b8:	f022 0201 	bic.w	r2, r2, #1
 80047bc:	621a      	str	r2, [r3, #32]
 80047be:	6a1a      	ldr	r2, [r3, #32]
 80047c0:	f022 0204 	bic.w	r2, r2, #4
 80047c4:	621a      	str	r2, [r3, #32]
 80047c6:	e7e0      	b.n	800478a <HAL_RCC_OscConfig+0x292>
 80047c8:	4b4d      	ldr	r3, [pc, #308]	@ (8004900 <HAL_RCC_OscConfig+0x408>)
 80047ca:	6a1a      	ldr	r2, [r3, #32]
 80047cc:	f042 0204 	orr.w	r2, r2, #4
 80047d0:	621a      	str	r2, [r3, #32]
 80047d2:	6a1a      	ldr	r2, [r3, #32]
 80047d4:	f042 0201 	orr.w	r2, r2, #1
 80047d8:	621a      	str	r2, [r3, #32]
 80047da:	e7d6      	b.n	800478a <HAL_RCC_OscConfig+0x292>
      tickstart = HAL_GetTick();
 80047dc:	f7ff fa60 	bl	8003ca0 <HAL_GetTick>
 80047e0:	4606      	mov	r6, r0
      while (__HAL_RCC_GET_FLAG(RCC_FLAG_LSERDY) != RESET)
 80047e2:	4b47      	ldr	r3, [pc, #284]	@ (8004900 <HAL_RCC_OscConfig+0x408>)
 80047e4:	6a1b      	ldr	r3, [r3, #32]
 80047e6:	f013 0f02 	tst.w	r3, #2
 80047ea:	d008      	beq.n	80047fe <HAL_RCC_OscConfig+0x306>
        if ((HAL_GetTick() - tickstart) > RCC_LSE_TIMEOUT_VALUE)
 80047ec:	f7ff fa58 	bl	8003ca0 <HAL_GetTick>
 80047f0:	1b80      	subs	r0, r0, r6
 80047f2:	f241 3388 	movw	r3, #5000	@ 0x1388
 80047f6:	4298      	cmp	r0, r3
 80047f8:	d9f3      	bls.n	80047e2 <HAL_RCC_OscConfig+0x2ea>
          return HAL_TIMEOUT;
 80047fa:	2003      	movs	r0, #3
 80047fc:	e077      	b.n	80048ee <HAL_RCC_OscConfig+0x3f6>
    if (pwrclkchanged == SET)
 80047fe:	b9e5      	cbnz	r5, 800483a <HAL_RCC_OscConfig+0x342>
  if ((RCC_OscInitStruct->PLL.PLLState) != RCC_PLL_NONE)
 8004800:	69e3      	ldr	r3, [r4, #28]
 8004802:	2b00      	cmp	r3, #0
 8004804:	d072      	beq.n	80048ec <HAL_RCC_OscConfig+0x3f4>
    if (__HAL_RCC_GET_SYSCLK_SOURCE() != RCC_SYSCLKSOURCE_STATUS_PLLCLK)
 8004806:	4a3e      	ldr	r2, [pc, #248]	@ (8004900 <HAL_RCC_OscConfig+0x408>)
 8004808:	6852      	ldr	r2, [r2, #4]
 800480a:	f002 020c 	and.w	r2, r2, #12
 800480e:	2a08      	cmp	r2, #8
 8004810:	d056      	beq.n	80048c0 <HAL_RCC_OscConfig+0x3c8>
      if ((RCC_OscInitStruct->PLL.PLLState) == RCC_PLL_ON)
 8004812:	2b02      	cmp	r3, #2
 8004814:	d017      	beq.n	8004846 <HAL_RCC_OscConfig+0x34e>
        __HAL_RCC_PLL_DISABLE();
 8004816:	4b3b      	ldr	r3, [pc, #236]	@ (8004904 <HAL_RCC_OscConfig+0x40c>)
 8004818:	2200      	movs	r2, #0
 800481a:	661a      	str	r2, [r3, #96]	@ 0x60
        tickstart = HAL_GetTick();
 800481c:	f7ff fa40 	bl	8003ca0 <HAL_GetTick>
 8004820:	4604      	mov	r4, r0
        while (__HAL_RCC_GET_FLAG(RCC_FLAG_PLLRDY)  != RESET)
 8004822:	4b37      	ldr	r3, [pc, #220]	@ (8004900 <HAL_RCC_OscConfig+0x408>)
 8004824:	681b      	ldr	r3, [r3, #0]
 8004826:	f013 7f00 	tst.w	r3, #33554432	@ 0x2000000
 800482a:	d047      	beq.n	80048bc <HAL_RCC_OscConfig+0x3c4>
          if ((HAL_GetTick() - tickstart) > PLL_TIMEOUT_VALUE)
 800482c:	f7ff fa38 	bl	8003ca0 <HAL_GetTick>
 8004830:	1b00      	subs	r0, r0, r4
 8004832:	2802      	cmp	r0, #2
 8004834:	d9f5      	bls.n	8004822 <HAL_RCC_OscConfig+0x32a>
            return HAL_TIMEOUT;
 8004836:	2003      	movs	r0, #3
 8004838:	e059      	b.n	80048ee <HAL_RCC_OscConfig+0x3f6>
      __HAL_RCC_PWR_CLK_DISABLE();
 800483a:	4a31      	ldr	r2, [pc, #196]	@ (8004900 <HAL_RCC_OscConfig+0x408>)
 800483c:	69d3      	ldr	r3, [r2, #28]
 800483e:	f023 5380 	bic.w	r3, r3, #268435456	@ 0x10000000
 8004842:	61d3      	str	r3, [r2, #28]
 8004844:	e7dc      	b.n	8004800 <HAL_RCC_OscConfig+0x308>
        __HAL_RCC_PLL_DISABLE();
 8004846:	4b2f      	ldr	r3, [pc, #188]	@ (8004904 <HAL_RCC_OscConfig+0x40c>)
 8004848:	2200      	movs	r2, #0
 800484a:	661a      	str	r2, [r3, #96]	@ 0x60
        tickstart = HAL_GetTick();
 800484c:	f7ff fa28 	bl	8003ca0 <HAL_GetTick>
 8004850:	4605      	mov	r5, r0
        while (__HAL_RCC_GET_FLAG(RCC_FLAG_PLLRDY)  != RESET)
 8004852:	4b2b      	ldr	r3, [pc, #172]	@ (8004900 <HAL_RCC_OscConfig+0x408>)
 8004854:	681b      	ldr	r3, [r3, #0]
 8004856:	f013 7f00 	tst.w	r3, #33554432	@ 0x2000000
 800485a:	d006      	beq.n	800486a <HAL_RCC_OscConfig+0x372>
          if ((HAL_GetTick() - tickstart) > PLL_TIMEOUT_VALUE)
 800485c:	f7ff fa20 	bl	8003ca0 <HAL_GetTick>
 8004860:	1b40      	subs	r0, r0, r5
 8004862:	2802      	cmp	r0, #2
 8004864:	d9f5      	bls.n	8004852 <HAL_RCC_OscConfig+0x35a>
            return HAL_TIMEOUT;
 8004866:	2003      	movs	r0, #3
 8004868:	e041      	b.n	80048ee <HAL_RCC_OscConfig+0x3f6>
        if (RCC_OscInitStruct->PLL.PLLSource == RCC_PLLSOURCE_HSE)
 800486a:	6a23      	ldr	r3, [r4, #32]
 800486c:	f5b3 3f80 	cmp.w	r3, #65536	@ 0x10000
 8004870:	d01a      	beq.n	80048a8 <HAL_RCC_OscConfig+0x3b0>
        __HAL_RCC_PLL_CONFIG(RCC_OscInitStruct->PLL.PLLSource,
 8004872:	4923      	ldr	r1, [pc, #140]	@ (8004900 <HAL_RCC_OscConfig+0x408>)
 8004874:	684b      	ldr	r3, [r1, #4]
 8004876:	f423 1374 	bic.w	r3, r3, #3997696	@ 0x3d0000
 800487a:	6a22      	ldr	r2, [r4, #32]
 800487c:	6a60      	ldr	r0, [r4, #36]	@ 0x24
 800487e:	4302      	orrs	r2, r0
 8004880:	4313      	orrs	r3, r2
 8004882:	604b      	str	r3, [r1, #4]
        __HAL_RCC_PLL_ENABLE();
 8004884:	4b1f      	ldr	r3, [pc, #124]	@ (8004904 <HAL_RCC_OscConfig+0x40c>)
 8004886:	2201      	movs	r2, #1
 8004888:	661a      	str	r2, [r3, #96]	@ 0x60
        tickstart = HAL_GetTick();
 800488a:	f7ff fa09 	bl	8003ca0 <HAL_GetTick>
 800488e:	4604      	mov	r4, r0
        while (__HAL_RCC_GET_FLAG(RCC_FLAG_PLLRDY)  == RESET)
 8004890:	4b1b      	ldr	r3, [pc, #108]	@ (8004900 <HAL_RCC_OscConfig+0x408>)
 8004892:	681b      	ldr	r3, [r3, #0]
 8004894:	f013 7f00 	tst.w	r3, #33554432	@ 0x2000000
 8004898:	d10e      	bne.n	80048b8 <HAL_RCC_OscConfig+0x3c0>
          if ((HAL_GetTick() - tickstart) > PLL_TIMEOUT_VALUE)
 800489a:	f7ff fa01 	bl	8003ca0 <HAL_GetTick>
 800489e:	1b00      	subs	r0, r0, r4
 80048a0:	2802      	cmp	r0, #2
 80048a2:	d9f5      	bls.n	8004890 <HAL_RCC_OscConfig+0x398>
            return HAL_TIMEOUT;
 80048a4:	2003      	movs	r0, #3
 80048a6:	e022      	b.n	80048ee <HAL_RCC_OscConfig+0x3f6>
          __HAL_RCC_HSE_PREDIV_CONFIG(RCC_OscInitStruct->HSEPredivValue);
 80048a8:	4a15      	ldr	r2, [pc, #84]	@ (8004900 <HAL_RCC_OscConfig+0x408>)
 80048aa:	6853      	ldr	r3, [r2, #4]
 80048ac:	f423 3300 	bic.w	r3, r3, #131072	@ 0x20000
 80048b0:	68a1      	ldr	r1, [r4, #8]
 80048b2:	430b      	orrs	r3, r1
 80048b4:	6053      	str	r3, [r2, #4]
 80048b6:	e7dc      	b.n	8004872 <HAL_RCC_OscConfig+0x37a>
  return HAL_OK;
 80048b8:	2000      	movs	r0, #0
 80048ba:	e018      	b.n	80048ee <HAL_RCC_OscConfig+0x3f6>
 80048bc:	2000      	movs	r0, #0
 80048be:	e016      	b.n	80048ee <HAL_RCC_OscConfig+0x3f6>
      if ((RCC_OscInitStruct->PLL.PLLState) == RCC_PLL_OFF)
 80048c0:	2b01      	cmp	r3, #1
 80048c2:	d016      	beq.n	80048f2 <HAL_RCC_OscConfig+0x3fa>
        pll_config = RCC->CFGR;
 80048c4:	4b0e      	ldr	r3, [pc, #56]	@ (8004900 <HAL_RCC_OscConfig+0x408>)
 80048c6:	685b      	ldr	r3, [r3, #4]
        if ((READ_BIT(pll_config, RCC_CFGR_PLLSRC) != RCC_OscInitStruct->PLL.PLLSource) ||
 80048c8:	f403 3180 	and.w	r1, r3, #65536	@ 0x10000
 80048cc:	6a22      	ldr	r2, [r4, #32]
 80048ce:	4291      	cmp	r1, r2
 80048d0:	d111      	bne.n	80048f6 <HAL_RCC_OscConfig+0x3fe>
            (READ_BIT(pll_config, RCC_CFGR_PLLMULL) != RCC_OscInitStruct->PLL.PLLMUL))
 80048d2:	f403 1370 	and.w	r3, r3, #3932160	@ 0x3c0000
 80048d6:	6a62      	ldr	r2, [r4, #36]	@ 0x24
        if ((READ_BIT(pll_config, RCC_CFGR_PLLSRC) != RCC_OscInitStruct->PLL.PLLSource) ||
 80048d8:	4293      	cmp	r3, r2
 80048da:	d10e      	bne.n	80048fa <HAL_RCC_OscConfig+0x402>
  return HAL_OK;
 80048dc:	2000      	movs	r0, #0
 80048de:	e006      	b.n	80048ee <HAL_RCC_OscConfig+0x3f6>
    return HAL_ERROR;
 80048e0:	2001      	movs	r0, #1
}
 80048e2:	4770      	bx	lr
        return HAL_ERROR;
 80048e4:	2001      	movs	r0, #1
 80048e6:	e002      	b.n	80048ee <HAL_RCC_OscConfig+0x3f6>
        return HAL_ERROR;
 80048e8:	2001      	movs	r0, #1
 80048ea:	e000      	b.n	80048ee <HAL_RCC_OscConfig+0x3f6>
  return HAL_OK;
 80048ec:	2000      	movs	r0, #0
}
 80048ee:	b002      	add	sp, #8
 80048f0:	bd70      	pop	{r4, r5, r6, pc}
        return HAL_ERROR;
 80048f2:	2001      	movs	r0, #1
 80048f4:	e7fb      	b.n	80048ee <HAL_RCC_OscConfig+0x3f6>
          return HAL_ERROR;
 80048f6:	2001      	movs	r0, #1
 80048f8:	e7f9      	b.n	80048ee <HAL_RCC_OscConfig+0x3f6>
 80048fa:	2001      	movs	r0, #1
 80048fc:	e7f7      	b.n	80048ee <HAL_RCC_OscConfig+0x3f6>
 80048fe:	bf00      	nop
 8004900:	40021000 	.word	0x40021000
 8004904:	42420000 	.word	0x42420000

08004908 <HAL_RCC_GetSysClockFreq>:
  tmpreg = RCC->CFGR;
 8004908:	4b0f      	ldr	r3, [pc, #60]	@ (8004948 <HAL_RCC_GetSysClockFreq+0x40>)
 800490a:	685b      	ldr	r3, [r3, #4]
  switch (tmpreg & RCC_CFGR_SWS)
 800490c:	f003 020c 	and.w	r2, r3, #12
 8004910:	2a08      	cmp	r2, #8
 8004912:	d001      	beq.n	8004918 <HAL_RCC_GetSysClockFreq+0x10>
      sysclockfreq = HSE_VALUE;
 8004914:	480d      	ldr	r0, [pc, #52]	@ (800494c <HAL_RCC_GetSysClockFreq+0x44>)
}
 8004916:	4770      	bx	lr
      pllmul = aPLLMULFactorTable[(uint32_t)(tmpreg & RCC_CFGR_PLLMULL) >> RCC_CFGR_PLLMULL_Pos];
 8004918:	f3c3 4283 	ubfx	r2, r3, #18, #4
 800491c:	490c      	ldr	r1, [pc, #48]	@ (8004950 <HAL_RCC_GetSysClockFreq+0x48>)
 800491e:	5c88      	ldrb	r0, [r1, r2]
      if ((tmpreg & RCC_CFGR_PLLSRC) != RCC_PLLSOURCE_HSI_DIV2)
 8004920:	f413 3f80 	tst.w	r3, #65536	@ 0x10000
 8004924:	d00b      	beq.n	800493e <HAL_RCC_GetSysClockFreq+0x36>
        prediv = aPredivFactorTable[(uint32_t)(RCC->CFGR & RCC_CFGR_PLLXTPRE) >> RCC_CFGR_PLLXTPRE_Pos];
 8004926:	4b08      	ldr	r3, [pc, #32]	@ (8004948 <HAL_RCC_GetSysClockFreq+0x40>)
 8004928:	685b      	ldr	r3, [r3, #4]
 800492a:	f3c3 4340 	ubfx	r3, r3, #17, #1
 800492e:	4a09      	ldr	r2, [pc, #36]	@ (8004954 <HAL_RCC_GetSysClockFreq+0x4c>)
 8004930:	5cd3      	ldrb	r3, [r2, r3]
        pllclk = (uint32_t)((HSE_VALUE  * pllmul) / prediv);
 8004932:	4a06      	ldr	r2, [pc, #24]	@ (800494c <HAL_RCC_GetSysClockFreq+0x44>)
 8004934:	fb02 f000 	mul.w	r0, r2, r0
 8004938:	fbb0 f0f3 	udiv	r0, r0, r3
 800493c:	4770      	bx	lr
        pllclk = (uint32_t)((HSI_VALUE >> 1) * pllmul);
 800493e:	4b06      	ldr	r3, [pc, #24]	@ (8004958 <HAL_RCC_GetSysClockFreq+0x50>)
 8004940:	fb03 f000 	mul.w	r0, r3, r0
 8004944:	4770      	bx	lr
 8004946:	bf00      	nop
 8004948:	40021000 	.word	0x40021000
 800494c:	007a1200 	.word	0x007a1200
 8004950:	0800a4e4 	.word	0x0800a4e4
 8004954:	0800a4e0 	.word	0x0800a4e0
 8004958:	003d0900 	.word	0x003d0900

0800495c <HAL_RCC_ClockConfig>:
  if (RCC_ClkInitStruct == NULL)
 800495c:	2800      	cmp	r0, #0
 800495e:	f000 80a0 	beq.w	8004aa2 <HAL_RCC_ClockConfig+0x146>
{
 8004962:	b570      	push	{r4, r5, r6, lr}
 8004964:	460d      	mov	r5, r1
 8004966:	4604      	mov	r4, r0
  if (FLatency > __HAL_FLASH_GET_LATENCY())
 8004968:	4b52      	ldr	r3, [pc, #328]	@ (8004ab4 <HAL_RCC_ClockConfig+0x158>)
 800496a:	681b      	ldr	r3, [r3, #0]
 800496c:	f003 0307 	and.w	r3, r3, #7
 8004970:	428b      	cmp	r3, r1
 8004972:	d20b      	bcs.n	800498c <HAL_RCC_ClockConfig+0x30>
    __HAL_FLASH_SET_LATENCY(FLatency);
 8004974:	4a4f      	ldr	r2, [pc, #316]	@ (8004ab4 <HAL_RCC_ClockConfig+0x158>)
 8004976:	6813      	ldr	r3, [r2, #0]
 8004978:	f023 0307 	bic.w	r3, r3, #7
 800497c:	430b      	orrs	r3, r1
 800497e:	6013      	str	r3, [r2, #0]
    if (__HAL_FLASH_GET_LATENCY() != FLatency)
 8004980:	6813      	ldr	r3, [r2, #0]
 8004982:	f003 0307 	and.w	r3, r3, #7
 8004986:	428b      	cmp	r3, r1
 8004988:	f040 808d 	bne.w	8004aa6 <HAL_RCC_ClockConfig+0x14a>
if (((RCC_ClkInitStruct->ClockType) & RCC_CLOCKTYPE_HCLK) == RCC_CLOCKTYPE_HCLK)
 800498c:	6823      	ldr	r3, [r4, #0]
 800498e:	f013 0f02 	tst.w	r3, #2
 8004992:	d017      	beq.n	80049c4 <HAL_RCC_ClockConfig+0x68>
    if (((RCC_ClkInitStruct->ClockType) & RCC_CLOCKTYPE_PCLK1) == RCC_CLOCKTYPE_PCLK1)
 8004994:	f013 0f04 	tst.w	r3, #4
 8004998:	d004      	beq.n	80049a4 <HAL_RCC_ClockConfig+0x48>
      MODIFY_REG(RCC->CFGR, RCC_CFGR_PPRE1, RCC_HCLK_DIV16);
 800499a:	4a47      	ldr	r2, [pc, #284]	@ (8004ab8 <HAL_RCC_ClockConfig+0x15c>)
 800499c:	6853      	ldr	r3, [r2, #4]
 800499e:	f443 63e0 	orr.w	r3, r3, #1792	@ 0x700
 80049a2:	6053      	str	r3, [r2, #4]
    if (((RCC_ClkInitStruct->ClockType) & RCC_CLOCKTYPE_PCLK2) == RCC_CLOCKTYPE_PCLK2)
 80049a4:	6823      	ldr	r3, [r4, #0]
 80049a6:	f013 0f08 	tst.w	r3, #8
 80049aa:	d004      	beq.n	80049b6 <HAL_RCC_ClockConfig+0x5a>
      MODIFY_REG(RCC->CFGR, RCC_CFGR_PPRE2, (RCC_HCLK_DIV16 << 3));
 80049ac:	4a42      	ldr	r2, [pc, #264]	@ (8004ab8 <HAL_RCC_ClockConfig+0x15c>)
 80049ae:	6853      	ldr	r3, [r2, #4]
 80049b0:	f443 5360 	orr.w	r3, r3, #14336	@ 0x3800
 80049b4:	6053      	str	r3, [r2, #4]
    MODIFY_REG(RCC->CFGR, RCC_CFGR_HPRE, RCC_ClkInitStruct->AHBCLKDivider);
 80049b6:	4a40      	ldr	r2, [pc, #256]	@ (8004ab8 <HAL_RCC_ClockConfig+0x15c>)
 80049b8:	6853      	ldr	r3, [r2, #4]
 80049ba:	f023 03f0 	bic.w	r3, r3, #240	@ 0xf0
 80049be:	68a1      	ldr	r1, [r4, #8]
 80049c0:	430b      	orrs	r3, r1
 80049c2:	6053      	str	r3, [r2, #4]
  if (((RCC_ClkInitStruct->ClockType) & RCC_CLOCKTYPE_SYSCLK) == RCC_CLOCKTYPE_SYSCLK)
 80049c4:	6823      	ldr	r3, [r4, #0]
 80049c6:	f013 0f01 	tst.w	r3, #1
 80049ca:	d031      	beq.n	8004a30 <HAL_RCC_ClockConfig+0xd4>
    if (RCC_ClkInitStruct->SYSCLKSource == RCC_SYSCLKSOURCE_HSE)
 80049cc:	6863      	ldr	r3, [r4, #4]
 80049ce:	2b01      	cmp	r3, #1
 80049d0:	d020      	beq.n	8004a14 <HAL_RCC_ClockConfig+0xb8>
    else if (RCC_ClkInitStruct->SYSCLKSource == RCC_SYSCLKSOURCE_PLLCLK)
 80049d2:	2b02      	cmp	r3, #2
 80049d4:	d025      	beq.n	8004a22 <HAL_RCC_ClockConfig+0xc6>
      if (__HAL_RCC_GET_FLAG(RCC_FLAG_HSIRDY) == RESET)
 80049d6:	4a38      	ldr	r2, [pc, #224]	@ (8004ab8 <HAL_RCC_ClockConfig+0x15c>)
 80049d8:	6812      	ldr	r2, [r2, #0]
 80049da:	f012 0f02 	tst.w	r2, #2
 80049de:	d064      	beq.n	8004aaa <HAL_RCC_ClockConfig+0x14e>
    __HAL_RCC_SYSCLK_CONFIG(RCC_ClkInitStruct->SYSCLKSource);
 80049e0:	4935      	ldr	r1, [pc, #212]	@ (8004ab8 <HAL_RCC_ClockConfig+0x15c>)
 80049e2:	684a      	ldr	r2, [r1, #4]
 80049e4:	f022 0203 	bic.w	r2, r2, #3
 80049e8:	4313      	orrs	r3, r2
 80049ea:	604b      	str	r3, [r1, #4]
    tickstart = HAL_GetTick();
 80049ec:	f7ff f958 	bl	8003ca0 <HAL_GetTick>
 80049f0:	4606      	mov	r6, r0
    while (__HAL_RCC_GET_SYSCLK_SOURCE() != (RCC_ClkInitStruct->SYSCLKSource << RCC_CFGR_SWS_Pos))
 80049f2:	4b31      	ldr	r3, [pc, #196]	@ (8004ab8 <HAL_RCC_ClockConfig+0x15c>)
 80049f4:	685b      	ldr	r3, [r3, #4]
 80049f6:	f003 030c 	and.w	r3, r3, #12
 80049fa:	6862      	ldr	r2, [r4, #4]
 80049fc:	ebb3 0f82 	cmp.w	r3, r2, lsl #2
 8004a00:	d016      	beq.n	8004a30 <HAL_RCC_ClockConfig+0xd4>
      if ((HAL_GetTick() - tickstart) > CLOCKSWITCH_TIMEOUT_VALUE)
 8004a02:	f7ff f94d 	bl	8003ca0 <HAL_GetTick>
 8004a06:	1b80      	subs	r0, r0, r6
 8004a08:	f241 3388 	movw	r3, #5000	@ 0x1388
 8004a0c:	4298      	cmp	r0, r3
 8004a0e:	d9f0      	bls.n	80049f2 <HAL_RCC_ClockConfig+0x96>
        return HAL_TIMEOUT;
 8004a10:	2003      	movs	r0, #3
 8004a12:	e045      	b.n	8004aa0 <HAL_RCC_ClockConfig+0x144>
      if (__HAL_RCC_GET_FLAG(RCC_FLAG_HSERDY) == RESET)
 8004a14:	4a28      	ldr	r2, [pc, #160]	@ (8004ab8 <HAL_RCC_ClockConfig+0x15c>)
 8004a16:	6812      	ldr	r2, [r2, #0]
 8004a18:	f412 3f00 	tst.w	r2, #131072	@ 0x20000
 8004a1c:	d1e0      	bne.n	80049e0 <HAL_RCC_ClockConfig+0x84>
        return HAL_ERROR;
 8004a1e:	2001      	movs	r0, #1
 8004a20:	e03e      	b.n	8004aa0 <HAL_RCC_ClockConfig+0x144>
      if (__HAL_RCC_GET_FLAG(RCC_FLAG_PLLRDY) == RESET)
 8004a22:	4a25      	ldr	r2, [pc, #148]	@ (8004ab8 <HAL_RCC_ClockConfig+0x15c>)
 8004a24:	6812      	ldr	r2, [r2, #0]
 8004a26:	f012 7f00 	tst.w	r2, #33554432	@ 0x2000000
 8004a2a:	d1d9      	bne.n	80049e0 <HAL_RCC_ClockConfig+0x84>
        return HAL_ERROR;
 8004a2c:	2001      	movs	r0, #1
 8004a2e:	e037      	b.n	8004aa0 <HAL_RCC_ClockConfig+0x144>
  if (FLatency < __HAL_FLASH_GET_LATENCY())
 8004a30:	4b20      	ldr	r3, [pc, #128]	@ (8004ab4 <HAL_RCC_ClockConfig+0x158>)
 8004a32:	681b      	ldr	r3, [r3, #0]
 8004a34:	f003 0307 	and.w	r3, r3, #7
 8004a38:	42ab      	cmp	r3, r5
 8004a3a:	d90a      	bls.n	8004a52 <HAL_RCC_ClockConfig+0xf6>
    __HAL_FLASH_SET_LATENCY(FLatency);
 8004a3c:	4a1d      	ldr	r2, [pc, #116]	@ (8004ab4 <HAL_RCC_ClockConfig+0x158>)
 8004a3e:	6813      	ldr	r3, [r2, #0]
 8004a40:	f023 0307 	bic.w	r3, r3, #7
 8004a44:	432b      	orrs	r3, r5
 8004a46:	6013      	str	r3, [r2, #0]
    if (__HAL_FLASH_GET_LATENCY() != FLatency)
 8004a48:	6813      	ldr	r3, [r2, #0]
 8004a4a:	f003 0307 	and.w	r3, r3, #7
 8004a4e:	42ab      	cmp	r3, r5
 8004a50:	d12d      	bne.n	8004aae <HAL_RCC_ClockConfig+0x152>
if (((RCC_ClkInitStruct->ClockType) & RCC_CLOCKTYPE_PCLK1) == RCC_CLOCKTYPE_PCLK1)
 8004a52:	6823      	ldr	r3, [r4, #0]
 8004a54:	f013 0f04 	tst.w	r3, #4
 8004a58:	d006      	beq.n	8004a68 <HAL_RCC_ClockConfig+0x10c>
    MODIFY_REG(RCC->CFGR, RCC_CFGR_PPRE1, RCC_ClkInitStruct->APB1CLKDivider);
 8004a5a:	4a17      	ldr	r2, [pc, #92]	@ (8004ab8 <HAL_RCC_ClockConfig+0x15c>)
 8004a5c:	6853      	ldr	r3, [r2, #4]
 8004a5e:	f423 63e0 	bic.w	r3, r3, #1792	@ 0x700
 8004a62:	68e1      	ldr	r1, [r4, #12]
 8004a64:	430b      	orrs	r3, r1
 8004a66:	6053      	str	r3, [r2, #4]
  if (((RCC_ClkInitStruct->ClockType) & RCC_CLOCKTYPE_PCLK2) == RCC_CLOCKTYPE_PCLK2)
 8004a68:	6823      	ldr	r3, [r4, #0]
 8004a6a:	f013 0f08 	tst.w	r3, #8
 8004a6e:	d007      	beq.n	8004a80 <HAL_RCC_ClockConfig+0x124>
    MODIFY_REG(RCC->CFGR, RCC_CFGR_PPRE2, ((RCC_ClkInitStruct->APB2CLKDivider) << 3));
 8004a70:	4a11      	ldr	r2, [pc, #68]	@ (8004ab8 <HAL_RCC_ClockConfig+0x15c>)
 8004a72:	6853      	ldr	r3, [r2, #4]
 8004a74:	f423 5360 	bic.w	r3, r3, #14336	@ 0x3800
 8004a78:	6921      	ldr	r1, [r4, #16]
 8004a7a:	ea43 03c1 	orr.w	r3, r3, r1, lsl #3
 8004a7e:	6053      	str	r3, [r2, #4]
  SystemCoreClock = HAL_RCC_GetSysClockFreq() >> AHBPrescTable[(RCC->CFGR & RCC_CFGR_HPRE) >> RCC_CFGR_HPRE_Pos];
 8004a80:	f7ff ff42 	bl	8004908 <HAL_RCC_GetSysClockFreq>
 8004a84:	4b0c      	ldr	r3, [pc, #48]	@ (8004ab8 <HAL_RCC_ClockConfig+0x15c>)
 8004a86:	685b      	ldr	r3, [r3, #4]
 8004a88:	f3c3 1303 	ubfx	r3, r3, #4, #4
 8004a8c:	4a0b      	ldr	r2, [pc, #44]	@ (8004abc <HAL_RCC_ClockConfig+0x160>)
 8004a8e:	5cd3      	ldrb	r3, [r2, r3]
 8004a90:	40d8      	lsrs	r0, r3
 8004a92:	4b0b      	ldr	r3, [pc, #44]	@ (8004ac0 <HAL_RCC_ClockConfig+0x164>)
 8004a94:	6018      	str	r0, [r3, #0]
  HAL_InitTick(uwTickPrio);
 8004a96:	4b0b      	ldr	r3, [pc, #44]	@ (8004ac4 <HAL_RCC_ClockConfig+0x168>)
 8004a98:	6818      	ldr	r0, [r3, #0]
 8004a9a:	f7ff f805 	bl	8003aa8 <HAL_InitTick>
  return HAL_OK;
 8004a9e:	2000      	movs	r0, #0
}
 8004aa0:	bd70      	pop	{r4, r5, r6, pc}
    return HAL_ERROR;
 8004aa2:	2001      	movs	r0, #1
}
 8004aa4:	4770      	bx	lr
    return HAL_ERROR;
 8004aa6:	2001      	movs	r0, #1
 8004aa8:	e7fa      	b.n	8004aa0 <HAL_RCC_ClockConfig+0x144>
        return HAL_ERROR;
 8004aaa:	2001      	movs	r0, #1
 8004aac:	e7f8      	b.n	8004aa0 <HAL_RCC_ClockConfig+0x144>
    return HAL_ERROR;
 8004aae:	2001      	movs	r0, #1
 8004ab0:	e7f6      	b.n	8004aa0 <HAL_RCC_ClockConfig+0x144>
 8004ab2:	bf00      	nop
 8004ab4:	40022000 	.word	0x40022000
 8004ab8:	40021000 	.word	0x40021000
 8004abc:	0800a4d0 	.word	0x0800a4d0
 8004ac0:	20000048 	.word	0x20000048
 8004ac4:	20000050 	.word	0x20000050

08004ac8 <HAL_RCC_GetHCLKFreq>:
}
 8004ac8:	4b01      	ldr	r3, [pc, #4]	@ (8004ad0 <HAL_RCC_GetHCLKFreq+0x8>)
 8004aca:	6818      	ldr	r0, [r3, #0]
 8004acc:	4770      	bx	lr
 8004ace:	bf00      	nop
 8004ad0:	20000048 	.word	0x20000048

08004ad4 <HAL_RCC_GetPCLK1Freq>:
{
 8004ad4:	b508      	push	{r3, lr}
  return (HAL_RCC_GetHCLKFreq() >> APBPrescTable[(RCC->CFGR & RCC_CFGR_PPRE1) >> RCC_CFGR_PPRE1_Pos]);
 8004ad6:	f7ff fff7 	bl	8004ac8 <HAL_RCC_GetHCLKFreq>
 8004ada:	4b04      	ldr	r3, [pc, #16]	@ (8004aec <HAL_RCC_GetPCLK1Freq+0x18>)
 8004adc:	685b      	ldr	r3, [r3, #4]
 8004ade:	f3c3 2302 	ubfx	r3, r3, #8, #3
 8004ae2:	4a03      	ldr	r2, [pc, #12]	@ (8004af0 <HAL_RCC_GetPCLK1Freq+0x1c>)
 8004ae4:	5cd3      	ldrb	r3, [r2, r3]
}
 8004ae6:	40d8      	lsrs	r0, r3
 8004ae8:	bd08      	pop	{r3, pc}
 8004aea:	bf00      	nop
 8004aec:	40021000 	.word	0x40021000
 8004af0:	0800a4c8 	.word	0x0800a4c8

08004af4 <HAL_RCC_GetPCLK2Freq>:
{
 8004af4:	b508      	push	{r3, lr}
  return (HAL_RCC_GetHCLKFreq() >> APBPrescTable[(RCC->CFGR & RCC_CFGR_PPRE2) >> RCC_CFGR_PPRE2_Pos]);
 8004af6:	f7ff ffe7 	bl	8004ac8 <HAL_RCC_GetHCLKFreq>
 8004afa:	4b04      	ldr	r3, [pc, #16]	@ (8004b0c <HAL_RCC_GetPCLK2Freq+0x18>)
 8004afc:	685b      	ldr	r3, [r3, #4]
 8004afe:	f3c3 23c2 	ubfx	r3, r3, #11, #3
 8004b02:	4a03      	ldr	r2, [pc, #12]	@ (8004b10 <HAL_RCC_GetPCLK2Freq+0x1c>)
 8004b04:	5cd3      	ldrb	r3, [r2, r3]
}
 8004b06:	40d8      	lsrs	r0, r3
 8004b08:	bd08      	pop	{r3, pc}
 8004b0a:	bf00      	nop
 8004b0c:	40021000 	.word	0x40021000
 8004b10:	0800a4c8 	.word	0x0800a4c8

08004b14 <HAL_RCC_GetClockConfig>:
  RCC_ClkInitStruct->ClockType = RCC_CLOCKTYPE_SYSCLK | RCC_CLOCKTYPE_HCLK | RCC_CLOCKTYPE_PCLK1 | RCC_CLOCKTYPE_PCLK2;
 8004b14:	230f      	movs	r3, #15
 8004b16:	6003      	str	r3, [r0, #0]
  RCC_ClkInitStruct->SYSCLKSource = (uint32_t)(RCC->CFGR & RCC_CFGR_SW);
 8004b18:	4b0b      	ldr	r3, [pc, #44]	@ (8004b48 <HAL_RCC_GetClockConfig+0x34>)
 8004b1a:	685a      	ldr	r2, [r3, #4]
 8004b1c:	f002 0203 	and.w	r2, r2, #3
 8004b20:	6042      	str	r2, [r0, #4]
  RCC_ClkInitStruct->AHBCLKDivider = (uint32_t)(RCC->CFGR & RCC_CFGR_HPRE);
 8004b22:	685a      	ldr	r2, [r3, #4]
 8004b24:	f002 02f0 	and.w	r2, r2, #240	@ 0xf0
 8004b28:	6082      	str	r2, [r0, #8]
  RCC_ClkInitStruct->APB1CLKDivider = (uint32_t)(RCC->CFGR & RCC_CFGR_PPRE1);
 8004b2a:	685a      	ldr	r2, [r3, #4]
 8004b2c:	f402 62e0 	and.w	r2, r2, #1792	@ 0x700
 8004b30:	60c2      	str	r2, [r0, #12]
  RCC_ClkInitStruct->APB2CLKDivider = (uint32_t)((RCC->CFGR & RCC_CFGR_PPRE2) >> 3);
 8004b32:	685b      	ldr	r3, [r3, #4]
 8004b34:	08db      	lsrs	r3, r3, #3
 8004b36:	f403 63e0 	and.w	r3, r3, #1792	@ 0x700
 8004b3a:	6103      	str	r3, [r0, #16]
  *pFLatency = (uint32_t)(FLASH->ACR & FLASH_ACR_LATENCY);
 8004b3c:	4b03      	ldr	r3, [pc, #12]	@ (8004b4c <HAL_RCC_GetClockConfig+0x38>)
 8004b3e:	681b      	ldr	r3, [r3, #0]
 8004b40:	f003 0307 	and.w	r3, r3, #7
 8004b44:	600b      	str	r3, [r1, #0]
}
 8004b46:	4770      	bx	lr
 8004b48:	40021000 	.word	0x40021000
 8004b4c:	40022000 	.word	0x40022000

08004b50 <HAL_RCCEx_PeriphCLKConfig>:
  *         manually disable it.
  *
  * @retval HAL status
  */
HAL_StatusTypeDef HAL_RCCEx_PeriphCLKConfig(RCC_PeriphCLKInitTypeDef  *PeriphClkInit)
{
 8004b50:	b570      	push	{r4, r5, r6, lr}
 8004b52:	b082      	sub	sp, #8
 8004b54:	4604      	mov	r4, r0

  /* Check the parameters */
  assert_param(IS_RCC_PERIPHCLOCK(PeriphClkInit->PeriphClockSelection));

  /*------------------------------- RTC/LCD Configuration ------------------------*/
  if ((((PeriphClkInit->PeriphClockSelection) & RCC_PERIPHCLK_RTC) == RCC_PERIPHCLK_RTC))
 8004b56:	6803      	ldr	r3, [r0, #0]
 8004b58:	f013 0f01 	tst.w	r3, #1
 8004b5c:	d036      	beq.n	8004bcc <HAL_RCCEx_PeriphCLKConfig+0x7c>
    assert_param(IS_RCC_RTCCLKSOURCE(PeriphClkInit->RTCClockSelection));

    /* As soon as function is called to change RTC clock source, activation of the
       power domain is done. */
    /* Requires to enable write access to Backup Domain of necessary */
    if (__HAL_RCC_PWR_IS_CLK_DISABLED())
 8004b5e:	4b3f      	ldr	r3, [pc, #252]	@ (8004c5c <HAL_RCCEx_PeriphCLKConfig+0x10c>)
 8004b60:	69db      	ldr	r3, [r3, #28]
 8004b62:	f013 5f80 	tst.w	r3, #268435456	@ 0x10000000
 8004b66:	d149      	bne.n	8004bfc <HAL_RCCEx_PeriphCLKConfig+0xac>
    {
      __HAL_RCC_PWR_CLK_ENABLE();
 8004b68:	4b3c      	ldr	r3, [pc, #240]	@ (8004c5c <HAL_RCCEx_PeriphCLKConfig+0x10c>)
 8004b6a:	69da      	ldr	r2, [r3, #28]
 8004b6c:	f042 5280 	orr.w	r2, r2, #268435456	@ 0x10000000
 8004b70:	61da      	str	r2, [r3, #28]
 8004b72:	69db      	ldr	r3, [r3, #28]
 8004b74:	f003 5380 	and.w	r3, r3, #268435456	@ 0x10000000
 8004b78:	9301      	str	r3, [sp, #4]
 8004b7a:	9b01      	ldr	r3, [sp, #4]
      pwrclkchanged = SET;
 8004b7c:	2501      	movs	r5, #1
    }

    if (HAL_IS_BIT_CLR(PWR->CR, PWR_CR_DBP))
 8004b7e:	4b38      	ldr	r3, [pc, #224]	@ (8004c60 <HAL_RCCEx_PeriphCLKConfig+0x110>)
 8004b80:	681b      	ldr	r3, [r3, #0]
 8004b82:	f413 7f80 	tst.w	r3, #256	@ 0x100
 8004b86:	d03b      	beq.n	8004c00 <HAL_RCCEx_PeriphCLKConfig+0xb0>
        }
      }
    }

    /* Reset the Backup domain only if the RTC Clock source selection is modified from reset value */
    temp_reg = (RCC->BDCR & RCC_BDCR_RTCSEL);
 8004b88:	4b34      	ldr	r3, [pc, #208]	@ (8004c5c <HAL_RCCEx_PeriphCLKConfig+0x10c>)
 8004b8a:	6a1b      	ldr	r3, [r3, #32]
    if ((temp_reg != 0x00000000U) && (temp_reg != (PeriphClkInit->RTCClockSelection & RCC_BDCR_RTCSEL)))
 8004b8c:	f413 7340 	ands.w	r3, r3, #768	@ 0x300
 8004b90:	d013      	beq.n	8004bba <HAL_RCCEx_PeriphCLKConfig+0x6a>
 8004b92:	6862      	ldr	r2, [r4, #4]
 8004b94:	f402 7240 	and.w	r2, r2, #768	@ 0x300
 8004b98:	429a      	cmp	r2, r3
 8004b9a:	d00e      	beq.n	8004bba <HAL_RCCEx_PeriphCLKConfig+0x6a>
    {
      /* Store the content of BDCR register before the reset of Backup Domain */
      temp_reg = (RCC->BDCR & ~(RCC_BDCR_RTCSEL));
 8004b9c:	4a2f      	ldr	r2, [pc, #188]	@ (8004c5c <HAL_RCCEx_PeriphCLKConfig+0x10c>)
 8004b9e:	6a13      	ldr	r3, [r2, #32]
 8004ba0:	f423 7040 	bic.w	r0, r3, #768	@ 0x300
      /* RTC Clock selection can be changed only if the Backup Domain is reset */
      __HAL_RCC_BACKUPRESET_FORCE();
 8004ba4:	492f      	ldr	r1, [pc, #188]	@ (8004c64 <HAL_RCCEx_PeriphCLKConfig+0x114>)
 8004ba6:	2601      	movs	r6, #1
 8004ba8:	f8c1 6440 	str.w	r6, [r1, #1088]	@ 0x440
      __HAL_RCC_BACKUPRESET_RELEASE();
 8004bac:	2600      	movs	r6, #0
 8004bae:	f8c1 6440 	str.w	r6, [r1, #1088]	@ 0x440
      /* Restore the Content of BDCR register */
      RCC->BDCR = temp_reg;
 8004bb2:	6210      	str	r0, [r2, #32]

      /* Wait for LSERDY if LSE was enabled */
      if (HAL_IS_BIT_SET(temp_reg, RCC_BDCR_LSEON))
 8004bb4:	f013 0f01 	tst.w	r3, #1
 8004bb8:	d136      	bne.n	8004c28 <HAL_RCCEx_PeriphCLKConfig+0xd8>
            return HAL_TIMEOUT;
          }
        }
      }
    }
    __HAL_RCC_RTC_CONFIG(PeriphClkInit->RTCClockSelection);
 8004bba:	4a28      	ldr	r2, [pc, #160]	@ (8004c5c <HAL_RCCEx_PeriphCLKConfig+0x10c>)
 8004bbc:	6a13      	ldr	r3, [r2, #32]
 8004bbe:	f423 7340 	bic.w	r3, r3, #768	@ 0x300
 8004bc2:	6861      	ldr	r1, [r4, #4]
 8004bc4:	430b      	orrs	r3, r1
 8004bc6:	6213      	str	r3, [r2, #32]

    /* Require to disable power clock if necessary */
    if (pwrclkchanged == SET)
 8004bc8:	2d00      	cmp	r5, #0
 8004bca:	d13e      	bne.n	8004c4a <HAL_RCCEx_PeriphCLKConfig+0xfa>
      __HAL_RCC_PWR_CLK_DISABLE();
    }
  }

  /*------------------------------ ADC clock Configuration ------------------*/
  if (((PeriphClkInit->PeriphClockSelection) & RCC_PERIPHCLK_ADC) == RCC_PERIPHCLK_ADC)
 8004bcc:	6823      	ldr	r3, [r4, #0]
 8004bce:	f013 0f02 	tst.w	r3, #2
 8004bd2:	d006      	beq.n	8004be2 <HAL_RCCEx_PeriphCLKConfig+0x92>
  {
    /* Check the parameters */
    assert_param(IS_RCC_ADCPLLCLK_DIV(PeriphClkInit->AdcClockSelection));

    /* Configure the ADC clock source */
    __HAL_RCC_ADC_CONFIG(PeriphClkInit->AdcClockSelection);
 8004bd4:	4a21      	ldr	r2, [pc, #132]	@ (8004c5c <HAL_RCCEx_PeriphCLKConfig+0x10c>)
 8004bd6:	6853      	ldr	r3, [r2, #4]
 8004bd8:	f423 4340 	bic.w	r3, r3, #49152	@ 0xc000
 8004bdc:	68a1      	ldr	r1, [r4, #8]
 8004bde:	430b      	orrs	r3, r1
 8004be0:	6053      	str	r3, [r2, #4]

#if defined(STM32F102x6) || defined(STM32F102xB) || defined(STM32F103x6)\
 || defined(STM32F103xB) || defined(STM32F103xE) || defined(STM32F103xG)\
 || defined(STM32F105xC) || defined(STM32F107xC)
  /*------------------------------ USB clock Configuration ------------------*/
  if (((PeriphClkInit->PeriphClockSelection) & RCC_PERIPHCLK_USB) == RCC_PERIPHCLK_USB)
 8004be2:	6823      	ldr	r3, [r4, #0]
 8004be4:	f013 0f10 	tst.w	r3, #16
 8004be8:	d034      	beq.n	8004c54 <HAL_RCCEx_PeriphCLKConfig+0x104>
  {
    /* Check the parameters */
    assert_param(IS_RCC_USBPLLCLK_DIV(PeriphClkInit->UsbClockSelection));

    /* Configure the USB clock source */
    __HAL_RCC_USB_CONFIG(PeriphClkInit->UsbClockSelection);
 8004bea:	4a1c      	ldr	r2, [pc, #112]	@ (8004c5c <HAL_RCCEx_PeriphCLKConfig+0x10c>)
 8004bec:	6853      	ldr	r3, [r2, #4]
 8004bee:	f423 0380 	bic.w	r3, r3, #4194304	@ 0x400000
 8004bf2:	68e1      	ldr	r1, [r4, #12]
 8004bf4:	430b      	orrs	r3, r1
 8004bf6:	6053      	str	r3, [r2, #4]
  }
#endif /* STM32F102x6 || STM32F102xB || STM32F103x6 || STM32F103xB || STM32F103xE || STM32F103xG || STM32F105xC || STM32F107xC */

  return HAL_OK;
 8004bf8:	2000      	movs	r0, #0
 8004bfa:	e02c      	b.n	8004c56 <HAL_RCCEx_PeriphCLKConfig+0x106>
    FlagStatus pwrclkchanged = RESET;
 8004bfc:	2500      	movs	r5, #0
 8004bfe:	e7be      	b.n	8004b7e <HAL_RCCEx_PeriphCLKConfig+0x2e>
      SET_BIT(PWR->CR, PWR_CR_DBP);
 8004c00:	4a17      	ldr	r2, [pc, #92]	@ (8004c60 <HAL_RCCEx_PeriphCLKConfig+0x110>)
 8004c02:	6813      	ldr	r3, [r2, #0]
 8004c04:	f443 7380 	orr.w	r3, r3, #256	@ 0x100
 8004c08:	6013      	str	r3, [r2, #0]
      tickstart = HAL_GetTick();
 8004c0a:	f7ff f849 	bl	8003ca0 <HAL_GetTick>
 8004c0e:	4606      	mov	r6, r0
      while (HAL_IS_BIT_CLR(PWR->CR, PWR_CR_DBP))
 8004c10:	4b13      	ldr	r3, [pc, #76]	@ (8004c60 <HAL_RCCEx_PeriphCLKConfig+0x110>)
 8004c12:	681b      	ldr	r3, [r3, #0]
 8004c14:	f413 7f80 	tst.w	r3, #256	@ 0x100
 8004c18:	d1b6      	bne.n	8004b88 <HAL_RCCEx_PeriphCLKConfig+0x38>
        if ((HAL_GetTick() - tickstart) > RCC_DBP_TIMEOUT_VALUE)
 8004c1a:	f7ff f841 	bl	8003ca0 <HAL_GetTick>
 8004c1e:	1b80      	subs	r0, r0, r6
 8004c20:	2864      	cmp	r0, #100	@ 0x64
 8004c22:	d9f5      	bls.n	8004c10 <HAL_RCCEx_PeriphCLKConfig+0xc0>
          return HAL_TIMEOUT;
 8004c24:	2003      	movs	r0, #3
 8004c26:	e016      	b.n	8004c56 <HAL_RCCEx_PeriphCLKConfig+0x106>
        tickstart = HAL_GetTick();
 8004c28:	f7ff f83a 	bl	8003ca0 <HAL_GetTick>
 8004c2c:	4606      	mov	r6, r0
        while (__HAL_RCC_GET_FLAG(RCC_FLAG_LSERDY) == RESET)
 8004c2e:	4b0b      	ldr	r3, [pc, #44]	@ (8004c5c <HAL_RCCEx_PeriphCLKConfig+0x10c>)
 8004c30:	6a1b      	ldr	r3, [r3, #32]
 8004c32:	f013 0f02 	tst.w	r3, #2
 8004c36:	d1c0      	bne.n	8004bba <HAL_RCCEx_PeriphCLKConfig+0x6a>
          if ((HAL_GetTick() - tickstart) > RCC_LSE_TIMEOUT_VALUE)
 8004c38:	f7ff f832 	bl	8003ca0 <HAL_GetTick>
 8004c3c:	1b80      	subs	r0, r0, r6
 8004c3e:	f241 3388 	movw	r3, #5000	@ 0x1388
 8004c42:	4298      	cmp	r0, r3
 8004c44:	d9f3      	bls.n	8004c2e <HAL_RCCEx_PeriphCLKConfig+0xde>
            return HAL_TIMEOUT;
 8004c46:	2003      	movs	r0, #3
 8004c48:	e005      	b.n	8004c56 <HAL_RCCEx_PeriphCLKConfig+0x106>
      __HAL_RCC_PWR_CLK_DISABLE();
 8004c4a:	69d3      	ldr	r3, [r2, #28]
 8004c4c:	f023 5380 	bic.w	r3, r3, #268435456	@ 0x10000000
 8004c50:	61d3      	str	r3, [r2, #28]
 8004c52:	e7bb      	b.n	8004bcc <HAL_RCCEx_PeriphCLKConfig+0x7c>
  return HAL_OK;
 8004c54:	2000      	movs	r0, #0
}
 8004c56:	b002      	add	sp, #8
 8004c58:	bd70      	pop	{r4, r5, r6, pc}
 8004c5a:	bf00      	nop
 8004c5c:	40021000 	.word	0x40021000
 8004c60:	40007000 	.word	0x40007000
 8004c64:	42420000 	.word	0x42420000

08004c68 <SPI_WaitFlagStateUntilTimeout>:
  * @param  Tickstart tick start value
  * @retval HAL status
  */
static HAL_StatusTypeDef SPI_WaitFlagStateUntilTimeout(SPI_HandleTypeDef *hspi, uint32_t Flag, FlagStatus State,
                                                       uint32_t Timeout, uint32_t Tickstart)
{
 8004c68:	e92d 47f0 	stmdb	sp!, {r4, r5, r6, r7, r8, r9, sl, lr}
 8004c6c:	b082      	sub	sp, #8
 8004c6e:	4605      	mov	r5, r0
 8004c70:	4688      	mov	r8, r1
 8004c72:	4617      	mov	r7, r2
 8004c74:	461e      	mov	r6, r3
  __IO uint32_t count;
  uint32_t tmp_timeout;
  uint32_t tmp_tickstart;

  /* Adjust Timeout value  in case of end of transfer */
  tmp_timeout   = Timeout - (HAL_GetTick() - Tickstart);
 8004c76:	f7ff f813 	bl	8003ca0 <HAL_GetTick>
 8004c7a:	9b0a      	ldr	r3, [sp, #40]	@ 0x28
 8004c7c:	1a1b      	subs	r3, r3, r0
 8004c7e:	eb03 0906 	add.w	r9, r3, r6
  tmp_tickstart = HAL_GetTick();
 8004c82:	f7ff f80d 	bl	8003ca0 <HAL_GetTick>
 8004c86:	4682      	mov	sl, r0

  /* Calculate Timeout based on a software loop to avoid blocking issue if Systick is disabled */
  count = tmp_timeout * ((SystemCoreClock * 32U) >> 20U);
 8004c88:	4b28      	ldr	r3, [pc, #160]	@ (8004d2c <SPI_WaitFlagStateUntilTimeout+0xc4>)
 8004c8a:	681b      	ldr	r3, [r3, #0]
 8004c8c:	f3c3 33cb 	ubfx	r3, r3, #15, #12
 8004c90:	fb09 f303 	mul.w	r3, r9, r3
 8004c94:	9301      	str	r3, [sp, #4]

  while ((__HAL_SPI_GET_FLAG(hspi, Flag) ? SET : RESET) != State)
 8004c96:	682b      	ldr	r3, [r5, #0]
 8004c98:	689c      	ldr	r4, [r3, #8]
 8004c9a:	ea38 0404 	bics.w	r4, r8, r4
 8004c9e:	bf0c      	ite	eq
 8004ca0:	2301      	moveq	r3, #1
 8004ca2:	2300      	movne	r3, #0
 8004ca4:	42bb      	cmp	r3, r7
 8004ca6:	d03d      	beq.n	8004d24 <SPI_WaitFlagStateUntilTimeout+0xbc>
  {
    if (Timeout != HAL_MAX_DELAY)
 8004ca8:	f1b6 3fff 	cmp.w	r6, #4294967295
 8004cac:	d0f3      	beq.n	8004c96 <SPI_WaitFlagStateUntilTimeout+0x2e>
    {
      if (((HAL_GetTick() - tmp_tickstart) >= tmp_timeout) || (tmp_timeout == 0U))
 8004cae:	f7fe fff7 	bl	8003ca0 <HAL_GetTick>
 8004cb2:	eba0 000a 	sub.w	r0, r0, sl
 8004cb6:	4548      	cmp	r0, r9
 8004cb8:	d207      	bcs.n	8004cca <SPI_WaitFlagStateUntilTimeout+0x62>
        __HAL_UNLOCK(hspi);

        return HAL_TIMEOUT;
      }
      /* If Systick is disabled or not incremented, deactivate timeout to go in disable loop procedure */
      if (count == 0U)
 8004cba:	9a01      	ldr	r2, [sp, #4]
 8004cbc:	b102      	cbz	r2, 8004cc0 <SPI_WaitFlagStateUntilTimeout+0x58>
 8004cbe:	464a      	mov	r2, r9
      {
        tmp_timeout = 0U;
      }
      count--;
 8004cc0:	9b01      	ldr	r3, [sp, #4]
 8004cc2:	3b01      	subs	r3, #1
 8004cc4:	9301      	str	r3, [sp, #4]
 8004cc6:	4691      	mov	r9, r2
 8004cc8:	e7e5      	b.n	8004c96 <SPI_WaitFlagStateUntilTimeout+0x2e>
        __HAL_SPI_DISABLE_IT(hspi, (SPI_IT_TXE | SPI_IT_RXNE | SPI_IT_ERR));
 8004cca:	682a      	ldr	r2, [r5, #0]
 8004ccc:	6853      	ldr	r3, [r2, #4]
 8004cce:	f023 03e0 	bic.w	r3, r3, #224	@ 0xe0
 8004cd2:	6053      	str	r3, [r2, #4]
        if ((hspi->Init.Mode == SPI_MODE_MASTER) && ((hspi->Init.Direction == SPI_DIRECTION_1LINE)
 8004cd4:	686b      	ldr	r3, [r5, #4]
 8004cd6:	f5b3 7f82 	cmp.w	r3, #260	@ 0x104
 8004cda:	d00b      	beq.n	8004cf4 <SPI_WaitFlagStateUntilTimeout+0x8c>
        if (hspi->Init.CRCCalculation == SPI_CRCCALCULATION_ENABLE)
 8004cdc:	6aab      	ldr	r3, [r5, #40]	@ 0x28
 8004cde:	f5b3 5f00 	cmp.w	r3, #8192	@ 0x2000
 8004ce2:	d014      	beq.n	8004d0e <SPI_WaitFlagStateUntilTimeout+0xa6>
        hspi->State = HAL_SPI_STATE_READY;
 8004ce4:	2301      	movs	r3, #1
 8004ce6:	f885 3051 	strb.w	r3, [r5, #81]	@ 0x51
        __HAL_UNLOCK(hspi);
 8004cea:	2300      	movs	r3, #0
 8004cec:	f885 3050 	strb.w	r3, [r5, #80]	@ 0x50
        return HAL_TIMEOUT;
 8004cf0:	2003      	movs	r0, #3
 8004cf2:	e018      	b.n	8004d26 <SPI_WaitFlagStateUntilTimeout+0xbe>
        if ((hspi->Init.Mode == SPI_MODE_MASTER) && ((hspi->Init.Direction == SPI_DIRECTION_1LINE)
 8004cf4:	68ab      	ldr	r3, [r5, #8]
 8004cf6:	f5b3 4f00 	cmp.w	r3, #32768	@ 0x8000
 8004cfa:	d002      	beq.n	8004d02 <SPI_WaitFlagStateUntilTimeout+0x9a>
                                                     || (hspi->Init.Direction == SPI_DIRECTION_2LINES_RXONLY)))
 8004cfc:	f5b3 6f80 	cmp.w	r3, #1024	@ 0x400
 8004d00:	d1ec      	bne.n	8004cdc <SPI_WaitFlagStateUntilTimeout+0x74>
          __HAL_SPI_DISABLE(hspi);
 8004d02:	682a      	ldr	r2, [r5, #0]
 8004d04:	6813      	ldr	r3, [r2, #0]
 8004d06:	f023 0340 	bic.w	r3, r3, #64	@ 0x40
 8004d0a:	6013      	str	r3, [r2, #0]
 8004d0c:	e7e6      	b.n	8004cdc <SPI_WaitFlagStateUntilTimeout+0x74>
          SPI_RESET_CRC(hspi);
 8004d0e:	682a      	ldr	r2, [r5, #0]
 8004d10:	6813      	ldr	r3, [r2, #0]
 8004d12:	f423 5300 	bic.w	r3, r3, #8192	@ 0x2000
 8004d16:	6013      	str	r3, [r2, #0]
 8004d18:	682a      	ldr	r2, [r5, #0]
 8004d1a:	6813      	ldr	r3, [r2, #0]
 8004d1c:	f443 5300 	orr.w	r3, r3, #8192	@ 0x2000
 8004d20:	6013      	str	r3, [r2, #0]
 8004d22:	e7df      	b.n	8004ce4 <SPI_WaitFlagStateUntilTimeout+0x7c>
    }
  }

  return HAL_OK;
 8004d24:	2000      	movs	r0, #0
}
 8004d26:	b002      	add	sp, #8
 8004d28:	e8bd 87f0 	ldmia.w	sp!, {r4, r5, r6, r7, r8, r9, sl, pc}
 8004d2c:	20000048 	.word	0x20000048

08004d30 <SPI_EndRxTxTransaction>:
  * @param  Timeout Timeout duration
  * @param  Tickstart tick start value
  * @retval HAL status
  */
static HAL_StatusTypeDef SPI_EndRxTxTransaction(SPI_HandleTypeDef *hspi, uint32_t Timeout, uint32_t Tickstart)
{
 8004d30:	b570      	push	{r4, r5, r6, lr}
 8004d32:	b082      	sub	sp, #8
 8004d34:	4606      	mov	r6, r0
 8004d36:	460c      	mov	r4, r1
 8004d38:	4615      	mov	r5, r2
  /* Wait until TXE flag */
  if (SPI_WaitFlagStateUntilTimeout(hspi, SPI_FLAG_TXE, SET, Timeout, Tickstart) != HAL_OK)
 8004d3a:	9200      	str	r2, [sp, #0]
 8004d3c:	460b      	mov	r3, r1
 8004d3e:	2201      	movs	r2, #1
 8004d40:	2102      	movs	r1, #2
 8004d42:	f7ff ff91 	bl	8004c68 <SPI_WaitFlagStateUntilTimeout>
 8004d46:	b948      	cbnz	r0, 8004d5c <SPI_EndRxTxTransaction+0x2c>
    SET_BIT(hspi->ErrorCode, HAL_SPI_ERROR_FLAG);
    return HAL_TIMEOUT;
  }

  /* Control the BSY flag */
  if (SPI_WaitFlagStateUntilTimeout(hspi, SPI_FLAG_BSY, RESET, Timeout, Tickstart) != HAL_OK)
 8004d48:	9500      	str	r5, [sp, #0]
 8004d4a:	4623      	mov	r3, r4
 8004d4c:	2200      	movs	r2, #0
 8004d4e:	2180      	movs	r1, #128	@ 0x80
 8004d50:	4630      	mov	r0, r6
 8004d52:	f7ff ff89 	bl	8004c68 <SPI_WaitFlagStateUntilTimeout>
 8004d56:	b938      	cbnz	r0, 8004d68 <SPI_EndRxTxTransaction+0x38>
  {
    SET_BIT(hspi->ErrorCode, HAL_SPI_ERROR_FLAG);
    return HAL_TIMEOUT;
  }
  return HAL_OK;
}
 8004d58:	b002      	add	sp, #8
 8004d5a:	bd70      	pop	{r4, r5, r6, pc}
    SET_BIT(hspi->ErrorCode, HAL_SPI_ERROR_FLAG);
 8004d5c:	6d73      	ldr	r3, [r6, #84]	@ 0x54
 8004d5e:	f043 0320 	orr.w	r3, r3, #32
 8004d62:	6573      	str	r3, [r6, #84]	@ 0x54
    return HAL_TIMEOUT;
 8004d64:	2003      	movs	r0, #3
 8004d66:	e7f7      	b.n	8004d58 <SPI_EndRxTxTransaction+0x28>
    SET_BIT(hspi->ErrorCode, HAL_SPI_ERROR_FLAG);
 8004d68:	6d73      	ldr	r3, [r6, #84]	@ 0x54
 8004d6a:	f043 0320 	orr.w	r3, r3, #32
 8004d6e:	6573      	str	r3, [r6, #84]	@ 0x54
    return HAL_TIMEOUT;
 8004d70:	2003      	movs	r0, #3
 8004d72:	e7f1      	b.n	8004d58 <SPI_EndRxTxTransaction+0x28>

08004d74 <HAL_SPI_Init>:
  if (hspi == NULL)
 8004d74:	2800      	cmp	r0, #0
 8004d76:	d056      	beq.n	8004e26 <HAL_SPI_Init+0xb2>
{
 8004d78:	b510      	push	{r4, lr}
 8004d7a:	4604      	mov	r4, r0
  if (hspi->Init.TIMode == SPI_TIMODE_DISABLE)
 8004d7c:	6a43      	ldr	r3, [r0, #36]	@ 0x24
 8004d7e:	b933      	cbnz	r3, 8004d8e <HAL_SPI_Init+0x1a>
    if (hspi->Init.Mode == SPI_MODE_MASTER)
 8004d80:	6843      	ldr	r3, [r0, #4]
 8004d82:	f5b3 7f82 	cmp.w	r3, #260	@ 0x104
 8004d86:	d005      	beq.n	8004d94 <HAL_SPI_Init+0x20>
      hspi->Init.BaudRatePrescaler = SPI_BAUDRATEPRESCALER_2;
 8004d88:	2300      	movs	r3, #0
 8004d8a:	61c3      	str	r3, [r0, #28]
 8004d8c:	e002      	b.n	8004d94 <HAL_SPI_Init+0x20>
    hspi->Init.CLKPolarity = SPI_POLARITY_LOW;
 8004d8e:	2300      	movs	r3, #0
 8004d90:	6103      	str	r3, [r0, #16]
    hspi->Init.CLKPhase    = SPI_PHASE_1EDGE;
 8004d92:	6143      	str	r3, [r0, #20]
  hspi->Init.CRCCalculation = SPI_CRCCALCULATION_DISABLE;
 8004d94:	2300      	movs	r3, #0
 8004d96:	62a3      	str	r3, [r4, #40]	@ 0x28
  if (hspi->State == HAL_SPI_STATE_RESET)
 8004d98:	f894 3051 	ldrb.w	r3, [r4, #81]	@ 0x51
 8004d9c:	2b00      	cmp	r3, #0
 8004d9e:	d03c      	beq.n	8004e1a <HAL_SPI_Init+0xa6>
  hspi->State = HAL_SPI_STATE_BUSY;
 8004da0:	2302      	movs	r3, #2
 8004da2:	f884 3051 	strb.w	r3, [r4, #81]	@ 0x51
  __HAL_SPI_DISABLE(hspi);
 8004da6:	6822      	ldr	r2, [r4, #0]
 8004da8:	6813      	ldr	r3, [r2, #0]
 8004daa:	f023 0340 	bic.w	r3, r3, #64	@ 0x40
 8004dae:	6013      	str	r3, [r2, #0]
  WRITE_REG(hspi->Instance->CR1, ((hspi->Init.Mode & (SPI_CR1_MSTR | SPI_CR1_SSI)) |
 8004db0:	6863      	ldr	r3, [r4, #4]
 8004db2:	f403 7382 	and.w	r3, r3, #260	@ 0x104
 8004db6:	68a2      	ldr	r2, [r4, #8]
 8004db8:	f402 4204 	and.w	r2, r2, #33792	@ 0x8400
 8004dbc:	4313      	orrs	r3, r2
 8004dbe:	68e2      	ldr	r2, [r4, #12]
 8004dc0:	f402 6200 	and.w	r2, r2, #2048	@ 0x800
 8004dc4:	4313      	orrs	r3, r2
 8004dc6:	6922      	ldr	r2, [r4, #16]
 8004dc8:	f002 0202 	and.w	r2, r2, #2
 8004dcc:	4313      	orrs	r3, r2
 8004dce:	6962      	ldr	r2, [r4, #20]
 8004dd0:	f002 0201 	and.w	r2, r2, #1
 8004dd4:	4313      	orrs	r3, r2
 8004dd6:	69a2      	ldr	r2, [r4, #24]
 8004dd8:	f402 7200 	and.w	r2, r2, #512	@ 0x200
 8004ddc:	4313      	orrs	r3, r2
 8004dde:	69e2      	ldr	r2, [r4, #28]
 8004de0:	f002 0238 	and.w	r2, r2, #56	@ 0x38
 8004de4:	4313      	orrs	r3, r2
 8004de6:	6a22      	ldr	r2, [r4, #32]
 8004de8:	f002 0280 	and.w	r2, r2, #128	@ 0x80
 8004dec:	4313      	orrs	r3, r2
 8004dee:	6aa2      	ldr	r2, [r4, #40]	@ 0x28
 8004df0:	f402 5200 	and.w	r2, r2, #8192	@ 0x2000
 8004df4:	6821      	ldr	r1, [r4, #0]
 8004df6:	4313      	orrs	r3, r2
 8004df8:	600b      	str	r3, [r1, #0]
  WRITE_REG(hspi->Instance->CR2, ((hspi->Init.NSS >> 16U) & SPI_CR2_SSOE));
 8004dfa:	8b63      	ldrh	r3, [r4, #26]
 8004dfc:	6822      	ldr	r2, [r4, #0]
 8004dfe:	f003 0304 	and.w	r3, r3, #4
 8004e02:	6053      	str	r3, [r2, #4]
  CLEAR_BIT(hspi->Instance->I2SCFGR, SPI_I2SCFGR_I2SMOD);
 8004e04:	6822      	ldr	r2, [r4, #0]
 8004e06:	69d3      	ldr	r3, [r2, #28]
 8004e08:	f423 6300 	bic.w	r3, r3, #2048	@ 0x800
 8004e0c:	61d3      	str	r3, [r2, #28]
  hspi->ErrorCode = HAL_SPI_ERROR_NONE;
 8004e0e:	2000      	movs	r0, #0
 8004e10:	6560      	str	r0, [r4, #84]	@ 0x54
  hspi->State     = HAL_SPI_STATE_READY;
 8004e12:	2301      	movs	r3, #1
 8004e14:	f884 3051 	strb.w	r3, [r4, #81]	@ 0x51
}
 8004e18:	bd10      	pop	{r4, pc}
    hspi->Lock = HAL_UNLOCKED;
 8004e1a:	f884 3050 	strb.w	r3, [r4, #80]	@ 0x50
    HAL_SPI_MspInit(hspi);
 8004e1e:	4620      	mov	r0, r4
 8004e20:	f7fe fd9c 	bl	800395c <HAL_SPI_MspInit>
 8004e24:	e7bc      	b.n	8004da0 <HAL_SPI_Init+0x2c>
    return HAL_ERROR;
 8004e26:	2001      	movs	r0, #1
}
 8004e28:	4770      	bx	lr

08004e2a <HAL_SPI_Transmit>:
{
 8004e2a:	e92d 43f0 	stmdb	sp!, {r4, r5, r6, r7, r8, r9, lr}
 8004e2e:	b083      	sub	sp, #12
 8004e30:	4604      	mov	r4, r0
 8004e32:	4689      	mov	r9, r1
 8004e34:	4690      	mov	r8, r2
 8004e36:	461d      	mov	r5, r3
  tickstart = HAL_GetTick();
 8004e38:	f7fe ff32 	bl	8003ca0 <HAL_GetTick>
  if (hspi->State != HAL_SPI_STATE_READY)
 8004e3c:	f894 6051 	ldrb.w	r6, [r4, #81]	@ 0x51
 8004e40:	b2f6      	uxtb	r6, r6
 8004e42:	2e01      	cmp	r6, #1
 8004e44:	f040 80cc 	bne.w	8004fe0 <HAL_SPI_Transmit+0x1b6>
 8004e48:	4607      	mov	r7, r0
  if ((pData == NULL) || (Size == 0U))
 8004e4a:	f1b9 0f00 	cmp.w	r9, #0
 8004e4e:	f000 80c8 	beq.w	8004fe2 <HAL_SPI_Transmit+0x1b8>
 8004e52:	f1b8 0f00 	cmp.w	r8, #0
 8004e56:	f000 80c4 	beq.w	8004fe2 <HAL_SPI_Transmit+0x1b8>
  __HAL_LOCK(hspi);
 8004e5a:	f894 3050 	ldrb.w	r3, [r4, #80]	@ 0x50
 8004e5e:	2b01      	cmp	r3, #1
 8004e60:	f000 80c3 	beq.w	8004fea <HAL_SPI_Transmit+0x1c0>
 8004e64:	2301      	movs	r3, #1
 8004e66:	f884 3050 	strb.w	r3, [r4, #80]	@ 0x50
  hspi->State       = HAL_SPI_STATE_BUSY_TX;
 8004e6a:	2303      	movs	r3, #3
 8004e6c:	f884 3051 	strb.w	r3, [r4, #81]	@ 0x51
  hspi->ErrorCode   = HAL_SPI_ERROR_NONE;
 8004e70:	2300      	movs	r3, #0
 8004e72:	6563      	str	r3, [r4, #84]	@ 0x54
  hspi->pTxBuffPtr  = (const uint8_t *)pData;
 8004e74:	f8c4 9030 	str.w	r9, [r4, #48]	@ 0x30
  hspi->TxXferSize  = Size;
 8004e78:	f8a4 8034 	strh.w	r8, [r4, #52]	@ 0x34
  hspi->TxXferCount = Size;
 8004e7c:	f8a4 8036 	strh.w	r8, [r4, #54]	@ 0x36
  hspi->pRxBuffPtr  = (uint8_t *)NULL;
 8004e80:	63a3      	str	r3, [r4, #56]	@ 0x38
  hspi->RxXferSize  = 0U;
 8004e82:	87a3      	strh	r3, [r4, #60]	@ 0x3c
  hspi->RxXferCount = 0U;
 8004e84:	87e3      	strh	r3, [r4, #62]	@ 0x3e
  hspi->TxISR       = NULL;
 8004e86:	6463      	str	r3, [r4, #68]	@ 0x44
  hspi->RxISR       = NULL;
 8004e88:	6423      	str	r3, [r4, #64]	@ 0x40
  if (hspi->Init.Direction == SPI_DIRECTION_1LINE)
 8004e8a:	68a3      	ldr	r3, [r4, #8]
 8004e8c:	f5b3 4f00 	cmp.w	r3, #32768	@ 0x8000
 8004e90:	d01e      	beq.n	8004ed0 <HAL_SPI_Transmit+0xa6>
  if ((hspi->Instance->CR1 & SPI_CR1_SPE) != SPI_CR1_SPE)
 8004e92:	6823      	ldr	r3, [r4, #0]
 8004e94:	681a      	ldr	r2, [r3, #0]
 8004e96:	f012 0f40 	tst.w	r2, #64	@ 0x40
 8004e9a:	d103      	bne.n	8004ea4 <HAL_SPI_Transmit+0x7a>
    __HAL_SPI_ENABLE(hspi);
 8004e9c:	681a      	ldr	r2, [r3, #0]
 8004e9e:	f042 0240 	orr.w	r2, r2, #64	@ 0x40
 8004ea2:	601a      	str	r2, [r3, #0]
  if (hspi->Init.DataSize == SPI_DATASIZE_16BIT)
 8004ea4:	68e3      	ldr	r3, [r4, #12]
 8004ea6:	f5b3 6f00 	cmp.w	r3, #2048	@ 0x800
 8004eaa:	d01c      	beq.n	8004ee6 <HAL_SPI_Transmit+0xbc>
    if ((hspi->Init.Mode == SPI_MODE_SLAVE) || (initial_TxXferCount == 0x01U))
 8004eac:	6863      	ldr	r3, [r4, #4]
 8004eae:	b113      	cbz	r3, 8004eb6 <HAL_SPI_Transmit+0x8c>
 8004eb0:	f1b8 0f01 	cmp.w	r8, #1
 8004eb4:	d15f      	bne.n	8004f76 <HAL_SPI_Transmit+0x14c>
      *((__IO uint8_t *)&hspi->Instance->DR) = *((const uint8_t *)hspi->pTxBuffPtr);
 8004eb6:	6b22      	ldr	r2, [r4, #48]	@ 0x30
 8004eb8:	6823      	ldr	r3, [r4, #0]
 8004eba:	7812      	ldrb	r2, [r2, #0]
 8004ebc:	731a      	strb	r2, [r3, #12]
      hspi->pTxBuffPtr += sizeof(uint8_t);
 8004ebe:	6b23      	ldr	r3, [r4, #48]	@ 0x30
 8004ec0:	3301      	adds	r3, #1
 8004ec2:	6323      	str	r3, [r4, #48]	@ 0x30
      hspi->TxXferCount--;
 8004ec4:	8ee3      	ldrh	r3, [r4, #54]	@ 0x36
 8004ec6:	b29b      	uxth	r3, r3
 8004ec8:	3b01      	subs	r3, #1
 8004eca:	b29b      	uxth	r3, r3
 8004ecc:	86e3      	strh	r3, [r4, #54]	@ 0x36
 8004ece:	e052      	b.n	8004f76 <HAL_SPI_Transmit+0x14c>
    __HAL_SPI_DISABLE(hspi);
 8004ed0:	6822      	ldr	r2, [r4, #0]
 8004ed2:	6813      	ldr	r3, [r2, #0]
 8004ed4:	f023 0340 	bic.w	r3, r3, #64	@ 0x40
 8004ed8:	6013      	str	r3, [r2, #0]
    SPI_1LINE_TX(hspi);
 8004eda:	6822      	ldr	r2, [r4, #0]
 8004edc:	6813      	ldr	r3, [r2, #0]
 8004ede:	f443 4380 	orr.w	r3, r3, #16384	@ 0x4000
 8004ee2:	6013      	str	r3, [r2, #0]
 8004ee4:	e7d5      	b.n	8004e92 <HAL_SPI_Transmit+0x68>
    if ((hspi->Init.Mode == SPI_MODE_SLAVE) || (initial_TxXferCount == 0x01U))
 8004ee6:	6863      	ldr	r3, [r4, #4]
 8004ee8:	b113      	cbz	r3, 8004ef0 <HAL_SPI_Transmit+0xc6>
 8004eea:	f1b8 0f01 	cmp.w	r8, #1
 8004eee:	d115      	bne.n	8004f1c <HAL_SPI_Transmit+0xf2>
      hspi->Instance->DR = *((const uint16_t *)hspi->pTxBuffPtr);
 8004ef0:	6b22      	ldr	r2, [r4, #48]	@ 0x30
 8004ef2:	6823      	ldr	r3, [r4, #0]
 8004ef4:	8812      	ldrh	r2, [r2, #0]
 8004ef6:	60da      	str	r2, [r3, #12]
      hspi->pTxBuffPtr += sizeof(uint16_t);
 8004ef8:	6b23      	ldr	r3, [r4, #48]	@ 0x30
 8004efa:	3302      	adds	r3, #2
 8004efc:	6323      	str	r3, [r4, #48]	@ 0x30
      hspi->TxXferCount--;
 8004efe:	8ee3      	ldrh	r3, [r4, #54]	@ 0x36
 8004f00:	b29b      	uxth	r3, r3
 8004f02:	3b01      	subs	r3, #1
 8004f04:	b29b      	uxth	r3, r3
 8004f06:	86e3      	strh	r3, [r4, #54]	@ 0x36
 8004f08:	e008      	b.n	8004f1c <HAL_SPI_Transmit+0xf2>
        if ((((HAL_GetTick() - tickstart) >=  Timeout) && (Timeout != HAL_MAX_DELAY)) || (Timeout == 0U))
 8004f0a:	f7fe fec9 	bl	8003ca0 <HAL_GetTick>
 8004f0e:	1bc0      	subs	r0, r0, r7
 8004f10:	42a8      	cmp	r0, r5
 8004f12:	d302      	bcc.n	8004f1a <HAL_SPI_Transmit+0xf0>
 8004f14:	f1b5 3fff 	cmp.w	r5, #4294967295
 8004f18:	d115      	bne.n	8004f46 <HAL_SPI_Transmit+0x11c>
 8004f1a:	b1a5      	cbz	r5, 8004f46 <HAL_SPI_Transmit+0x11c>
    while (hspi->TxXferCount > 0U)
 8004f1c:	8ee3      	ldrh	r3, [r4, #54]	@ 0x36
 8004f1e:	b29b      	uxth	r3, r3
 8004f20:	2b00      	cmp	r3, #0
 8004f22:	d042      	beq.n	8004faa <HAL_SPI_Transmit+0x180>
      if (__HAL_SPI_GET_FLAG(hspi, SPI_FLAG_TXE))
 8004f24:	6823      	ldr	r3, [r4, #0]
 8004f26:	689a      	ldr	r2, [r3, #8]
 8004f28:	f012 0f02 	tst.w	r2, #2
 8004f2c:	d0ed      	beq.n	8004f0a <HAL_SPI_Transmit+0xe0>
        hspi->Instance->DR = *((const uint16_t *)hspi->pTxBuffPtr);
 8004f2e:	6b22      	ldr	r2, [r4, #48]	@ 0x30
 8004f30:	8812      	ldrh	r2, [r2, #0]
 8004f32:	60da      	str	r2, [r3, #12]
        hspi->pTxBuffPtr += sizeof(uint16_t);
 8004f34:	6b23      	ldr	r3, [r4, #48]	@ 0x30
 8004f36:	3302      	adds	r3, #2
 8004f38:	6323      	str	r3, [r4, #48]	@ 0x30
        hspi->TxXferCount--;
 8004f3a:	8ee3      	ldrh	r3, [r4, #54]	@ 0x36
 8004f3c:	b29b      	uxth	r3, r3
 8004f3e:	3b01      	subs	r3, #1
 8004f40:	b29b      	uxth	r3, r3
 8004f42:	86e3      	strh	r3, [r4, #54]	@ 0x36
 8004f44:	e7ea      	b.n	8004f1c <HAL_SPI_Transmit+0xf2>
          hspi->State = HAL_SPI_STATE_READY;
 8004f46:	2301      	movs	r3, #1
 8004f48:	f884 3051 	strb.w	r3, [r4, #81]	@ 0x51
          __HAL_UNLOCK(hspi);
 8004f4c:	2300      	movs	r3, #0
 8004f4e:	f884 3050 	strb.w	r3, [r4, #80]	@ 0x50
          return HAL_TIMEOUT;
 8004f52:	2603      	movs	r6, #3
 8004f54:	e045      	b.n	8004fe2 <HAL_SPI_Transmit+0x1b8>
        *((__IO uint8_t *)&hspi->Instance->DR) = *((const uint8_t *)hspi->pTxBuffPtr);
 8004f56:	6b22      	ldr	r2, [r4, #48]	@ 0x30
 8004f58:	7812      	ldrb	r2, [r2, #0]
 8004f5a:	731a      	strb	r2, [r3, #12]
        hspi->pTxBuffPtr += sizeof(uint8_t);
 8004f5c:	6b23      	ldr	r3, [r4, #48]	@ 0x30
 8004f5e:	3301      	adds	r3, #1
 8004f60:	6323      	str	r3, [r4, #48]	@ 0x30
        hspi->TxXferCount--;
 8004f62:	f8b4 c036 	ldrh.w	ip, [r4, #54]	@ 0x36
 8004f66:	fa1f fc8c 	uxth.w	ip, ip
 8004f6a:	f10c 3cff 	add.w	ip, ip, #4294967295
 8004f6e:	fa1f fc8c 	uxth.w	ip, ip
 8004f72:	f8a4 c036 	strh.w	ip, [r4, #54]	@ 0x36
    while (hspi->TxXferCount > 0U)
 8004f76:	8ee3      	ldrh	r3, [r4, #54]	@ 0x36
 8004f78:	b29b      	uxth	r3, r3
 8004f7a:	b1b3      	cbz	r3, 8004faa <HAL_SPI_Transmit+0x180>
      if (__HAL_SPI_GET_FLAG(hspi, SPI_FLAG_TXE))
 8004f7c:	6823      	ldr	r3, [r4, #0]
 8004f7e:	689a      	ldr	r2, [r3, #8]
 8004f80:	f012 0f02 	tst.w	r2, #2
 8004f84:	d1e7      	bne.n	8004f56 <HAL_SPI_Transmit+0x12c>
        if ((((HAL_GetTick() - tickstart) >=  Timeout) && (Timeout != HAL_MAX_DELAY)) || (Timeout == 0U))
 8004f86:	f7fe fe8b 	bl	8003ca0 <HAL_GetTick>
 8004f8a:	1bc0      	subs	r0, r0, r7
 8004f8c:	42a8      	cmp	r0, r5
 8004f8e:	d302      	bcc.n	8004f96 <HAL_SPI_Transmit+0x16c>
 8004f90:	f1b5 3fff 	cmp.w	r5, #4294967295
 8004f94:	d101      	bne.n	8004f9a <HAL_SPI_Transmit+0x170>
 8004f96:	2d00      	cmp	r5, #0
 8004f98:	d1ed      	bne.n	8004f76 <HAL_SPI_Transmit+0x14c>
          hspi->State = HAL_SPI_STATE_READY;
 8004f9a:	2301      	movs	r3, #1
 8004f9c:	f884 3051 	strb.w	r3, [r4, #81]	@ 0x51
          __HAL_UNLOCK(hspi);
 8004fa0:	2300      	movs	r3, #0
 8004fa2:	f884 3050 	strb.w	r3, [r4, #80]	@ 0x50
          return HAL_TIMEOUT;
 8004fa6:	2603      	movs	r6, #3
 8004fa8:	e01b      	b.n	8004fe2 <HAL_SPI_Transmit+0x1b8>
  if (SPI_EndRxTxTransaction(hspi, Timeout, tickstart) != HAL_OK)
 8004faa:	463a      	mov	r2, r7
 8004fac:	4629      	mov	r1, r5
 8004fae:	4620      	mov	r0, r4
 8004fb0:	f7ff febe 	bl	8004d30 <SPI_EndRxTxTransaction>
 8004fb4:	b108      	cbz	r0, 8004fba <HAL_SPI_Transmit+0x190>
    hspi->ErrorCode = HAL_SPI_ERROR_FLAG;
 8004fb6:	2320      	movs	r3, #32
 8004fb8:	6563      	str	r3, [r4, #84]	@ 0x54
  if (hspi->Init.Direction == SPI_DIRECTION_2LINES)
 8004fba:	68a3      	ldr	r3, [r4, #8]
 8004fbc:	b933      	cbnz	r3, 8004fcc <HAL_SPI_Transmit+0x1a2>
    __HAL_SPI_CLEAR_OVRFLAG(hspi);
 8004fbe:	9301      	str	r3, [sp, #4]
 8004fc0:	6823      	ldr	r3, [r4, #0]
 8004fc2:	68da      	ldr	r2, [r3, #12]
 8004fc4:	9201      	str	r2, [sp, #4]
 8004fc6:	689b      	ldr	r3, [r3, #8]
 8004fc8:	9301      	str	r3, [sp, #4]
 8004fca:	9b01      	ldr	r3, [sp, #4]
  hspi->State = HAL_SPI_STATE_READY;
 8004fcc:	2301      	movs	r3, #1
 8004fce:	f884 3051 	strb.w	r3, [r4, #81]	@ 0x51
  __HAL_UNLOCK(hspi);
 8004fd2:	2300      	movs	r3, #0
 8004fd4:	f884 3050 	strb.w	r3, [r4, #80]	@ 0x50
  if (hspi->ErrorCode != HAL_SPI_ERROR_NONE)
 8004fd8:	6d63      	ldr	r3, [r4, #84]	@ 0x54
 8004fda:	b913      	cbnz	r3, 8004fe2 <HAL_SPI_Transmit+0x1b8>
    return HAL_OK;
 8004fdc:	2600      	movs	r6, #0
 8004fde:	e000      	b.n	8004fe2 <HAL_SPI_Transmit+0x1b8>
    return HAL_BUSY;
 8004fe0:	2602      	movs	r6, #2
}
 8004fe2:	4630      	mov	r0, r6
 8004fe4:	b003      	add	sp, #12
 8004fe6:	e8bd 83f0 	ldmia.w	sp!, {r4, r5, r6, r7, r8, r9, pc}
  __HAL_LOCK(hspi);
 8004fea:	2602      	movs	r6, #2
 8004fec:	e7f9      	b.n	8004fe2 <HAL_SPI_Transmit+0x1b8>

08004fee <HAL_TIM_Base_MspInit>:
  UNUSED(htim);

  /* NOTE : This function should not be modified, when the callback is needed,
            the HAL_TIM_Base_MspInit could be implemented in the user file
   */
}
 8004fee:	4770      	bx	lr

08004ff0 <HAL_TIM_Base_Start_IT>:

  /* Check the parameters */
  assert_param(IS_TIM_INSTANCE(htim->Instance));

  /* Check the TIM state */
  if (htim->State != HAL_TIM_STATE_READY)
 8004ff0:	f890 303d 	ldrb.w	r3, [r0, #61]	@ 0x3d
 8004ff4:	b2db      	uxtb	r3, r3
 8004ff6:	2b01      	cmp	r3, #1
 8004ff8:	d127      	bne.n	800504a <HAL_TIM_Base_Start_IT+0x5a>
  {
    return HAL_ERROR;
  }

  /* Set the TIM state */
  htim->State = HAL_TIM_STATE_BUSY;
 8004ffa:	2302      	movs	r3, #2
 8004ffc:	f880 303d 	strb.w	r3, [r0, #61]	@ 0x3d

  /* Enable the TIM Update interrupt */
  __HAL_TIM_ENABLE_IT(htim, TIM_IT_UPDATE);
 8005000:	6802      	ldr	r2, [r0, #0]
 8005002:	68d3      	ldr	r3, [r2, #12]
 8005004:	f043 0301 	orr.w	r3, r3, #1
 8005008:	60d3      	str	r3, [r2, #12]

  /* Enable the Peripheral, except in trigger mode where enable is automatically done with trigger */
  if (IS_TIM_SLAVE_INSTANCE(htim->Instance))
 800500a:	6803      	ldr	r3, [r0, #0]
 800500c:	4a11      	ldr	r2, [pc, #68]	@ (8005054 <HAL_TIM_Base_Start_IT+0x64>)
 800500e:	4293      	cmp	r3, r2
 8005010:	d010      	beq.n	8005034 <HAL_TIM_Base_Start_IT+0x44>
 8005012:	f1b3 4f80 	cmp.w	r3, #1073741824	@ 0x40000000
 8005016:	d00d      	beq.n	8005034 <HAL_TIM_Base_Start_IT+0x44>
 8005018:	f5a2 3294 	sub.w	r2, r2, #75776	@ 0x12800
 800501c:	4293      	cmp	r3, r2
 800501e:	d009      	beq.n	8005034 <HAL_TIM_Base_Start_IT+0x44>
 8005020:	f502 6280 	add.w	r2, r2, #1024	@ 0x400
 8005024:	4293      	cmp	r3, r2
 8005026:	d005      	beq.n	8005034 <HAL_TIM_Base_Start_IT+0x44>
      __HAL_TIM_ENABLE(htim);
    }
  }
  else
  {
    __HAL_TIM_ENABLE(htim);
 8005028:	681a      	ldr	r2, [r3, #0]
 800502a:	f042 0201 	orr.w	r2, r2, #1
 800502e:	601a      	str	r2, [r3, #0]
  }

  /* Return function status */
  return HAL_OK;
 8005030:	2000      	movs	r0, #0
 8005032:	4770      	bx	lr
    tmpsmcr = htim->Instance->SMCR & TIM_SMCR_SMS;
 8005034:	689a      	ldr	r2, [r3, #8]
 8005036:	f002 0207 	and.w	r2, r2, #7
    if (!IS_TIM_SLAVEMODE_TRIGGER_ENABLED(tmpsmcr))
 800503a:	2a06      	cmp	r2, #6
 800503c:	d007      	beq.n	800504e <HAL_TIM_Base_Start_IT+0x5e>
      __HAL_TIM_ENABLE(htim);
 800503e:	681a      	ldr	r2, [r3, #0]
 8005040:	f042 0201 	orr.w	r2, r2, #1
 8005044:	601a      	str	r2, [r3, #0]
  return HAL_OK;
 8005046:	2000      	movs	r0, #0
 8005048:	4770      	bx	lr
    return HAL_ERROR;
 800504a:	2001      	movs	r0, #1
 800504c:	4770      	bx	lr
  return HAL_OK;
 800504e:	2000      	movs	r0, #0
}
 8005050:	4770      	bx	lr
 8005052:	bf00      	nop
 8005054:	40012c00 	.word	0x40012c00

08005058 <HAL_TIM_OC_DelayElapsedCallback>:
  UNUSED(htim);

  /* NOTE : This function should not be modified, when the callback is needed,
            the HAL_TIM_OC_DelayElapsedCallback could be implemented in the user file
   */
}
 8005058:	4770      	bx	lr

0800505a <HAL_TIM_IC_CaptureCallback>:
  UNUSED(htim);

  /* NOTE : This function should not be modified, when the callback is needed,
            the HAL_TIM_IC_CaptureCallback could be implemented in the user file
   */
}
 800505a:	4770      	bx	lr

0800505c <HAL_TIM_PWM_PulseFinishedCallback>:
  UNUSED(htim);

  /* NOTE : This function should not be modified, when the callback is needed,
            the HAL_TIM_PWM_PulseFinishedCallback could be implemented in the user file
   */
}
 800505c:	4770      	bx	lr

0800505e <HAL_TIM_TriggerCallback>:
  UNUSED(htim);

  /* NOTE : This function should not be modified, when the callback is needed,
            the HAL_TIM_TriggerCallback could be implemented in the user file
   */
}
 800505e:	4770      	bx	lr

08005060 <HAL_TIM_IRQHandler>:
{
 8005060:	b570      	push	{r4, r5, r6, lr}
 8005062:	4604      	mov	r4, r0
  uint32_t itsource = htim->Instance->DIER;
 8005064:	6803      	ldr	r3, [r0, #0]
 8005066:	68de      	ldr	r6, [r3, #12]
  uint32_t itflag   = htim->Instance->SR;
 8005068:	691d      	ldr	r5, [r3, #16]
  if ((itflag & (TIM_FLAG_CC1)) == (TIM_FLAG_CC1))
 800506a:	f015 0f02 	tst.w	r5, #2
 800506e:	d010      	beq.n	8005092 <HAL_TIM_IRQHandler+0x32>
    if ((itsource & (TIM_IT_CC1)) == (TIM_IT_CC1))
 8005070:	f016 0f02 	tst.w	r6, #2
 8005074:	d00d      	beq.n	8005092 <HAL_TIM_IRQHandler+0x32>
        __HAL_TIM_CLEAR_FLAG(htim, TIM_FLAG_CC1);
 8005076:	f06f 0202 	mvn.w	r2, #2
 800507a:	611a      	str	r2, [r3, #16]
        htim->Channel = HAL_TIM_ACTIVE_CHANNEL_1;
 800507c:	2301      	movs	r3, #1
 800507e:	7703      	strb	r3, [r0, #28]
        if ((htim->Instance->CCMR1 & TIM_CCMR1_CC1S) != 0x00U)
 8005080:	6803      	ldr	r3, [r0, #0]
 8005082:	699b      	ldr	r3, [r3, #24]
 8005084:	f013 0f03 	tst.w	r3, #3
 8005088:	d05e      	beq.n	8005148 <HAL_TIM_IRQHandler+0xe8>
          HAL_TIM_IC_CaptureCallback(htim);
 800508a:	f7ff ffe6 	bl	800505a <HAL_TIM_IC_CaptureCallback>
        htim->Channel = HAL_TIM_ACTIVE_CHANNEL_CLEARED;
 800508e:	2300      	movs	r3, #0
 8005090:	7723      	strb	r3, [r4, #28]
  if ((itflag & (TIM_FLAG_CC2)) == (TIM_FLAG_CC2))
 8005092:	f015 0f04 	tst.w	r5, #4
 8005096:	d012      	beq.n	80050be <HAL_TIM_IRQHandler+0x5e>
    if ((itsource & (TIM_IT_CC2)) == (TIM_IT_CC2))
 8005098:	f016 0f04 	tst.w	r6, #4
 800509c:	d00f      	beq.n	80050be <HAL_TIM_IRQHandler+0x5e>
      __HAL_TIM_CLEAR_FLAG(htim, TIM_FLAG_CC2);
 800509e:	6823      	ldr	r3, [r4, #0]
 80050a0:	f06f 0204 	mvn.w	r2, #4
 80050a4:	611a      	str	r2, [r3, #16]
      htim->Channel = HAL_TIM_ACTIVE_CHANNEL_2;
 80050a6:	2302      	movs	r3, #2
 80050a8:	7723      	strb	r3, [r4, #28]
      if ((htim->Instance->CCMR1 & TIM_CCMR1_CC2S) != 0x00U)
 80050aa:	6823      	ldr	r3, [r4, #0]
 80050ac:	699b      	ldr	r3, [r3, #24]
 80050ae:	f413 7f40 	tst.w	r3, #768	@ 0x300
 80050b2:	d04f      	beq.n	8005154 <HAL_TIM_IRQHandler+0xf4>
        HAL_TIM_IC_CaptureCallback(htim);
 80050b4:	4620      	mov	r0, r4
 80050b6:	f7ff ffd0 	bl	800505a <HAL_TIM_IC_CaptureCallback>
      htim->Channel = HAL_TIM_ACTIVE_CHANNEL_CLEARED;
 80050ba:	2300      	movs	r3, #0
 80050bc:	7723      	strb	r3, [r4, #28]
  if ((itflag & (TIM_FLAG_CC3)) == (TIM_FLAG_CC3))
 80050be:	f015 0f08 	tst.w	r5, #8
 80050c2:	d012      	beq.n	80050ea <HAL_TIM_IRQHandler+0x8a>
    if ((itsource & (TIM_IT_CC3)) == (TIM_IT_CC3))
 80050c4:	f016 0f08 	tst.w	r6, #8
 80050c8:	d00f      	beq.n	80050ea <HAL_TIM_IRQHandler+0x8a>
      __HAL_TIM_CLEAR_FLAG(htim, TIM_FLAG_CC3);
 80050ca:	6823      	ldr	r3, [r4, #0]
 80050cc:	f06f 0208 	mvn.w	r2, #8
 80050d0:	611a      	str	r2, [r3, #16]
      htim->Channel = HAL_TIM_ACTIVE_CHANNEL_3;
 80050d2:	2304      	movs	r3, #4
 80050d4:	7723      	strb	r3, [r4, #28]
      if ((htim->Instance->CCMR2 & TIM_CCMR2_CC3S) != 0x00U)
 80050d6:	6823      	ldr	r3, [r4, #0]
 80050d8:	69db      	ldr	r3, [r3, #28]
 80050da:	f013 0f03 	tst.w	r3, #3
 80050de:	d040      	beq.n	8005162 <HAL_TIM_IRQHandler+0x102>
        HAL_TIM_IC_CaptureCallback(htim);
 80050e0:	4620      	mov	r0, r4
 80050e2:	f7ff ffba 	bl	800505a <HAL_TIM_IC_CaptureCallback>
      htim->Channel = HAL_TIM_ACTIVE_CHANNEL_CLEARED;
 80050e6:	2300      	movs	r3, #0
 80050e8:	7723      	strb	r3, [r4, #28]
  if ((itflag & (TIM_FLAG_CC4)) == (TIM_FLAG_CC4))
 80050ea:	f015 0f10 	tst.w	r5, #16
 80050ee:	d012      	beq.n	8005116 <HAL_TIM_IRQHandler+0xb6>
    if ((itsource & (TIM_IT_CC4)) == (TIM_IT_CC4))
 80050f0:	f016 0f10 	tst.w	r6, #16
 80050f4:	d00f      	beq.n	8005116 <HAL_TIM_IRQHandler+0xb6>
      __HAL_TIM_CLEAR_FLAG(htim, TIM_FLAG_CC4);
 80050f6:	6823      	ldr	r3, [r4, #0]
 80050f8:	f06f 0210 	mvn.w	r2, #16
 80050fc:	611a      	str	r2, [r3, #16]
      htim->Channel = HAL_TIM_ACTIVE_CHANNEL_4;
 80050fe:	2308      	movs	r3, #8
 8005100:	7723      	strb	r3, [r4, #28]
      if ((htim->Instance->CCMR2 & TIM_CCMR2_CC4S) != 0x00U)
 8005102:	6823      	ldr	r3, [r4, #0]
 8005104:	69db      	ldr	r3, [r3, #28]
 8005106:	f413 7f40 	tst.w	r3, #768	@ 0x300
 800510a:	d031      	beq.n	8005170 <HAL_TIM_IRQHandler+0x110>
        HAL_TIM_IC_CaptureCallback(htim);
 800510c:	4620      	mov	r0, r4
 800510e:	f7ff ffa4 	bl	800505a <HAL_TIM_IC_CaptureCallback>
      htim->Channel = HAL_TIM_ACTIVE_CHANNEL_CLEARED;
 8005112:	2300      	movs	r3, #0
 8005114:	7723      	strb	r3, [r4, #28]
  if ((itflag & (TIM_FLAG_UPDATE)) == (TIM_FLAG_UPDATE))
 8005116:	f015 0f01 	tst.w	r5, #1
 800511a:	d002      	beq.n	8005122 <HAL_TIM_IRQHandler+0xc2>
    if ((itsource & (TIM_IT_UPDATE)) == (TIM_IT_UPDATE))
 800511c:	f016 0f01 	tst.w	r6, #1
 8005120:	d12d      	bne.n	800517e <HAL_TIM_IRQHandler+0x11e>
  if ((itflag & (TIM_FLAG_BREAK)) == (TIM_FLAG_BREAK))
 8005122:	f015 0f80 	tst.w	r5, #128	@ 0x80
 8005126:	d002      	beq.n	800512e <HAL_TIM_IRQHandler+0xce>
    if ((itsource & (TIM_IT_BREAK)) == (TIM_IT_BREAK))
 8005128:	f016 0f80 	tst.w	r6, #128	@ 0x80
 800512c:	d12f      	bne.n	800518e <HAL_TIM_IRQHandler+0x12e>
  if ((itflag & (TIM_FLAG_TRIGGER)) == (TIM_FLAG_TRIGGER))
 800512e:	f015 0f40 	tst.w	r5, #64	@ 0x40
 8005132:	d002      	beq.n	800513a <HAL_TIM_IRQHandler+0xda>
    if ((itsource & (TIM_IT_TRIGGER)) == (TIM_IT_TRIGGER))
 8005134:	f016 0f40 	tst.w	r6, #64	@ 0x40
 8005138:	d131      	bne.n	800519e <HAL_TIM_IRQHandler+0x13e>
  if ((itflag & (TIM_FLAG_COM)) == (TIM_FLAG_COM))
 800513a:	f015 0f20 	tst.w	r5, #32
 800513e:	d002      	beq.n	8005146 <HAL_TIM_IRQHandler+0xe6>
    if ((itsource & (TIM_IT_COM)) == (TIM_IT_COM))
 8005140:	f016 0f20 	tst.w	r6, #32
 8005144:	d133      	bne.n	80051ae <HAL_TIM_IRQHandler+0x14e>
}
 8005146:	bd70      	pop	{r4, r5, r6, pc}
          HAL_TIM_OC_DelayElapsedCallback(htim);
 8005148:	f7ff ff86 	bl	8005058 <HAL_TIM_OC_DelayElapsedCallback>
          HAL_TIM_PWM_PulseFinishedCallback(htim);
 800514c:	4620      	mov	r0, r4
 800514e:	f7ff ff85 	bl	800505c <HAL_TIM_PWM_PulseFinishedCallback>
 8005152:	e79c      	b.n	800508e <HAL_TIM_IRQHandler+0x2e>
        HAL_TIM_OC_DelayElapsedCallback(htim);
 8005154:	4620      	mov	r0, r4
 8005156:	f7ff ff7f 	bl	8005058 <HAL_TIM_OC_DelayElapsedCallback>
        HAL_TIM_PWM_PulseFinishedCallback(htim);
 800515a:	4620      	mov	r0, r4
 800515c:	f7ff ff7e 	bl	800505c <HAL_TIM_PWM_PulseFinishedCallback>
 8005160:	e7ab      	b.n	80050ba <HAL_TIM_IRQHandler+0x5a>
        HAL_TIM_OC_DelayElapsedCallback(htim);
 8005162:	4620      	mov	r0, r4
 8005164:	f7ff ff78 	bl	8005058 <HAL_TIM_OC_DelayElapsedCallback>
        HAL_TIM_PWM_PulseFinishedCallback(htim);
 8005168:	4620      	mov	r0, r4
 800516a:	f7ff ff77 	bl	800505c <HAL_TIM_PWM_PulseFinishedCallback>
 800516e:	e7ba      	b.n	80050e6 <HAL_TIM_IRQHandler+0x86>
        HAL_TIM_OC_DelayElapsedCallback(htim);
 8005170:	4620      	mov	r0, r4
 8005172:	f7ff ff71 	bl	8005058 <HAL_TIM_OC_DelayElapsedCallback>
        HAL_TIM_PWM_PulseFinishedCallback(htim);
 8005176:	4620      	mov	r0, r4
 8005178:	f7ff ff70 	bl	800505c <HAL_TIM_PWM_PulseFinishedCallback>
 800517c:	e7c9      	b.n	8005112 <HAL_TIM_IRQHandler+0xb2>
      __HAL_TIM_CLEAR_FLAG(htim, TIM_FLAG_UPDATE);
 800517e:	6823      	ldr	r3, [r4, #0]
 8005180:	f06f 0201 	mvn.w	r2, #1
 8005184:	611a      	str	r2, [r3, #16]
      HAL_TIM_PeriodElapsedCallback(htim);
 8005186:	4620      	mov	r0, r4
 8005188:	f7fc f9b8 	bl	80014fc <HAL_TIM_PeriodElapsedCallback>
 800518c:	e7c9      	b.n	8005122 <HAL_TIM_IRQHandler+0xc2>
      __HAL_TIM_CLEAR_FLAG(htim, TIM_FLAG_BREAK);
 800518e:	6823      	ldr	r3, [r4, #0]
 8005190:	f06f 0280 	mvn.w	r2, #128	@ 0x80
 8005194:	611a      	str	r2, [r3, #16]
      HAL_TIMEx_BreakCallback(htim);
 8005196:	4620      	mov	r0, r4
 8005198:	f000 f881 	bl	800529e <HAL_TIMEx_BreakCallback>
 800519c:	e7c7      	b.n	800512e <HAL_TIM_IRQHandler+0xce>
      __HAL_TIM_CLEAR_FLAG(htim, TIM_FLAG_TRIGGER);
 800519e:	6823      	ldr	r3, [r4, #0]
 80051a0:	f06f 0240 	mvn.w	r2, #64	@ 0x40
 80051a4:	611a      	str	r2, [r3, #16]
      HAL_TIM_TriggerCallback(htim);
 80051a6:	4620      	mov	r0, r4
 80051a8:	f7ff ff59 	bl	800505e <HAL_TIM_TriggerCallback>
 80051ac:	e7c5      	b.n	800513a <HAL_TIM_IRQHandler+0xda>
      __HAL_TIM_CLEAR_FLAG(htim, TIM_FLAG_COM);
 80051ae:	6823      	ldr	r3, [r4, #0]
 80051b0:	f06f 0220 	mvn.w	r2, #32
 80051b4:	611a      	str	r2, [r3, #16]
      HAL_TIMEx_CommutCallback(htim);
 80051b6:	4620      	mov	r0, r4
 80051b8:	f000 f870 	bl	800529c <HAL_TIMEx_CommutCallback>
}
 80051bc:	e7c3      	b.n	8005146 <HAL_TIM_IRQHandler+0xe6>
	...

080051c0 <TIM_Base_SetConfig>:
  * @retval None
  */
void TIM_Base_SetConfig(TIM_TypeDef *TIMx, const TIM_Base_InitTypeDef *Structure)
{
  uint32_t tmpcr1;
  tmpcr1 = TIMx->CR1;
 80051c0:	6803      	ldr	r3, [r0, #0]

  /* Set TIM Time Base Unit parameters ---------------------------------------*/
  if (IS_TIM_COUNTER_MODE_SELECT_INSTANCE(TIMx))
 80051c2:	4a1f      	ldr	r2, [pc, #124]	@ (8005240 <TIM_Base_SetConfig+0x80>)
 80051c4:	4290      	cmp	r0, r2
 80051c6:	d00a      	beq.n	80051de <TIM_Base_SetConfig+0x1e>
 80051c8:	f1b0 4f80 	cmp.w	r0, #1073741824	@ 0x40000000
 80051cc:	d007      	beq.n	80051de <TIM_Base_SetConfig+0x1e>
 80051ce:	f5a2 3294 	sub.w	r2, r2, #75776	@ 0x12800
 80051d2:	4290      	cmp	r0, r2
 80051d4:	d003      	beq.n	80051de <TIM_Base_SetConfig+0x1e>
 80051d6:	f502 6280 	add.w	r2, r2, #1024	@ 0x400
 80051da:	4290      	cmp	r0, r2
 80051dc:	d103      	bne.n	80051e6 <TIM_Base_SetConfig+0x26>
  {
    /* Select the Counter Mode */
    tmpcr1 &= ~(TIM_CR1_DIR | TIM_CR1_CMS);
 80051de:	f023 0370 	bic.w	r3, r3, #112	@ 0x70
    tmpcr1 |= Structure->CounterMode;
 80051e2:	684a      	ldr	r2, [r1, #4]
 80051e4:	4313      	orrs	r3, r2
  }

  if (IS_TIM_CLOCK_DIVISION_INSTANCE(TIMx))
 80051e6:	4a16      	ldr	r2, [pc, #88]	@ (8005240 <TIM_Base_SetConfig+0x80>)
 80051e8:	4290      	cmp	r0, r2
 80051ea:	d00a      	beq.n	8005202 <TIM_Base_SetConfig+0x42>
 80051ec:	f1b0 4f80 	cmp.w	r0, #1073741824	@ 0x40000000
 80051f0:	d007      	beq.n	8005202 <TIM_Base_SetConfig+0x42>
 80051f2:	f5a2 3294 	sub.w	r2, r2, #75776	@ 0x12800
 80051f6:	4290      	cmp	r0, r2
 80051f8:	d003      	beq.n	8005202 <TIM_Base_SetConfig+0x42>
 80051fa:	f502 6280 	add.w	r2, r2, #1024	@ 0x400
 80051fe:	4290      	cmp	r0, r2
 8005200:	d103      	bne.n	800520a <TIM_Base_SetConfig+0x4a>
  {
    /* Set the clock division */
    tmpcr1 &= ~TIM_CR1_CKD;
 8005202:	f423 7340 	bic.w	r3, r3, #768	@ 0x300
    tmpcr1 |= (uint32_t)Structure->ClockDivision;
 8005206:	68ca      	ldr	r2, [r1, #12]
 8005208:	4313      	orrs	r3, r2
  }

  /* Set the auto-reload preload */
  MODIFY_REG(tmpcr1, TIM_CR1_ARPE, Structure->AutoReloadPreload);
 800520a:	f023 0380 	bic.w	r3, r3, #128	@ 0x80
 800520e:	694a      	ldr	r2, [r1, #20]
 8005210:	4313      	orrs	r3, r2

  TIMx->CR1 = tmpcr1;
 8005212:	6003      	str	r3, [r0, #0]

  /* Set the Autoreload value */
  TIMx->ARR = (uint32_t)Structure->Period ;
 8005214:	688b      	ldr	r3, [r1, #8]
 8005216:	62c3      	str	r3, [r0, #44]	@ 0x2c

  /* Set the Prescaler value */
  TIMx->PSC = Structure->Prescaler;
 8005218:	680b      	ldr	r3, [r1, #0]
 800521a:	6283      	str	r3, [r0, #40]	@ 0x28

  if (IS_TIM_REPETITION_COUNTER_INSTANCE(TIMx))
 800521c:	4b08      	ldr	r3, [pc, #32]	@ (8005240 <TIM_Base_SetConfig+0x80>)
 800521e:	4298      	cmp	r0, r3
 8005220:	d00a      	beq.n	8005238 <TIM_Base_SetConfig+0x78>
    TIMx->RCR = Structure->RepetitionCounter;
  }

  /* Generate an update event to reload the Prescaler
     and the repetition counter (only for advanced timer) value immediately */
  TIMx->EGR = TIM_EGR_UG;
 8005222:	2301      	movs	r3, #1
 8005224:	6143      	str	r3, [r0, #20]

  /* Check if the update flag is set after the Update Generation, if so clear the UIF flag */
  if (HAL_IS_BIT_SET(TIMx->SR, TIM_FLAG_UPDATE))
 8005226:	6903      	ldr	r3, [r0, #16]
 8005228:	f013 0f01 	tst.w	r3, #1
 800522c:	d003      	beq.n	8005236 <TIM_Base_SetConfig+0x76>
  {
    /* Clear the update flag */
    CLEAR_BIT(TIMx->SR, TIM_FLAG_UPDATE);
 800522e:	6903      	ldr	r3, [r0, #16]
 8005230:	f023 0301 	bic.w	r3, r3, #1
 8005234:	6103      	str	r3, [r0, #16]
  }
}
 8005236:	4770      	bx	lr
    TIMx->RCR = Structure->RepetitionCounter;
 8005238:	690b      	ldr	r3, [r1, #16]
 800523a:	6303      	str	r3, [r0, #48]	@ 0x30
 800523c:	e7f1      	b.n	8005222 <TIM_Base_SetConfig+0x62>
 800523e:	bf00      	nop
 8005240:	40012c00 	.word	0x40012c00

08005244 <HAL_TIM_Base_Init>:
  if (htim == NULL)
 8005244:	b340      	cbz	r0, 8005298 <HAL_TIM_Base_Init+0x54>
{
 8005246:	b510      	push	{r4, lr}
 8005248:	4604      	mov	r4, r0
  if (htim->State == HAL_TIM_STATE_RESET)
 800524a:	f890 303d 	ldrb.w	r3, [r0, #61]	@ 0x3d
 800524e:	b1f3      	cbz	r3, 800528e <HAL_TIM_Base_Init+0x4a>
  htim->State = HAL_TIM_STATE_BUSY;
 8005250:	2302      	movs	r3, #2
 8005252:	f884 303d 	strb.w	r3, [r4, #61]	@ 0x3d
  TIM_Base_SetConfig(htim->Instance, &htim->Init);
 8005256:	4621      	mov	r1, r4
 8005258:	f851 0b04 	ldr.w	r0, [r1], #4
 800525c:	f7ff ffb0 	bl	80051c0 <TIM_Base_SetConfig>
  htim->DMABurstState = HAL_DMA_BURST_STATE_READY;
 8005260:	2301      	movs	r3, #1
 8005262:	f884 3046 	strb.w	r3, [r4, #70]	@ 0x46
  TIM_CHANNEL_STATE_SET_ALL(htim, HAL_TIM_CHANNEL_STATE_READY);
 8005266:	f884 303e 	strb.w	r3, [r4, #62]	@ 0x3e
 800526a:	f884 303f 	strb.w	r3, [r4, #63]	@ 0x3f
 800526e:	f884 3040 	strb.w	r3, [r4, #64]	@ 0x40
 8005272:	f884 3041 	strb.w	r3, [r4, #65]	@ 0x41
  TIM_CHANNEL_N_STATE_SET_ALL(htim, HAL_TIM_CHANNEL_STATE_READY);
 8005276:	f884 3042 	strb.w	r3, [r4, #66]	@ 0x42
 800527a:	f884 3043 	strb.w	r3, [r4, #67]	@ 0x43
 800527e:	f884 3044 	strb.w	r3, [r4, #68]	@ 0x44
 8005282:	f884 3045 	strb.w	r3, [r4, #69]	@ 0x45
  htim->State = HAL_TIM_STATE_READY;
 8005286:	f884 303d 	strb.w	r3, [r4, #61]	@ 0x3d
  return HAL_OK;
 800528a:	2000      	movs	r0, #0
}
 800528c:	bd10      	pop	{r4, pc}
    htim->Lock = HAL_UNLOCKED;
 800528e:	f880 303c 	strb.w	r3, [r0, #60]	@ 0x3c
    HAL_TIM_Base_MspInit(htim);
 8005292:	f7ff feac 	bl	8004fee <HAL_TIM_Base_MspInit>
 8005296:	e7db      	b.n	8005250 <HAL_TIM_Base_Init+0xc>
    return HAL_ERROR;
 8005298:	2001      	movs	r0, #1
}
 800529a:	4770      	bx	lr

0800529c <HAL_TIMEx_CommutCallback>:
  UNUSED(htim);

  /* NOTE : This function should not be modified, when the callback is needed,
            the HAL_TIMEx_CommutCallback could be implemented in the user file
   */
}
 800529c:	4770      	bx	lr

0800529e <HAL_TIMEx_BreakCallback>:
  UNUSED(htim);

  /* NOTE : This function should not be modified, when the callback is needed,
            the HAL_TIMEx_BreakCallback could be implemented in the user file
   */
}
 800529e:	4770      	bx	lr

080052a0 <UART_EndRxTransfer>:
  * @retval None
  */
static void UART_EndRxTransfer(UART_HandleTypeDef *huart)
{
  /* Disable RXNE, PE and ERR (Frame error, noise error, overrun error) interrupts */
  ATOMIC_CLEAR_BIT(huart->Instance->CR1, (USART_CR1_RXNEIE | USART_CR1_PEIE));
 80052a0:	6802      	ldr	r2, [r0, #0]
 */
__STATIC_FORCEINLINE uint32_t __LDREXW(volatile uint32_t *addr)
{
    uint32_t result;

   __ASM volatile ("ldrex %0, %1" : "=r" (result) : "Q" (*addr) );
 80052a2:	f102 030c 	add.w	r3, r2, #12
 80052a6:	e853 3f00 	ldrex	r3, [r3]
 80052aa:	f423 7390 	bic.w	r3, r3, #288	@ 0x120
 */
__STATIC_FORCEINLINE uint32_t __STREXW(uint32_t value, volatile uint32_t *addr)
{
   uint32_t result;

   __ASM volatile ("strex %0, %2, %1" : "=&r" (result), "=Q" (*addr) : "r" (value) );
 80052ae:	320c      	adds	r2, #12
 80052b0:	e842 3100 	strex	r1, r3, [r2]
 80052b4:	2900      	cmp	r1, #0
 80052b6:	d1f3      	bne.n	80052a0 <UART_EndRxTransfer>
  ATOMIC_CLEAR_BIT(huart->Instance->CR3, USART_CR3_EIE);
 80052b8:	6802      	ldr	r2, [r0, #0]
   __ASM volatile ("ldrex %0, %1" : "=r" (result) : "Q" (*addr) );
 80052ba:	f102 0314 	add.w	r3, r2, #20
 80052be:	e853 3f00 	ldrex	r3, [r3]
 80052c2:	f023 0301 	bic.w	r3, r3, #1
   __ASM volatile ("strex %0, %2, %1" : "=&r" (result), "=Q" (*addr) : "r" (value) );
 80052c6:	3214      	adds	r2, #20
 80052c8:	e842 3100 	strex	r1, r3, [r2]
 80052cc:	2900      	cmp	r1, #0
 80052ce:	d1f3      	bne.n	80052b8 <UART_EndRxTransfer+0x18>

  /* In case of reception waiting for IDLE event, disable also the IDLE IE interrupt source */
  if (huart->ReceptionType == HAL_UART_RECEPTION_TOIDLE)
 80052d0:	6b03      	ldr	r3, [r0, #48]	@ 0x30
 80052d2:	2b01      	cmp	r3, #1
 80052d4:	d005      	beq.n	80052e2 <UART_EndRxTransfer+0x42>
  {
    ATOMIC_CLEAR_BIT(huart->Instance->CR1, USART_CR1_IDLEIE);
  }

  /* At end of Rx process, restore huart->RxState to Ready */
  huart->RxState = HAL_UART_STATE_READY;
 80052d6:	2320      	movs	r3, #32
 80052d8:	f880 3042 	strb.w	r3, [r0, #66]	@ 0x42
  huart->ReceptionType = HAL_UART_RECEPTION_STANDARD;
 80052dc:	2300      	movs	r3, #0
 80052de:	6303      	str	r3, [r0, #48]	@ 0x30
}
 80052e0:	4770      	bx	lr
    ATOMIC_CLEAR_BIT(huart->Instance->CR1, USART_CR1_IDLEIE);
 80052e2:	6802      	ldr	r2, [r0, #0]
   __ASM volatile ("ldrex %0, %1" : "=r" (result) : "Q" (*addr) );
 80052e4:	f102 030c 	add.w	r3, r2, #12
 80052e8:	e853 3f00 	ldrex	r3, [r3]
 80052ec:	f023 0310 	bic.w	r3, r3, #16
   __ASM volatile ("strex %0, %2, %1" : "=&r" (result), "=Q" (*addr) : "r" (value) );
 80052f0:	320c      	adds	r2, #12
 80052f2:	e842 3100 	strex	r1, r3, [r2]
 80052f6:	2900      	cmp	r1, #0
 80052f8:	d1f3      	bne.n	80052e2 <UART_EndRxTransfer+0x42>
 80052fa:	e7ec      	b.n	80052d6 <UART_EndRxTransfer+0x36>

080052fc <UART_Transmit_IT>:
static HAL_StatusTypeDef UART_Transmit_IT(UART_HandleTypeDef *huart)
{
  const uint16_t *tmp;

  /* Check that a Tx process is ongoing */
  if (huart->gState == HAL_UART_STATE_BUSY_TX)
 80052fc:	f890 3041 	ldrb.w	r3, [r0, #65]	@ 0x41
 8005300:	b2db      	uxtb	r3, r3
 8005302:	2b21      	cmp	r3, #33	@ 0x21
 8005304:	d001      	beq.n	800530a <UART_Transmit_IT+0xe>
    }
    return HAL_OK;
  }
  else
  {
    return HAL_BUSY;
 8005306:	2002      	movs	r0, #2
  }
}
 8005308:	4770      	bx	lr
    if ((huart->Init.WordLength == UART_WORDLENGTH_9B) && (huart->Init.Parity == UART_PARITY_NONE))
 800530a:	6883      	ldr	r3, [r0, #8]
 800530c:	f5b3 5f80 	cmp.w	r3, #4096	@ 0x1000
 8005310:	d017      	beq.n	8005342 <UART_Transmit_IT+0x46>
      huart->Instance->DR = (uint8_t)(*huart->pTxBuffPtr++ & (uint8_t)0x00FF);
 8005312:	6a03      	ldr	r3, [r0, #32]
 8005314:	1c5a      	adds	r2, r3, #1
 8005316:	6202      	str	r2, [r0, #32]
 8005318:	781a      	ldrb	r2, [r3, #0]
 800531a:	6803      	ldr	r3, [r0, #0]
 800531c:	605a      	str	r2, [r3, #4]
    if (--huart->TxXferCount == 0U)
 800531e:	8cc3      	ldrh	r3, [r0, #38]	@ 0x26
 8005320:	b29b      	uxth	r3, r3
 8005322:	3b01      	subs	r3, #1
 8005324:	b29b      	uxth	r3, r3
 8005326:	84c3      	strh	r3, [r0, #38]	@ 0x26
 8005328:	b94b      	cbnz	r3, 800533e <UART_Transmit_IT+0x42>
      __HAL_UART_DISABLE_IT(huart, UART_IT_TXE);
 800532a:	6802      	ldr	r2, [r0, #0]
 800532c:	68d3      	ldr	r3, [r2, #12]
 800532e:	f023 0380 	bic.w	r3, r3, #128	@ 0x80
 8005332:	60d3      	str	r3, [r2, #12]
      __HAL_UART_ENABLE_IT(huart, UART_IT_TC);
 8005334:	6802      	ldr	r2, [r0, #0]
 8005336:	68d3      	ldr	r3, [r2, #12]
 8005338:	f043 0340 	orr.w	r3, r3, #64	@ 0x40
 800533c:	60d3      	str	r3, [r2, #12]
    return HAL_OK;
 800533e:	2000      	movs	r0, #0
 8005340:	4770      	bx	lr
    if ((huart->Init.WordLength == UART_WORDLENGTH_9B) && (huart->Init.Parity == UART_PARITY_NONE))
 8005342:	6903      	ldr	r3, [r0, #16]
 8005344:	2b00      	cmp	r3, #0
 8005346:	d1e4      	bne.n	8005312 <UART_Transmit_IT+0x16>
      tmp = (const uint16_t *) huart->pTxBuffPtr;
 8005348:	6a03      	ldr	r3, [r0, #32]
      huart->Instance->DR = (uint16_t)(*tmp & (uint16_t)0x01FF);
 800534a:	881b      	ldrh	r3, [r3, #0]
 800534c:	6802      	ldr	r2, [r0, #0]
 800534e:	f3c3 0308 	ubfx	r3, r3, #0, #9
 8005352:	6053      	str	r3, [r2, #4]
      huart->pTxBuffPtr += 2U;
 8005354:	6a03      	ldr	r3, [r0, #32]
 8005356:	3302      	adds	r3, #2
 8005358:	6203      	str	r3, [r0, #32]
 800535a:	e7e0      	b.n	800531e <UART_Transmit_IT+0x22>

0800535c <UART_SetConfig>:
  * @param  huart  Pointer to a UART_HandleTypeDef structure that contains
  *                the configuration information for the specified UART module.
  * @retval None
  */
static void UART_SetConfig(UART_HandleTypeDef *huart)
{
 800535c:	b510      	push	{r4, lr}
 800535e:	4604      	mov	r4, r0
  assert_param(IS_UART_MODE(huart->Init.Mode));

  /*-------------------------- USART CR2 Configuration -----------------------*/
  /* Configure the UART Stop Bits: Set STOP[13:12] bits
     according to huart->Init.StopBits value */
  MODIFY_REG(huart->Instance->CR2, USART_CR2_STOP, huart->Init.StopBits);
 8005360:	6802      	ldr	r2, [r0, #0]
 8005362:	6913      	ldr	r3, [r2, #16]
 8005364:	f423 5340 	bic.w	r3, r3, #12288	@ 0x3000
 8005368:	68c1      	ldr	r1, [r0, #12]
 800536a:	430b      	orrs	r3, r1
 800536c:	6113      	str	r3, [r2, #16]
  tmpreg = (uint32_t)huart->Init.WordLength | huart->Init.Parity | huart->Init.Mode | huart->Init.OverSampling;
  MODIFY_REG(huart->Instance->CR1,
             (uint32_t)(USART_CR1_M | USART_CR1_PCE | USART_CR1_PS | USART_CR1_TE | USART_CR1_RE | USART_CR1_OVER8),
             tmpreg);
#else
  tmpreg = (uint32_t)huart->Init.WordLength | huart->Init.Parity | huart->Init.Mode;
 800536e:	6883      	ldr	r3, [r0, #8]
 8005370:	6902      	ldr	r2, [r0, #16]
 8005372:	4313      	orrs	r3, r2
 8005374:	6942      	ldr	r2, [r0, #20]
 8005376:	431a      	orrs	r2, r3
  MODIFY_REG(huart->Instance->CR1,
 8005378:	6801      	ldr	r1, [r0, #0]
 800537a:	68cb      	ldr	r3, [r1, #12]
 800537c:	f423 53b0 	bic.w	r3, r3, #5632	@ 0x1600
 8005380:	f023 030c 	bic.w	r3, r3, #12
 8005384:	4313      	orrs	r3, r2
 8005386:	60cb      	str	r3, [r1, #12]
             tmpreg);
#endif /* USART_CR1_OVER8 */

  /*-------------------------- USART CR3 Configuration -----------------------*/
  /* Configure the UART HFC: Set CTSE and RTSE bits according to huart->Init.HwFlowCtl value */
  MODIFY_REG(huart->Instance->CR3, (USART_CR3_RTSE | USART_CR3_CTSE), huart->Init.HwFlowCtl);
 8005388:	6802      	ldr	r2, [r0, #0]
 800538a:	6953      	ldr	r3, [r2, #20]
 800538c:	f423 7340 	bic.w	r3, r3, #768	@ 0x300
 8005390:	6981      	ldr	r1, [r0, #24]
 8005392:	430b      	orrs	r3, r1
 8005394:	6153      	str	r3, [r2, #20]


  if(huart->Instance == USART1)
 8005396:	6802      	ldr	r2, [r0, #0]
 8005398:	4b13      	ldr	r3, [pc, #76]	@ (80053e8 <UART_SetConfig+0x8c>)
 800539a:	429a      	cmp	r2, r3
 800539c:	d020      	beq.n	80053e0 <UART_SetConfig+0x84>
  {
    pclk = HAL_RCC_GetPCLK2Freq();
  }
  else
  {
    pclk = HAL_RCC_GetPCLK1Freq();
 800539e:	f7ff fb99 	bl	8004ad4 <HAL_RCC_GetPCLK1Freq>
 80053a2:	4602      	mov	r2, r0
  else
  {
    huart->Instance->BRR = UART_BRR_SAMPLING16(pclk, huart->Init.BaudRate);
  }
#else
  huart->Instance->BRR = UART_BRR_SAMPLING16(pclk, huart->Init.BaudRate);
 80053a4:	eb02 0282 	add.w	r2, r2, r2, lsl #2
 80053a8:	eb02 0282 	add.w	r2, r2, r2, lsl #2
 80053ac:	6863      	ldr	r3, [r4, #4]
 80053ae:	009b      	lsls	r3, r3, #2
 80053b0:	fbb2 f2f3 	udiv	r2, r2, r3
 80053b4:	480d      	ldr	r0, [pc, #52]	@ (80053ec <UART_SetConfig+0x90>)
 80053b6:	fba0 3102 	umull	r3, r1, r0, r2
 80053ba:	0949      	lsrs	r1, r1, #5
 80053bc:	2364      	movs	r3, #100	@ 0x64
 80053be:	fb03 2311 	mls	r3, r3, r1, r2
 80053c2:	011b      	lsls	r3, r3, #4
 80053c4:	3332      	adds	r3, #50	@ 0x32
 80053c6:	fba0 0303 	umull	r0, r3, r0, r3
 80053ca:	095b      	lsrs	r3, r3, #5
 80053cc:	f003 02f0 	and.w	r2, r3, #240	@ 0xf0
 80053d0:	eb02 1201 	add.w	r2, r2, r1, lsl #4
 80053d4:	f003 030f 	and.w	r3, r3, #15
 80053d8:	6821      	ldr	r1, [r4, #0]
 80053da:	4413      	add	r3, r2
 80053dc:	608b      	str	r3, [r1, #8]
#endif /* USART_CR1_OVER8 */
}
 80053de:	bd10      	pop	{r4, pc}
    pclk = HAL_RCC_GetPCLK2Freq();
 80053e0:	f7ff fb88 	bl	8004af4 <HAL_RCC_GetPCLK2Freq>
 80053e4:	4602      	mov	r2, r0
 80053e6:	e7dd      	b.n	80053a4 <UART_SetConfig+0x48>
 80053e8:	40013800 	.word	0x40013800
 80053ec:	51eb851f 	.word	0x51eb851f

080053f0 <UART_WaitOnFlagUntilTimeout>:
{
 80053f0:	e92d 43f0 	stmdb	sp!, {r4, r5, r6, r7, r8, r9, lr}
 80053f4:	b083      	sub	sp, #12
 80053f6:	4605      	mov	r5, r0
 80053f8:	460e      	mov	r6, r1
 80053fa:	4617      	mov	r7, r2
 80053fc:	4699      	mov	r9, r3
 80053fe:	f8dd 8028 	ldr.w	r8, [sp, #40]	@ 0x28
  while ((__HAL_UART_GET_FLAG(huart, Flag) ? SET : RESET) == Status)
 8005402:	682b      	ldr	r3, [r5, #0]
 8005404:	681c      	ldr	r4, [r3, #0]
 8005406:	ea36 0404 	bics.w	r4, r6, r4
 800540a:	bf0c      	ite	eq
 800540c:	2401      	moveq	r4, #1
 800540e:	2400      	movne	r4, #0
 8005410:	42bc      	cmp	r4, r7
 8005412:	d128      	bne.n	8005466 <UART_WaitOnFlagUntilTimeout+0x76>
    if (Timeout != HAL_MAX_DELAY)
 8005414:	f1b8 3fff 	cmp.w	r8, #4294967295
 8005418:	d0f3      	beq.n	8005402 <UART_WaitOnFlagUntilTimeout+0x12>
      if (((HAL_GetTick() - Tickstart) > Timeout) || (Timeout == 0U))
 800541a:	f7fe fc41 	bl	8003ca0 <HAL_GetTick>
 800541e:	eba0 0009 	sub.w	r0, r0, r9
 8005422:	4540      	cmp	r0, r8
 8005424:	d823      	bhi.n	800546e <UART_WaitOnFlagUntilTimeout+0x7e>
 8005426:	f1b8 0f00 	cmp.w	r8, #0
 800542a:	d022      	beq.n	8005472 <UART_WaitOnFlagUntilTimeout+0x82>
      if ((READ_BIT(huart->Instance->CR1, USART_CR1_RE) != 0U) && (Flag != UART_FLAG_TXE) && (Flag != UART_FLAG_TC))
 800542c:	682b      	ldr	r3, [r5, #0]
 800542e:	68da      	ldr	r2, [r3, #12]
 8005430:	f012 0f04 	tst.w	r2, #4
 8005434:	d0e5      	beq.n	8005402 <UART_WaitOnFlagUntilTimeout+0x12>
 8005436:	2e80      	cmp	r6, #128	@ 0x80
 8005438:	d0e3      	beq.n	8005402 <UART_WaitOnFlagUntilTimeout+0x12>
 800543a:	2e40      	cmp	r6, #64	@ 0x40
 800543c:	d0e1      	beq.n	8005402 <UART_WaitOnFlagUntilTimeout+0x12>
        if (__HAL_UART_GET_FLAG(huart, UART_FLAG_ORE) == SET)
 800543e:	681a      	ldr	r2, [r3, #0]
 8005440:	f012 0f08 	tst.w	r2, #8
 8005444:	d0dd      	beq.n	8005402 <UART_WaitOnFlagUntilTimeout+0x12>
          __HAL_UART_CLEAR_OREFLAG(huart);
 8005446:	2400      	movs	r4, #0
 8005448:	9401      	str	r4, [sp, #4]
 800544a:	681a      	ldr	r2, [r3, #0]
 800544c:	9201      	str	r2, [sp, #4]
 800544e:	685b      	ldr	r3, [r3, #4]
 8005450:	9301      	str	r3, [sp, #4]
 8005452:	9b01      	ldr	r3, [sp, #4]
          UART_EndRxTransfer(huart);
 8005454:	4628      	mov	r0, r5
 8005456:	f7ff ff23 	bl	80052a0 <UART_EndRxTransfer>
          huart->ErrorCode = HAL_UART_ERROR_ORE;
 800545a:	2308      	movs	r3, #8
 800545c:	646b      	str	r3, [r5, #68]	@ 0x44
          __HAL_UNLOCK(huart);
 800545e:	f885 4040 	strb.w	r4, [r5, #64]	@ 0x40
          return HAL_ERROR;
 8005462:	2001      	movs	r0, #1
 8005464:	e000      	b.n	8005468 <UART_WaitOnFlagUntilTimeout+0x78>
  return HAL_OK;
 8005466:	2000      	movs	r0, #0
}
 8005468:	b003      	add	sp, #12
 800546a:	e8bd 83f0 	ldmia.w	sp!, {r4, r5, r6, r7, r8, r9, pc}
        return HAL_TIMEOUT;
 800546e:	2003      	movs	r0, #3
 8005470:	e7fa      	b.n	8005468 <UART_WaitOnFlagUntilTimeout+0x78>
 8005472:	2003      	movs	r0, #3
 8005474:	e7f8      	b.n	8005468 <UART_WaitOnFlagUntilTimeout+0x78>

08005476 <HAL_UART_Init>:
  if (huart == NULL)
 8005476:	b360      	cbz	r0, 80054d2 <HAL_UART_Init+0x5c>
{
 8005478:	b510      	push	{r4, lr}
 800547a:	4604      	mov	r4, r0
  if (huart->gState == HAL_UART_STATE_RESET)
 800547c:	f890 3041 	ldrb.w	r3, [r0, #65]	@ 0x41
 8005480:	b313      	cbz	r3, 80054c8 <HAL_UART_Init+0x52>
  huart->gState = HAL_UART_STATE_BUSY;
 8005482:	2324      	movs	r3, #36	@ 0x24
 8005484:	f884 3041 	strb.w	r3, [r4, #65]	@ 0x41
  __HAL_UART_DISABLE(huart);
 8005488:	6822      	ldr	r2, [r4, #0]
 800548a:	68d3      	ldr	r3, [r2, #12]
 800548c:	f423 5300 	bic.w	r3, r3, #8192	@ 0x2000
 8005490:	60d3      	str	r3, [r2, #12]
  UART_SetConfig(huart);
 8005492:	4620      	mov	r0, r4
 8005494:	f7ff ff62 	bl	800535c <UART_SetConfig>
  CLEAR_BIT(huart->Instance->CR2, (USART_CR2_LINEN | USART_CR2_CLKEN));
 8005498:	6822      	ldr	r2, [r4, #0]
 800549a:	6913      	ldr	r3, [r2, #16]
 800549c:	f423 4390 	bic.w	r3, r3, #18432	@ 0x4800
 80054a0:	6113      	str	r3, [r2, #16]
  CLEAR_BIT(huart->Instance->CR3, (USART_CR3_SCEN | USART_CR3_HDSEL | USART_CR3_IREN));
 80054a2:	6822      	ldr	r2, [r4, #0]
 80054a4:	6953      	ldr	r3, [r2, #20]
 80054a6:	f023 032a 	bic.w	r3, r3, #42	@ 0x2a
 80054aa:	6153      	str	r3, [r2, #20]
  __HAL_UART_ENABLE(huart);
 80054ac:	6822      	ldr	r2, [r4, #0]
 80054ae:	68d3      	ldr	r3, [r2, #12]
 80054b0:	f443 5300 	orr.w	r3, r3, #8192	@ 0x2000
 80054b4:	60d3      	str	r3, [r2, #12]
  huart->ErrorCode = HAL_UART_ERROR_NONE;
 80054b6:	2000      	movs	r0, #0
 80054b8:	6460      	str	r0, [r4, #68]	@ 0x44
  huart->gState = HAL_UART_STATE_READY;
 80054ba:	2320      	movs	r3, #32
 80054bc:	f884 3041 	strb.w	r3, [r4, #65]	@ 0x41
  huart->RxState = HAL_UART_STATE_READY;
 80054c0:	f884 3042 	strb.w	r3, [r4, #66]	@ 0x42
  huart->RxEventType = HAL_UART_RXEVENT_TC;
 80054c4:	6360      	str	r0, [r4, #52]	@ 0x34
}
 80054c6:	bd10      	pop	{r4, pc}
    huart->Lock = HAL_UNLOCKED;
 80054c8:	f880 3040 	strb.w	r3, [r0, #64]	@ 0x40
    HAL_UART_MspInit(huart);
 80054cc:	f7fe faa8 	bl	8003a20 <HAL_UART_MspInit>
 80054d0:	e7d7      	b.n	8005482 <HAL_UART_Init+0xc>
    return HAL_ERROR;
 80054d2:	2001      	movs	r0, #1
}
 80054d4:	4770      	bx	lr

080054d6 <HAL_UART_Transmit>:
{
 80054d6:	e92d 41f0 	stmdb	sp!, {r4, r5, r6, r7, r8, lr}
 80054da:	b082      	sub	sp, #8
 80054dc:	461e      	mov	r6, r3
  if (huart->gState == HAL_UART_STATE_READY)
 80054de:	f890 3041 	ldrb.w	r3, [r0, #65]	@ 0x41
 80054e2:	b2db      	uxtb	r3, r3
 80054e4:	2b20      	cmp	r3, #32
 80054e6:	d156      	bne.n	8005596 <HAL_UART_Transmit+0xc0>
 80054e8:	4604      	mov	r4, r0
 80054ea:	460d      	mov	r5, r1
 80054ec:	4690      	mov	r8, r2
    if ((pData == NULL) || (Size == 0U))
 80054ee:	2900      	cmp	r1, #0
 80054f0:	d055      	beq.n	800559e <HAL_UART_Transmit+0xc8>
 80054f2:	b90a      	cbnz	r2, 80054f8 <HAL_UART_Transmit+0x22>
      return  HAL_ERROR;
 80054f4:	2001      	movs	r0, #1
 80054f6:	e04f      	b.n	8005598 <HAL_UART_Transmit+0xc2>
    huart->ErrorCode = HAL_UART_ERROR_NONE;
 80054f8:	2300      	movs	r3, #0
 80054fa:	6443      	str	r3, [r0, #68]	@ 0x44
    huart->gState = HAL_UART_STATE_BUSY_TX;
 80054fc:	2321      	movs	r3, #33	@ 0x21
 80054fe:	f880 3041 	strb.w	r3, [r0, #65]	@ 0x41
    tickstart = HAL_GetTick();
 8005502:	f7fe fbcd 	bl	8003ca0 <HAL_GetTick>
 8005506:	4607      	mov	r7, r0
    huart->TxXferSize = Size;
 8005508:	f8a4 8024 	strh.w	r8, [r4, #36]	@ 0x24
    huart->TxXferCount = Size;
 800550c:	f8a4 8026 	strh.w	r8, [r4, #38]	@ 0x26
    if ((huart->Init.WordLength == UART_WORDLENGTH_9B) && (huart->Init.Parity == UART_PARITY_NONE))
 8005510:	68a3      	ldr	r3, [r4, #8]
 8005512:	f5b3 5f80 	cmp.w	r3, #4096	@ 0x1000
 8005516:	d002      	beq.n	800551e <HAL_UART_Transmit+0x48>
      pdata16bits = NULL;
 8005518:	f04f 0800 	mov.w	r8, #0
 800551c:	e014      	b.n	8005548 <HAL_UART_Transmit+0x72>
    if ((huart->Init.WordLength == UART_WORDLENGTH_9B) && (huart->Init.Parity == UART_PARITY_NONE))
 800551e:	6923      	ldr	r3, [r4, #16]
 8005520:	b32b      	cbz	r3, 800556e <HAL_UART_Transmit+0x98>
      pdata16bits = NULL;
 8005522:	f04f 0800 	mov.w	r8, #0
 8005526:	e00f      	b.n	8005548 <HAL_UART_Transmit+0x72>
        huart->gState = HAL_UART_STATE_READY;
 8005528:	2320      	movs	r3, #32
 800552a:	f884 3041 	strb.w	r3, [r4, #65]	@ 0x41
        return HAL_TIMEOUT;
 800552e:	2003      	movs	r0, #3
 8005530:	e032      	b.n	8005598 <HAL_UART_Transmit+0xc2>
        huart->Instance->DR = (uint16_t)(*pdata16bits & 0x01FFU);
 8005532:	f838 3b02 	ldrh.w	r3, [r8], #2
 8005536:	6822      	ldr	r2, [r4, #0]
 8005538:	f3c3 0308 	ubfx	r3, r3, #0, #9
 800553c:	6053      	str	r3, [r2, #4]
      huart->TxXferCount--;
 800553e:	8ce2      	ldrh	r2, [r4, #38]	@ 0x26
 8005540:	b292      	uxth	r2, r2
 8005542:	3a01      	subs	r2, #1
 8005544:	b292      	uxth	r2, r2
 8005546:	84e2      	strh	r2, [r4, #38]	@ 0x26
    while (huart->TxXferCount > 0U)
 8005548:	8ce3      	ldrh	r3, [r4, #38]	@ 0x26
 800554a:	b29b      	uxth	r3, r3
 800554c:	b193      	cbz	r3, 8005574 <HAL_UART_Transmit+0x9e>
      if (UART_WaitOnFlagUntilTimeout(huart, UART_FLAG_TXE, RESET, tickstart, Timeout) != HAL_OK)
 800554e:	9600      	str	r6, [sp, #0]
 8005550:	463b      	mov	r3, r7
 8005552:	2200      	movs	r2, #0
 8005554:	2180      	movs	r1, #128	@ 0x80
 8005556:	4620      	mov	r0, r4
 8005558:	f7ff ff4a 	bl	80053f0 <UART_WaitOnFlagUntilTimeout>
 800555c:	2800      	cmp	r0, #0
 800555e:	d1e3      	bne.n	8005528 <HAL_UART_Transmit+0x52>
      if (pdata8bits == NULL)
 8005560:	2d00      	cmp	r5, #0
 8005562:	d0e6      	beq.n	8005532 <HAL_UART_Transmit+0x5c>
        huart->Instance->DR = (uint8_t)(*pdata8bits & 0xFFU);
 8005564:	f815 2b01 	ldrb.w	r2, [r5], #1
 8005568:	6823      	ldr	r3, [r4, #0]
 800556a:	605a      	str	r2, [r3, #4]
        pdata8bits++;
 800556c:	e7e7      	b.n	800553e <HAL_UART_Transmit+0x68>
      pdata16bits = (const uint16_t *) pData;
 800556e:	46a8      	mov	r8, r5
      pdata8bits  = NULL;
 8005570:	2500      	movs	r5, #0
 8005572:	e7e9      	b.n	8005548 <HAL_UART_Transmit+0x72>
    if (UART_WaitOnFlagUntilTimeout(huart, UART_FLAG_TC, RESET, tickstart, Timeout) != HAL_OK)
 8005574:	9600      	str	r6, [sp, #0]
 8005576:	463b      	mov	r3, r7
 8005578:	2200      	movs	r2, #0
 800557a:	2140      	movs	r1, #64	@ 0x40
 800557c:	4620      	mov	r0, r4
 800557e:	f7ff ff37 	bl	80053f0 <UART_WaitOnFlagUntilTimeout>
 8005582:	b918      	cbnz	r0, 800558c <HAL_UART_Transmit+0xb6>
    huart->gState = HAL_UART_STATE_READY;
 8005584:	2320      	movs	r3, #32
 8005586:	f884 3041 	strb.w	r3, [r4, #65]	@ 0x41
    return HAL_OK;
 800558a:	e005      	b.n	8005598 <HAL_UART_Transmit+0xc2>
      huart->gState = HAL_UART_STATE_READY;
 800558c:	2320      	movs	r3, #32
 800558e:	f884 3041 	strb.w	r3, [r4, #65]	@ 0x41
      return HAL_TIMEOUT;
 8005592:	2003      	movs	r0, #3
 8005594:	e000      	b.n	8005598 <HAL_UART_Transmit+0xc2>
    return HAL_BUSY;
 8005596:	2002      	movs	r0, #2
}
 8005598:	b002      	add	sp, #8
 800559a:	e8bd 81f0 	ldmia.w	sp!, {r4, r5, r6, r7, r8, pc}
      return  HAL_ERROR;
 800559e:	2001      	movs	r0, #1
 80055a0:	e7fa      	b.n	8005598 <HAL_UART_Transmit+0xc2>

080055a2 <HAL_UART_Receive>:
{
 80055a2:	e92d 41f0 	stmdb	sp!, {r4, r5, r6, r7, r8, lr}
 80055a6:	b082      	sub	sp, #8
 80055a8:	461e      	mov	r6, r3
  if (huart->RxState == HAL_UART_STATE_READY)
 80055aa:	f890 3042 	ldrb.w	r3, [r0, #66]	@ 0x42
 80055ae:	b2db      	uxtb	r3, r3
 80055b0:	2b20      	cmp	r3, #32
 80055b2:	d159      	bne.n	8005668 <HAL_UART_Receive+0xc6>
 80055b4:	4604      	mov	r4, r0
 80055b6:	460d      	mov	r5, r1
 80055b8:	4690      	mov	r8, r2
    if ((pData == NULL) || (Size == 0U))
 80055ba:	2900      	cmp	r1, #0
 80055bc:	d058      	beq.n	8005670 <HAL_UART_Receive+0xce>
 80055be:	b90a      	cbnz	r2, 80055c4 <HAL_UART_Receive+0x22>
      return  HAL_ERROR;
 80055c0:	2001      	movs	r0, #1
 80055c2:	e052      	b.n	800566a <HAL_UART_Receive+0xc8>
    huart->ErrorCode = HAL_UART_ERROR_NONE;
 80055c4:	2300      	movs	r3, #0
 80055c6:	6443      	str	r3, [r0, #68]	@ 0x44
    huart->RxState = HAL_UART_STATE_BUSY_RX;
 80055c8:	2222      	movs	r2, #34	@ 0x22
 80055ca:	f880 2042 	strb.w	r2, [r0, #66]	@ 0x42
    huart->ReceptionType = HAL_UART_RECEPTION_STANDARD;
 80055ce:	6303      	str	r3, [r0, #48]	@ 0x30
    tickstart = HAL_GetTick();
 80055d0:	f7fe fb66 	bl	8003ca0 <HAL_GetTick>
 80055d4:	4607      	mov	r7, r0
    huart->RxXferSize = Size;
 80055d6:	f8a4 802c 	strh.w	r8, [r4, #44]	@ 0x2c
    huart->RxXferCount = Size;
 80055da:	f8a4 802e 	strh.w	r8, [r4, #46]	@ 0x2e
    if ((huart->Init.WordLength == UART_WORDLENGTH_9B) && (huart->Init.Parity == UART_PARITY_NONE))
 80055de:	68a3      	ldr	r3, [r4, #8]
 80055e0:	f5b3 5f80 	cmp.w	r3, #4096	@ 0x1000
 80055e4:	d002      	beq.n	80055ec <HAL_UART_Receive+0x4a>
      pdata16bits = NULL;
 80055e6:	f04f 0800 	mov.w	r8, #0
 80055ea:	e01c      	b.n	8005626 <HAL_UART_Receive+0x84>
    if ((huart->Init.WordLength == UART_WORDLENGTH_9B) && (huart->Init.Parity == UART_PARITY_NONE))
 80055ec:	6923      	ldr	r3, [r4, #16]
 80055ee:	b113      	cbz	r3, 80055f6 <HAL_UART_Receive+0x54>
      pdata16bits = NULL;
 80055f0:	f04f 0800 	mov.w	r8, #0
 80055f4:	e017      	b.n	8005626 <HAL_UART_Receive+0x84>
      pdata16bits = (uint16_t *) pData;
 80055f6:	46a8      	mov	r8, r5
      pdata8bits  = NULL;
 80055f8:	2500      	movs	r5, #0
 80055fa:	e014      	b.n	8005626 <HAL_UART_Receive+0x84>
        huart->RxState = HAL_UART_STATE_READY;
 80055fc:	2320      	movs	r3, #32
 80055fe:	f884 3042 	strb.w	r3, [r4, #66]	@ 0x42
        return HAL_TIMEOUT;
 8005602:	2003      	movs	r0, #3
 8005604:	e031      	b.n	800566a <HAL_UART_Receive+0xc8>
        *pdata16bits = (uint16_t)(huart->Instance->DR & 0x01FF);
 8005606:	6823      	ldr	r3, [r4, #0]
 8005608:	685b      	ldr	r3, [r3, #4]
 800560a:	f3c3 0308 	ubfx	r3, r3, #0, #9
 800560e:	f828 3b02 	strh.w	r3, [r8], #2
        pdata16bits++;
 8005612:	e003      	b.n	800561c <HAL_UART_Receive+0x7a>
          *pdata8bits = (uint8_t)(huart->Instance->DR & (uint8_t)0x00FF);
 8005614:	6823      	ldr	r3, [r4, #0]
 8005616:	685b      	ldr	r3, [r3, #4]
 8005618:	702b      	strb	r3, [r5, #0]
        pdata8bits++;
 800561a:	3501      	adds	r5, #1
      huart->RxXferCount--;
 800561c:	8de2      	ldrh	r2, [r4, #46]	@ 0x2e
 800561e:	b292      	uxth	r2, r2
 8005620:	3a01      	subs	r2, #1
 8005622:	b292      	uxth	r2, r2
 8005624:	85e2      	strh	r2, [r4, #46]	@ 0x2e
    while (huart->RxXferCount > 0U)
 8005626:	8de3      	ldrh	r3, [r4, #46]	@ 0x2e
 8005628:	b29b      	uxth	r3, r3
 800562a:	b1c3      	cbz	r3, 800565e <HAL_UART_Receive+0xbc>
      if (UART_WaitOnFlagUntilTimeout(huart, UART_FLAG_RXNE, RESET, tickstart, Timeout) != HAL_OK)
 800562c:	9600      	str	r6, [sp, #0]
 800562e:	463b      	mov	r3, r7
 8005630:	2200      	movs	r2, #0
 8005632:	2120      	movs	r1, #32
 8005634:	4620      	mov	r0, r4
 8005636:	f7ff fedb 	bl	80053f0 <UART_WaitOnFlagUntilTimeout>
 800563a:	2800      	cmp	r0, #0
 800563c:	d1de      	bne.n	80055fc <HAL_UART_Receive+0x5a>
      if (pdata8bits == NULL)
 800563e:	2d00      	cmp	r5, #0
 8005640:	d0e1      	beq.n	8005606 <HAL_UART_Receive+0x64>
        if ((huart->Init.WordLength == UART_WORDLENGTH_9B) || ((huart->Init.WordLength == UART_WORDLENGTH_8B) && (huart->Init.Parity == UART_PARITY_NONE)))
 8005642:	68a3      	ldr	r3, [r4, #8]
 8005644:	f5b3 5f80 	cmp.w	r3, #4096	@ 0x1000
 8005648:	d0e4      	beq.n	8005614 <HAL_UART_Receive+0x72>
 800564a:	b913      	cbnz	r3, 8005652 <HAL_UART_Receive+0xb0>
 800564c:	6923      	ldr	r3, [r4, #16]
 800564e:	2b00      	cmp	r3, #0
 8005650:	d0e0      	beq.n	8005614 <HAL_UART_Receive+0x72>
          *pdata8bits = (uint8_t)(huart->Instance->DR & (uint8_t)0x007F);
 8005652:	6823      	ldr	r3, [r4, #0]
 8005654:	685b      	ldr	r3, [r3, #4]
 8005656:	f003 037f 	and.w	r3, r3, #127	@ 0x7f
 800565a:	702b      	strb	r3, [r5, #0]
 800565c:	e7dd      	b.n	800561a <HAL_UART_Receive+0x78>
    huart->RxState = HAL_UART_STATE_READY;
 800565e:	2320      	movs	r3, #32
 8005660:	f884 3042 	strb.w	r3, [r4, #66]	@ 0x42
    return HAL_OK;
 8005664:	2000      	movs	r0, #0
 8005666:	e000      	b.n	800566a <HAL_UART_Receive+0xc8>
    return HAL_BUSY;
 8005668:	2002      	movs	r0, #2
}
 800566a:	b002      	add	sp, #8
 800566c:	e8bd 81f0 	ldmia.w	sp!, {r4, r5, r6, r7, r8, pc}
      return  HAL_ERROR;
 8005670:	2001      	movs	r0, #1
 8005672:	e7fa      	b.n	800566a <HAL_UART_Receive+0xc8>

08005674 <HAL_UART_TxCpltCallback>:
}
 8005674:	4770      	bx	lr

08005676 <UART_EndTransmit_IT>:
{
 8005676:	b508      	push	{r3, lr}
  __HAL_UART_DISABLE_IT(huart, UART_IT_TC);
 8005678:	6801      	ldr	r1, [r0, #0]
 800567a:	68ca      	ldr	r2, [r1, #12]
 800567c:	f022 0240 	bic.w	r2, r2, #64	@ 0x40
 8005680:	60ca      	str	r2, [r1, #12]
  huart->gState = HAL_UART_STATE_READY;
 8005682:	2220      	movs	r2, #32
 8005684:	f880 2041 	strb.w	r2, [r0, #65]	@ 0x41
  HAL_UART_TxCpltCallback(huart);
 8005688:	f7ff fff4 	bl	8005674 <HAL_UART_TxCpltCallback>
}
 800568c:	2000      	movs	r0, #0
 800568e:	bd08      	pop	{r3, pc}

08005690 <HAL_UART_RxCpltCallback>:
}
 8005690:	4770      	bx	lr

08005692 <HAL_UART_ErrorCallback>:
}
 8005692:	4770      	bx	lr

08005694 <UART_DMAAbortOnError>:
{
 8005694:	b508      	push	{r3, lr}
  UART_HandleTypeDef *huart = (UART_HandleTypeDef *)((DMA_HandleTypeDef *)hdma)->Parent;
 8005696:	6a40      	ldr	r0, [r0, #36]	@ 0x24
  huart->RxXferCount = 0x00U;
 8005698:	2300      	movs	r3, #0
 800569a:	85c3      	strh	r3, [r0, #46]	@ 0x2e
  huart->TxXferCount = 0x00U;
 800569c:	84c3      	strh	r3, [r0, #38]	@ 0x26
  HAL_UART_ErrorCallback(huart);
 800569e:	f7ff fff8 	bl	8005692 <HAL_UART_ErrorCallback>
}
 80056a2:	bd08      	pop	{r3, pc}

080056a4 <HAL_UARTEx_RxEventCallback>:
}
 80056a4:	4770      	bx	lr

080056a6 <UART_Receive_IT>:
  if (huart->RxState == HAL_UART_STATE_BUSY_RX)
 80056a6:	f890 3042 	ldrb.w	r3, [r0, #66]	@ 0x42
 80056aa:	b2db      	uxtb	r3, r3
 80056ac:	2b22      	cmp	r3, #34	@ 0x22
 80056ae:	d169      	bne.n	8005784 <UART_Receive_IT+0xde>
    if ((huart->Init.WordLength == UART_WORDLENGTH_9B) && (huart->Init.Parity == UART_PARITY_NONE))
 80056b0:	6883      	ldr	r3, [r0, #8]
 80056b2:	f5b3 5f80 	cmp.w	r3, #4096	@ 0x1000
 80056b6:	d04f      	beq.n	8005758 <UART_Receive_IT+0xb2>
      pdata8bits = (uint8_t *) huart->pRxBuffPtr;
 80056b8:	6a82      	ldr	r2, [r0, #40]	@ 0x28
      if ((huart->Init.WordLength == UART_WORDLENGTH_9B) || ((huart->Init.WordLength == UART_WORDLENGTH_8B) && (huart->Init.Parity == UART_PARITY_NONE)))
 80056ba:	f5b3 5f80 	cmp.w	r3, #4096	@ 0x1000
 80056be:	d004      	beq.n	80056ca <UART_Receive_IT+0x24>
 80056c0:	2b00      	cmp	r3, #0
 80056c2:	d156      	bne.n	8005772 <UART_Receive_IT+0xcc>
 80056c4:	6903      	ldr	r3, [r0, #16]
 80056c6:	2b00      	cmp	r3, #0
 80056c8:	d153      	bne.n	8005772 <UART_Receive_IT+0xcc>
        *pdata8bits = (uint8_t)(huart->Instance->DR & (uint8_t)0x00FF);
 80056ca:	6803      	ldr	r3, [r0, #0]
 80056cc:	685b      	ldr	r3, [r3, #4]
 80056ce:	7013      	strb	r3, [r2, #0]
      huart->pRxBuffPtr += 1U;
 80056d0:	6a83      	ldr	r3, [r0, #40]	@ 0x28
 80056d2:	3301      	adds	r3, #1
 80056d4:	6283      	str	r3, [r0, #40]	@ 0x28
    if (--huart->RxXferCount == 0U)
 80056d6:	8dc3      	ldrh	r3, [r0, #46]	@ 0x2e
 80056d8:	b29b      	uxth	r3, r3
 80056da:	3b01      	subs	r3, #1
 80056dc:	b29b      	uxth	r3, r3
 80056de:	85c3      	strh	r3, [r0, #46]	@ 0x2e
 80056e0:	2b00      	cmp	r3, #0
 80056e2:	d151      	bne.n	8005788 <UART_Receive_IT+0xe2>
{
 80056e4:	b500      	push	{lr}
 80056e6:	b083      	sub	sp, #12
      __HAL_UART_DISABLE_IT(huart, UART_IT_RXNE);
 80056e8:	6802      	ldr	r2, [r0, #0]
 80056ea:	68d3      	ldr	r3, [r2, #12]
 80056ec:	f023 0320 	bic.w	r3, r3, #32
 80056f0:	60d3      	str	r3, [r2, #12]
      __HAL_UART_DISABLE_IT(huart, UART_IT_PE);
 80056f2:	6802      	ldr	r2, [r0, #0]
 80056f4:	68d3      	ldr	r3, [r2, #12]
 80056f6:	f423 7380 	bic.w	r3, r3, #256	@ 0x100
 80056fa:	60d3      	str	r3, [r2, #12]
      __HAL_UART_DISABLE_IT(huart, UART_IT_ERR);
 80056fc:	6802      	ldr	r2, [r0, #0]
 80056fe:	6953      	ldr	r3, [r2, #20]
 8005700:	f023 0301 	bic.w	r3, r3, #1
 8005704:	6153      	str	r3, [r2, #20]
      huart->RxState = HAL_UART_STATE_READY;
 8005706:	2320      	movs	r3, #32
 8005708:	f880 3042 	strb.w	r3, [r0, #66]	@ 0x42
      huart->RxEventType = HAL_UART_RXEVENT_TC;
 800570c:	2300      	movs	r3, #0
 800570e:	6343      	str	r3, [r0, #52]	@ 0x34
      if (huart->ReceptionType == HAL_UART_RECEPTION_TOIDLE)
 8005710:	6b03      	ldr	r3, [r0, #48]	@ 0x30
 8005712:	2b01      	cmp	r3, #1
 8005714:	d133      	bne.n	800577e <UART_Receive_IT+0xd8>
        huart->ReceptionType = HAL_UART_RECEPTION_STANDARD;
 8005716:	2300      	movs	r3, #0
 8005718:	6303      	str	r3, [r0, #48]	@ 0x30
        ATOMIC_CLEAR_BIT(huart->Instance->CR1, USART_CR1_IDLEIE);
 800571a:	6802      	ldr	r2, [r0, #0]
   __ASM volatile ("ldrex %0, %1" : "=r" (result) : "Q" (*addr) );
 800571c:	f102 030c 	add.w	r3, r2, #12
 8005720:	e853 3f00 	ldrex	r3, [r3]
 8005724:	f023 0310 	bic.w	r3, r3, #16
   __ASM volatile ("strex %0, %2, %1" : "=&r" (result), "=Q" (*addr) : "r" (value) );
 8005728:	320c      	adds	r2, #12
 800572a:	e842 3100 	strex	r1, r3, [r2]
 800572e:	2900      	cmp	r1, #0
 8005730:	d1f3      	bne.n	800571a <UART_Receive_IT+0x74>
        if (__HAL_UART_GET_FLAG(huart, UART_FLAG_IDLE))
 8005732:	6803      	ldr	r3, [r0, #0]
 8005734:	681a      	ldr	r2, [r3, #0]
 8005736:	f012 0f10 	tst.w	r2, #16
 800573a:	d006      	beq.n	800574a <UART_Receive_IT+0xa4>
          __HAL_UART_CLEAR_IDLEFLAG(huart);
 800573c:	2200      	movs	r2, #0
 800573e:	9201      	str	r2, [sp, #4]
 8005740:	681a      	ldr	r2, [r3, #0]
 8005742:	9201      	str	r2, [sp, #4]
 8005744:	685b      	ldr	r3, [r3, #4]
 8005746:	9301      	str	r3, [sp, #4]
 8005748:	9b01      	ldr	r3, [sp, #4]
        HAL_UARTEx_RxEventCallback(huart, huart->RxXferSize);
 800574a:	8d81      	ldrh	r1, [r0, #44]	@ 0x2c
 800574c:	f7ff ffaa 	bl	80056a4 <HAL_UARTEx_RxEventCallback>
      return HAL_OK;
 8005750:	2000      	movs	r0, #0
}
 8005752:	b003      	add	sp, #12
 8005754:	f85d fb04 	ldr.w	pc, [sp], #4
    if ((huart->Init.WordLength == UART_WORDLENGTH_9B) && (huart->Init.Parity == UART_PARITY_NONE))
 8005758:	6902      	ldr	r2, [r0, #16]
 800575a:	2a00      	cmp	r2, #0
 800575c:	d1ac      	bne.n	80056b8 <UART_Receive_IT+0x12>
      pdata16bits = (uint16_t *) huart->pRxBuffPtr;
 800575e:	6a82      	ldr	r2, [r0, #40]	@ 0x28
      *pdata16bits = (uint16_t)(huart->Instance->DR & (uint16_t)0x01FF);
 8005760:	6803      	ldr	r3, [r0, #0]
 8005762:	685b      	ldr	r3, [r3, #4]
 8005764:	f3c3 0308 	ubfx	r3, r3, #0, #9
 8005768:	8013      	strh	r3, [r2, #0]
      huart->pRxBuffPtr += 2U;
 800576a:	6a83      	ldr	r3, [r0, #40]	@ 0x28
 800576c:	3302      	adds	r3, #2
 800576e:	6283      	str	r3, [r0, #40]	@ 0x28
 8005770:	e7b1      	b.n	80056d6 <UART_Receive_IT+0x30>
        *pdata8bits = (uint8_t)(huart->Instance->DR & (uint8_t)0x007F);
 8005772:	6803      	ldr	r3, [r0, #0]
 8005774:	685b      	ldr	r3, [r3, #4]
 8005776:	f003 037f 	and.w	r3, r3, #127	@ 0x7f
 800577a:	7013      	strb	r3, [r2, #0]
 800577c:	e7a8      	b.n	80056d0 <UART_Receive_IT+0x2a>
        HAL_UART_RxCpltCallback(huart);
 800577e:	f7ff ff87 	bl	8005690 <HAL_UART_RxCpltCallback>
 8005782:	e7e5      	b.n	8005750 <UART_Receive_IT+0xaa>
    return HAL_BUSY;
 8005784:	2002      	movs	r0, #2
 8005786:	4770      	bx	lr
    return HAL_OK;
 8005788:	2000      	movs	r0, #0
}
 800578a:	4770      	bx	lr

0800578c <HAL_UART_IRQHandler>:
{
 800578c:	b510      	push	{r4, lr}
 800578e:	b082      	sub	sp, #8
 8005790:	4604      	mov	r4, r0
  uint32_t isrflags   = READ_REG(huart->Instance->SR);
 8005792:	6802      	ldr	r2, [r0, #0]
 8005794:	6813      	ldr	r3, [r2, #0]
  uint32_t cr1its     = READ_REG(huart->Instance->CR1);
 8005796:	68d0      	ldr	r0, [r2, #12]
  uint32_t cr3its     = READ_REG(huart->Instance->CR3);
 8005798:	6951      	ldr	r1, [r2, #20]
  if (errorflags == RESET)
 800579a:	f013 0f0f 	tst.w	r3, #15
 800579e:	d109      	bne.n	80057b4 <HAL_UART_IRQHandler+0x28>
    if (((isrflags & USART_SR_RXNE) != RESET) && ((cr1its & USART_CR1_RXNEIE) != RESET))
 80057a0:	f013 0f20 	tst.w	r3, #32
 80057a4:	d00c      	beq.n	80057c0 <HAL_UART_IRQHandler+0x34>
 80057a6:	f010 0f20 	tst.w	r0, #32
 80057aa:	d009      	beq.n	80057c0 <HAL_UART_IRQHandler+0x34>
      UART_Receive_IT(huart);
 80057ac:	4620      	mov	r0, r4
 80057ae:	f7ff ff7a 	bl	80056a6 <UART_Receive_IT>
      return;
 80057b2:	e016      	b.n	80057e2 <HAL_UART_IRQHandler+0x56>
  if ((errorflags != RESET) && (((cr3its & USART_CR3_EIE) != RESET)
 80057b4:	f011 0101 	ands.w	r1, r1, #1
 80057b8:	d115      	bne.n	80057e6 <HAL_UART_IRQHandler+0x5a>
                                || ((cr1its & (USART_CR1_RXNEIE | USART_CR1_PEIE)) != RESET)))
 80057ba:	f410 7f90 	tst.w	r0, #288	@ 0x120
 80057be:	d112      	bne.n	80057e6 <HAL_UART_IRQHandler+0x5a>
  if ((huart->ReceptionType == HAL_UART_RECEPTION_TOIDLE)
 80057c0:	6b21      	ldr	r1, [r4, #48]	@ 0x30
 80057c2:	2901      	cmp	r1, #1
 80057c4:	d079      	beq.n	80058ba <HAL_UART_IRQHandler+0x12e>
  if (((isrflags & USART_SR_TXE) != RESET) && ((cr1its & USART_CR1_TXEIE) != RESET))
 80057c6:	f013 0f80 	tst.w	r3, #128	@ 0x80
 80057ca:	d003      	beq.n	80057d4 <HAL_UART_IRQHandler+0x48>
 80057cc:	f010 0f80 	tst.w	r0, #128	@ 0x80
 80057d0:	f040 8113 	bne.w	80059fa <HAL_UART_IRQHandler+0x26e>
  if (((isrflags & USART_SR_TC) != RESET) && ((cr1its & USART_CR1_TCIE) != RESET))
 80057d4:	f013 0f40 	tst.w	r3, #64	@ 0x40
 80057d8:	d003      	beq.n	80057e2 <HAL_UART_IRQHandler+0x56>
 80057da:	f010 0f40 	tst.w	r0, #64	@ 0x40
 80057de:	f040 8110 	bne.w	8005a02 <HAL_UART_IRQHandler+0x276>
}
 80057e2:	b002      	add	sp, #8
 80057e4:	bd10      	pop	{r4, pc}
    if (((isrflags & USART_SR_PE) != RESET) && ((cr1its & USART_CR1_PEIE) != RESET))
 80057e6:	f013 0f01 	tst.w	r3, #1
 80057ea:	d006      	beq.n	80057fa <HAL_UART_IRQHandler+0x6e>
 80057ec:	f410 7f80 	tst.w	r0, #256	@ 0x100
 80057f0:	d003      	beq.n	80057fa <HAL_UART_IRQHandler+0x6e>
      huart->ErrorCode |= HAL_UART_ERROR_PE;
 80057f2:	6c62      	ldr	r2, [r4, #68]	@ 0x44
 80057f4:	f042 0201 	orr.w	r2, r2, #1
 80057f8:	6462      	str	r2, [r4, #68]	@ 0x44
    if (((isrflags & USART_SR_NE) != RESET) && ((cr3its & USART_CR3_EIE) != RESET))
 80057fa:	f013 0f04 	tst.w	r3, #4
 80057fe:	d004      	beq.n	800580a <HAL_UART_IRQHandler+0x7e>
 8005800:	b119      	cbz	r1, 800580a <HAL_UART_IRQHandler+0x7e>
      huart->ErrorCode |= HAL_UART_ERROR_NE;
 8005802:	6c62      	ldr	r2, [r4, #68]	@ 0x44
 8005804:	f042 0202 	orr.w	r2, r2, #2
 8005808:	6462      	str	r2, [r4, #68]	@ 0x44
    if (((isrflags & USART_SR_FE) != RESET) && ((cr3its & USART_CR3_EIE) != RESET))
 800580a:	f013 0f02 	tst.w	r3, #2
 800580e:	d004      	beq.n	800581a <HAL_UART_IRQHandler+0x8e>
 8005810:	b119      	cbz	r1, 800581a <HAL_UART_IRQHandler+0x8e>
      huart->ErrorCode |= HAL_UART_ERROR_FE;
 8005812:	6c62      	ldr	r2, [r4, #68]	@ 0x44
 8005814:	f042 0204 	orr.w	r2, r2, #4
 8005818:	6462      	str	r2, [r4, #68]	@ 0x44
    if (((isrflags & USART_SR_ORE) != RESET) && (((cr1its & USART_CR1_RXNEIE) != RESET)
 800581a:	f013 0f08 	tst.w	r3, #8
 800581e:	d007      	beq.n	8005830 <HAL_UART_IRQHandler+0xa4>
 8005820:	f010 0f20 	tst.w	r0, #32
 8005824:	d100      	bne.n	8005828 <HAL_UART_IRQHandler+0x9c>
                                                 || ((cr3its & USART_CR3_EIE) != RESET)))
 8005826:	b119      	cbz	r1, 8005830 <HAL_UART_IRQHandler+0xa4>
      huart->ErrorCode |= HAL_UART_ERROR_ORE;
 8005828:	6c62      	ldr	r2, [r4, #68]	@ 0x44
 800582a:	f042 0208 	orr.w	r2, r2, #8
 800582e:	6462      	str	r2, [r4, #68]	@ 0x44
    if (huart->ErrorCode != HAL_UART_ERROR_NONE)
 8005830:	6c62      	ldr	r2, [r4, #68]	@ 0x44
 8005832:	2a00      	cmp	r2, #0
 8005834:	d0d5      	beq.n	80057e2 <HAL_UART_IRQHandler+0x56>
      if (((isrflags & USART_SR_RXNE) != RESET) && ((cr1its & USART_CR1_RXNEIE) != RESET))
 8005836:	f013 0f20 	tst.w	r3, #32
 800583a:	d002      	beq.n	8005842 <HAL_UART_IRQHandler+0xb6>
 800583c:	f010 0f20 	tst.w	r0, #32
 8005840:	d129      	bne.n	8005896 <HAL_UART_IRQHandler+0x10a>
      dmarequest = HAL_IS_BIT_SET(huart->Instance->CR3, USART_CR3_DMAR);
 8005842:	6823      	ldr	r3, [r4, #0]
 8005844:	695b      	ldr	r3, [r3, #20]
 8005846:	f003 0340 	and.w	r3, r3, #64	@ 0x40
      if (((huart->ErrorCode & HAL_UART_ERROR_ORE) != RESET) || dmarequest)
 800584a:	6c62      	ldr	r2, [r4, #68]	@ 0x44
 800584c:	f012 0f08 	tst.w	r2, #8
 8005850:	d100      	bne.n	8005854 <HAL_UART_IRQHandler+0xc8>
 8005852:	b363      	cbz	r3, 80058ae <HAL_UART_IRQHandler+0x122>
        UART_EndRxTransfer(huart);
 8005854:	4620      	mov	r0, r4
 8005856:	f7ff fd23 	bl	80052a0 <UART_EndRxTransfer>
        if (HAL_IS_BIT_SET(huart->Instance->CR3, USART_CR3_DMAR))
 800585a:	6823      	ldr	r3, [r4, #0]
 800585c:	695b      	ldr	r3, [r3, #20]
 800585e:	f013 0f40 	tst.w	r3, #64	@ 0x40
 8005862:	d020      	beq.n	80058a6 <HAL_UART_IRQHandler+0x11a>
          ATOMIC_CLEAR_BIT(huart->Instance->CR3, USART_CR3_DMAR);
 8005864:	6822      	ldr	r2, [r4, #0]
   __ASM volatile ("ldrex %0, %1" : "=r" (result) : "Q" (*addr) );
 8005866:	f102 0314 	add.w	r3, r2, #20
 800586a:	e853 3f00 	ldrex	r3, [r3]
 800586e:	f023 0340 	bic.w	r3, r3, #64	@ 0x40
   __ASM volatile ("strex %0, %2, %1" : "=&r" (result), "=Q" (*addr) : "r" (value) );
 8005872:	3214      	adds	r2, #20
 8005874:	e842 3100 	strex	r1, r3, [r2]
 8005878:	2900      	cmp	r1, #0
 800587a:	d1f3      	bne.n	8005864 <HAL_UART_IRQHandler+0xd8>
          if (huart->hdmarx != NULL)
 800587c:	6be3      	ldr	r3, [r4, #60]	@ 0x3c
 800587e:	b173      	cbz	r3, 800589e <HAL_UART_IRQHandler+0x112>
            huart->hdmarx->XferAbortCallback = UART_DMAAbortOnError;
 8005880:	4a62      	ldr	r2, [pc, #392]	@ (8005a0c <HAL_UART_IRQHandler+0x280>)
 8005882:	635a      	str	r2, [r3, #52]	@ 0x34
            if (HAL_DMA_Abort_IT(huart->hdmarx) != HAL_OK)
 8005884:	6be0      	ldr	r0, [r4, #60]	@ 0x3c
 8005886:	f7fe fcb9 	bl	80041fc <HAL_DMA_Abort_IT>
 800588a:	2800      	cmp	r0, #0
 800588c:	d0a9      	beq.n	80057e2 <HAL_UART_IRQHandler+0x56>
              huart->hdmarx->XferAbortCallback(huart->hdmarx);
 800588e:	6be0      	ldr	r0, [r4, #60]	@ 0x3c
 8005890:	6b43      	ldr	r3, [r0, #52]	@ 0x34
 8005892:	4798      	blx	r3
 8005894:	e7a5      	b.n	80057e2 <HAL_UART_IRQHandler+0x56>
        UART_Receive_IT(huart);
 8005896:	4620      	mov	r0, r4
 8005898:	f7ff ff05 	bl	80056a6 <UART_Receive_IT>
 800589c:	e7d1      	b.n	8005842 <HAL_UART_IRQHandler+0xb6>
            HAL_UART_ErrorCallback(huart);
 800589e:	4620      	mov	r0, r4
 80058a0:	f7ff fef7 	bl	8005692 <HAL_UART_ErrorCallback>
 80058a4:	e79d      	b.n	80057e2 <HAL_UART_IRQHandler+0x56>
          HAL_UART_ErrorCallback(huart);
 80058a6:	4620      	mov	r0, r4
 80058a8:	f7ff fef3 	bl	8005692 <HAL_UART_ErrorCallback>
 80058ac:	e799      	b.n	80057e2 <HAL_UART_IRQHandler+0x56>
        HAL_UART_ErrorCallback(huart);
 80058ae:	4620      	mov	r0, r4
 80058b0:	f7ff feef 	bl	8005692 <HAL_UART_ErrorCallback>
        huart->ErrorCode = HAL_UART_ERROR_NONE;
 80058b4:	2300      	movs	r3, #0
 80058b6:	6463      	str	r3, [r4, #68]	@ 0x44
    return;
 80058b8:	e793      	b.n	80057e2 <HAL_UART_IRQHandler+0x56>
      && ((isrflags & USART_SR_IDLE) != 0U)
 80058ba:	f013 0f10 	tst.w	r3, #16
 80058be:	d082      	beq.n	80057c6 <HAL_UART_IRQHandler+0x3a>
      && ((cr1its & USART_SR_IDLE) != 0U))
 80058c0:	f010 0f10 	tst.w	r0, #16
 80058c4:	f43f af7f 	beq.w	80057c6 <HAL_UART_IRQHandler+0x3a>
    __HAL_UART_CLEAR_IDLEFLAG(huart);
 80058c8:	2300      	movs	r3, #0
 80058ca:	9301      	str	r3, [sp, #4]
 80058cc:	6813      	ldr	r3, [r2, #0]
 80058ce:	9301      	str	r3, [sp, #4]
 80058d0:	6853      	ldr	r3, [r2, #4]
 80058d2:	9301      	str	r3, [sp, #4]
 80058d4:	9b01      	ldr	r3, [sp, #4]
    if (HAL_IS_BIT_SET(huart->Instance->CR3, USART_CR3_DMAR))
 80058d6:	6953      	ldr	r3, [r2, #20]
 80058d8:	f013 0f40 	tst.w	r3, #64	@ 0x40
 80058dc:	d051      	beq.n	8005982 <HAL_UART_IRQHandler+0x1f6>
      uint16_t nb_remaining_rx_data = (uint16_t) __HAL_DMA_GET_COUNTER(huart->hdmarx);
 80058de:	6be2      	ldr	r2, [r4, #60]	@ 0x3c
 80058e0:	6813      	ldr	r3, [r2, #0]
 80058e2:	685b      	ldr	r3, [r3, #4]
 80058e4:	b29b      	uxth	r3, r3
      if ((nb_remaining_rx_data > 0U)
 80058e6:	2b00      	cmp	r3, #0
 80058e8:	f43f af7b 	beq.w	80057e2 <HAL_UART_IRQHandler+0x56>
          && (nb_remaining_rx_data < huart->RxXferSize))
 80058ec:	8da1      	ldrh	r1, [r4, #44]	@ 0x2c
 80058ee:	4299      	cmp	r1, r3
 80058f0:	f67f af77 	bls.w	80057e2 <HAL_UART_IRQHandler+0x56>
        huart->RxXferCount = nb_remaining_rx_data;
 80058f4:	85e3      	strh	r3, [r4, #46]	@ 0x2e
        if (huart->hdmarx->Init.Mode != DMA_CIRCULAR)
 80058f6:	6993      	ldr	r3, [r2, #24]
 80058f8:	2b20      	cmp	r3, #32
 80058fa:	d037      	beq.n	800596c <HAL_UART_IRQHandler+0x1e0>
          ATOMIC_CLEAR_BIT(huart->Instance->CR1, USART_CR1_PEIE);
 80058fc:	6822      	ldr	r2, [r4, #0]
   __ASM volatile ("ldrex %0, %1" : "=r" (result) : "Q" (*addr) );
 80058fe:	f102 030c 	add.w	r3, r2, #12
 8005902:	e853 3f00 	ldrex	r3, [r3]
 8005906:	f423 7380 	bic.w	r3, r3, #256	@ 0x100
   __ASM volatile ("strex %0, %2, %1" : "=&r" (result), "=Q" (*addr) : "r" (value) );
 800590a:	320c      	adds	r2, #12
 800590c:	e842 3100 	strex	r1, r3, [r2]
 8005910:	2900      	cmp	r1, #0
 8005912:	d1f3      	bne.n	80058fc <HAL_UART_IRQHandler+0x170>
          ATOMIC_CLEAR_BIT(huart->Instance->CR3, USART_CR3_EIE);
 8005914:	6822      	ldr	r2, [r4, #0]
   __ASM volatile ("ldrex %0, %1" : "=r" (result) : "Q" (*addr) );
 8005916:	f102 0314 	add.w	r3, r2, #20
 800591a:	e853 3f00 	ldrex	r3, [r3]
 800591e:	f023 0301 	bic.w	r3, r3, #1
   __ASM volatile ("strex %0, %2, %1" : "=&r" (result), "=Q" (*addr) : "r" (value) );
 8005922:	3214      	adds	r2, #20
 8005924:	e842 3100 	strex	r1, r3, [r2]
 8005928:	2900      	cmp	r1, #0
 800592a:	d1f3      	bne.n	8005914 <HAL_UART_IRQHandler+0x188>
          ATOMIC_CLEAR_BIT(huart->Instance->CR3, USART_CR3_DMAR);
 800592c:	6822      	ldr	r2, [r4, #0]
   __ASM volatile ("ldrex %0, %1" : "=r" (result) : "Q" (*addr) );
 800592e:	f102 0314 	add.w	r3, r2, #20
 8005932:	e853 3f00 	ldrex	r3, [r3]
 8005936:	f023 0340 	bic.w	r3, r3, #64	@ 0x40
   __ASM volatile ("strex %0, %2, %1" : "=&r" (result), "=Q" (*addr) : "r" (value) );
 800593a:	3214      	adds	r2, #20
 800593c:	e842 3100 	strex	r1, r3, [r2]
 8005940:	2900      	cmp	r1, #0
 8005942:	d1f3      	bne.n	800592c <HAL_UART_IRQHandler+0x1a0>
          huart->RxState = HAL_UART_STATE_READY;
 8005944:	2320      	movs	r3, #32
 8005946:	f884 3042 	strb.w	r3, [r4, #66]	@ 0x42
          huart->ReceptionType = HAL_UART_RECEPTION_STANDARD;
 800594a:	2300      	movs	r3, #0
 800594c:	6323      	str	r3, [r4, #48]	@ 0x30
          ATOMIC_CLEAR_BIT(huart->Instance->CR1, USART_CR1_IDLEIE);
 800594e:	6822      	ldr	r2, [r4, #0]
   __ASM volatile ("ldrex %0, %1" : "=r" (result) : "Q" (*addr) );
 8005950:	f102 030c 	add.w	r3, r2, #12
 8005954:	e853 3f00 	ldrex	r3, [r3]
 8005958:	f023 0310 	bic.w	r3, r3, #16
   __ASM volatile ("strex %0, %2, %1" : "=&r" (result), "=Q" (*addr) : "r" (value) );
 800595c:	320c      	adds	r2, #12
 800595e:	e842 3100 	strex	r1, r3, [r2]
 8005962:	2900      	cmp	r1, #0
 8005964:	d1f3      	bne.n	800594e <HAL_UART_IRQHandler+0x1c2>
          (void)HAL_DMA_Abort(huart->hdmarx);
 8005966:	6be0      	ldr	r0, [r4, #60]	@ 0x3c
 8005968:	f7fe fc24 	bl	80041b4 <HAL_DMA_Abort>
        huart->RxEventType = HAL_UART_RXEVENT_IDLE;
 800596c:	2302      	movs	r3, #2
 800596e:	6363      	str	r3, [r4, #52]	@ 0x34
        HAL_UARTEx_RxEventCallback(huart, (huart->RxXferSize - huart->RxXferCount));
 8005970:	8da1      	ldrh	r1, [r4, #44]	@ 0x2c
 8005972:	8de3      	ldrh	r3, [r4, #46]	@ 0x2e
 8005974:	b29b      	uxth	r3, r3
 8005976:	1ac9      	subs	r1, r1, r3
 8005978:	b289      	uxth	r1, r1
 800597a:	4620      	mov	r0, r4
 800597c:	f7ff fe92 	bl	80056a4 <HAL_UARTEx_RxEventCallback>
      return;
 8005980:	e72f      	b.n	80057e2 <HAL_UART_IRQHandler+0x56>
      uint16_t nb_rx_data = huart->RxXferSize - huart->RxXferCount;
 8005982:	8da1      	ldrh	r1, [r4, #44]	@ 0x2c
 8005984:	8de3      	ldrh	r3, [r4, #46]	@ 0x2e
 8005986:	b29b      	uxth	r3, r3
 8005988:	1ac9      	subs	r1, r1, r3
 800598a:	b289      	uxth	r1, r1
      if ((huart->RxXferCount > 0U)
 800598c:	8de3      	ldrh	r3, [r4, #46]	@ 0x2e
 800598e:	b29b      	uxth	r3, r3
 8005990:	2b00      	cmp	r3, #0
 8005992:	f43f af26 	beq.w	80057e2 <HAL_UART_IRQHandler+0x56>
          && (nb_rx_data > 0U))
 8005996:	2900      	cmp	r1, #0
 8005998:	f43f af23 	beq.w	80057e2 <HAL_UART_IRQHandler+0x56>
        ATOMIC_CLEAR_BIT(huart->Instance->CR1, (USART_CR1_RXNEIE | USART_CR1_PEIE));
 800599c:	6822      	ldr	r2, [r4, #0]
   __ASM volatile ("ldrex %0, %1" : "=r" (result) : "Q" (*addr) );
 800599e:	f102 030c 	add.w	r3, r2, #12
 80059a2:	e853 3f00 	ldrex	r3, [r3]
 80059a6:	f423 7390 	bic.w	r3, r3, #288	@ 0x120
   __ASM volatile ("strex %0, %2, %1" : "=&r" (result), "=Q" (*addr) : "r" (value) );
 80059aa:	320c      	adds	r2, #12
 80059ac:	e842 3000 	strex	r0, r3, [r2]
 80059b0:	2800      	cmp	r0, #0
 80059b2:	d1f3      	bne.n	800599c <HAL_UART_IRQHandler+0x210>
        ATOMIC_CLEAR_BIT(huart->Instance->CR3, USART_CR3_EIE);
 80059b4:	6822      	ldr	r2, [r4, #0]
   __ASM volatile ("ldrex %0, %1" : "=r" (result) : "Q" (*addr) );
 80059b6:	f102 0314 	add.w	r3, r2, #20
 80059ba:	e853 3f00 	ldrex	r3, [r3]
 80059be:	f023 0301 	bic.w	r3, r3, #1
   __ASM volatile ("strex %0, %2, %1" : "=&r" (result), "=Q" (*addr) : "r" (value) );
 80059c2:	3214      	adds	r2, #20
 80059c4:	e842 3000 	strex	r0, r3, [r2]
 80059c8:	2800      	cmp	r0, #0
 80059ca:	d1f3      	bne.n	80059b4 <HAL_UART_IRQHandler+0x228>
        huart->RxState = HAL_UART_STATE_READY;
 80059cc:	2320      	movs	r3, #32
 80059ce:	f884 3042 	strb.w	r3, [r4, #66]	@ 0x42
        huart->ReceptionType = HAL_UART_RECEPTION_STANDARD;
 80059d2:	2300      	movs	r3, #0
 80059d4:	6323      	str	r3, [r4, #48]	@ 0x30
        ATOMIC_CLEAR_BIT(huart->Instance->CR1, USART_CR1_IDLEIE);
 80059d6:	6822      	ldr	r2, [r4, #0]
   __ASM volatile ("ldrex %0, %1" : "=r" (result) : "Q" (*addr) );
 80059d8:	f102 030c 	add.w	r3, r2, #12
 80059dc:	e853 3f00 	ldrex	r3, [r3]
 80059e0:	f023 0310 	bic.w	r3, r3, #16
   __ASM volatile ("strex %0, %2, %1" : "=&r" (result), "=Q" (*addr) : "r" (value) );
 80059e4:	320c      	adds	r2, #12
 80059e6:	e842 3000 	strex	r0, r3, [r2]
 80059ea:	2800      	cmp	r0, #0
 80059ec:	d1f3      	bne.n	80059d6 <HAL_UART_IRQHandler+0x24a>
        huart->RxEventType = HAL_UART_RXEVENT_IDLE;
 80059ee:	2302      	movs	r3, #2
 80059f0:	6363      	str	r3, [r4, #52]	@ 0x34
        HAL_UARTEx_RxEventCallback(huart, nb_rx_data);
 80059f2:	4620      	mov	r0, r4
 80059f4:	f7ff fe56 	bl	80056a4 <HAL_UARTEx_RxEventCallback>
      return;
 80059f8:	e6f3      	b.n	80057e2 <HAL_UART_IRQHandler+0x56>
    UART_Transmit_IT(huart);
 80059fa:	4620      	mov	r0, r4
 80059fc:	f7ff fc7e 	bl	80052fc <UART_Transmit_IT>
    return;
 8005a00:	e6ef      	b.n	80057e2 <HAL_UART_IRQHandler+0x56>
    UART_EndTransmit_IT(huart);
 8005a02:	4620      	mov	r0, r4
 8005a04:	f7ff fe37 	bl	8005676 <UART_EndTransmit_IT>
    return;
 8005a08:	e6eb      	b.n	80057e2 <HAL_UART_IRQHandler+0x56>
 8005a0a:	bf00      	nop
 8005a0c:	08005695 	.word	0x08005695

08005a10 <makeFreeRtosPriority>:
/* Convert from CMSIS type osPriority to FreeRTOS priority number */
static unsigned portBASE_TYPE makeFreeRtosPriority (osPriority priority)
{
  unsigned portBASE_TYPE fpriority = tskIDLE_PRIORITY;
  
  if (priority != osPriorityError) {
 8005a10:	2884      	cmp	r0, #132	@ 0x84
 8005a12:	d001      	beq.n	8005a18 <makeFreeRtosPriority+0x8>
    fpriority += (priority - osPriorityIdle);
 8005a14:	3003      	adds	r0, #3
 8005a16:	4770      	bx	lr
  unsigned portBASE_TYPE fpriority = tskIDLE_PRIORITY;
 8005a18:	2000      	movs	r0, #0
  }
  
  return fpriority;
}
 8005a1a:	4770      	bx	lr

08005a1c <osKernelStart>:
* @param  argument      pointer that is passed to the thread function as start argument.
* @retval status code that indicates the execution status of the function
* @note   MUST REMAIN UNCHANGED: \b osKernelStart shall be consistent in every CMSIS-RTOS.
*/
osStatus osKernelStart (void)
{
 8005a1c:	b508      	push	{r3, lr}
  vTaskStartScheduler();
 8005a1e:	f000 fd77 	bl	8006510 <vTaskStartScheduler>
  
  return osOK;
}
 8005a22:	2000      	movs	r0, #0
 8005a24:	bd08      	pop	{r3, pc}

08005a26 <osThreadCreate>:
* @param  argument      pointer that is passed to the thread function as start argument.
* @retval thread ID for reference by other functions or NULL in case of error.
* @note   MUST REMAIN UNCHANGED: \b osThreadCreate shall be consistent in every CMSIS-RTOS.
*/
osThreadId osThreadCreate (const osThreadDef_t *thread_def, void *argument)
{
 8005a26:	e92d 43f0 	stmdb	sp!, {r4, r5, r6, r7, r8, r9, lr}
 8005a2a:	b087      	sub	sp, #28
 8005a2c:	460e      	mov	r6, r1
  TaskHandle_t handle;
  
#if( configSUPPORT_STATIC_ALLOCATION == 1 ) &&  ( configSUPPORT_DYNAMIC_ALLOCATION == 1 )
  if((thread_def->buffer != NULL) && (thread_def->controlblock != NULL)) {
 8005a2e:	6944      	ldr	r4, [r0, #20]
 8005a30:	b1c4      	cbz	r4, 8005a64 <osThreadCreate+0x3e>
 8005a32:	6985      	ldr	r5, [r0, #24]
 8005a34:	b1b5      	cbz	r5, 8005a64 <osThreadCreate+0x3e>
    handle = xTaskCreateStatic((TaskFunction_t)thread_def->pthread,(const portCHAR *)thread_def->name,
 8005a36:	6847      	ldr	r7, [r0, #4]
 8005a38:	f8d0 8000 	ldr.w	r8, [r0]
              thread_def->stacksize, argument, makeFreeRtosPriority(thread_def->tpriority),
 8005a3c:	f8d0 9010 	ldr.w	r9, [r0, #16]
    handle = xTaskCreateStatic((TaskFunction_t)thread_def->pthread,(const portCHAR *)thread_def->name,
 8005a40:	f9b0 0008 	ldrsh.w	r0, [r0, #8]
 8005a44:	f7ff ffe4 	bl	8005a10 <makeFreeRtosPriority>
 8005a48:	9502      	str	r5, [sp, #8]
 8005a4a:	9401      	str	r4, [sp, #4]
 8005a4c:	9000      	str	r0, [sp, #0]
 8005a4e:	4633      	mov	r3, r6
 8005a50:	464a      	mov	r2, r9
 8005a52:	4641      	mov	r1, r8
 8005a54:	4638      	mov	r0, r7
 8005a56:	f000 fced 	bl	8006434 <xTaskCreateStatic>
 8005a5a:	9005      	str	r0, [sp, #20]
                   &handle) != pdPASS)  {
    return NULL;
  }     
#endif
  
  return handle;
 8005a5c:	9805      	ldr	r0, [sp, #20]
}
 8005a5e:	b007      	add	sp, #28
 8005a60:	e8bd 83f0 	ldmia.w	sp!, {r4, r5, r6, r7, r8, r9, pc}
    if (xTaskCreate((TaskFunction_t)thread_def->pthread,(const portCHAR *)thread_def->name,
 8005a64:	6844      	ldr	r4, [r0, #4]
 8005a66:	6805      	ldr	r5, [r0, #0]
              thread_def->stacksize, argument, makeFreeRtosPriority(thread_def->tpriority),
 8005a68:	6907      	ldr	r7, [r0, #16]
    if (xTaskCreate((TaskFunction_t)thread_def->pthread,(const portCHAR *)thread_def->name,
 8005a6a:	f9b0 0008 	ldrsh.w	r0, [r0, #8]
 8005a6e:	f7ff ffcf 	bl	8005a10 <makeFreeRtosPriority>
 8005a72:	ab05      	add	r3, sp, #20
 8005a74:	9301      	str	r3, [sp, #4]
 8005a76:	9000      	str	r0, [sp, #0]
 8005a78:	4633      	mov	r3, r6
 8005a7a:	b2ba      	uxth	r2, r7
 8005a7c:	4629      	mov	r1, r5
 8005a7e:	4620      	mov	r0, r4
 8005a80:	f000 fd13 	bl	80064aa <xTaskCreate>
 8005a84:	2801      	cmp	r0, #1
 8005a86:	d0e9      	beq.n	8005a5c <osThreadCreate+0x36>
      return NULL;
 8005a88:	2000      	movs	r0, #0
 8005a8a:	e7e8      	b.n	8005a5e <osThreadCreate+0x38>

08005a8c <osDelay>:
* @brief   Wait for Timeout (Time Delay)
* @param   millisec      time delay value
* @retval  status code that indicates the execution status of the function.
*/
osStatus osDelay (uint32_t millisec)
{
 8005a8c:	b508      	push	{r3, lr}
#if INCLUDE_vTaskDelay
  TickType_t ticks = millisec / portTICK_PERIOD_MS;
  
  vTaskDelay(ticks ? ticks : 1);          /* Minimum delay = 1 tick */
 8005a8e:	b900      	cbnz	r0, 8005a92 <osDelay+0x6>
 8005a90:	2001      	movs	r0, #1
 8005a92:	f000 fe8f 	bl	80067b4 <vTaskDelay>
#else
  (void) millisec;
  
  return osErrorResource;
#endif
}
 8005a96:	2000      	movs	r0, #0
 8005a98:	bd08      	pop	{r3, pc}

08005a9a <osMessageCreate>:
* @param  thread_id     thread ID (obtained by \ref osThreadCreate or \ref osThreadGetId) or NULL.
* @retval  message queue ID for reference by other functions or NULL in case of error.
* @note   MUST REMAIN UNCHANGED: \b osMessageCreate shall be consistent in every CMSIS-RTOS.
*/
osMessageQId osMessageCreate (const osMessageQDef_t *queue_def, osThreadId thread_id)
{
 8005a9a:	b500      	push	{lr}
 8005a9c:	b083      	sub	sp, #12
  (void) thread_id;
  
#if( configSUPPORT_STATIC_ALLOCATION == 1 ) && ( configSUPPORT_DYNAMIC_ALLOCATION == 1 )

  if ((queue_def->buffer != NULL) && (queue_def->controlblock != NULL)) {
 8005a9e:	6882      	ldr	r2, [r0, #8]
 8005aa0:	b142      	cbz	r2, 8005ab4 <osMessageCreate+0x1a>
 8005aa2:	68c3      	ldr	r3, [r0, #12]
 8005aa4:	b133      	cbz	r3, 8005ab4 <osMessageCreate+0x1a>
    return xQueueCreateStatic(queue_def->queue_sz, queue_def->item_sz, queue_def->buffer, queue_def->controlblock);
 8005aa6:	2100      	movs	r1, #0
 8005aa8:	9100      	str	r1, [sp, #0]
 8005aaa:	6841      	ldr	r1, [r0, #4]
 8005aac:	6800      	ldr	r0, [r0, #0]
 8005aae:	f000 f93e 	bl	8005d2e <xQueueGenericCreateStatic>
 8005ab2:	e004      	b.n	8005abe <osMessageCreate+0x24>
  }
  else {
    return xQueueCreate(queue_def->queue_sz, queue_def->item_sz);
 8005ab4:	2200      	movs	r2, #0
 8005ab6:	6841      	ldr	r1, [r0, #4]
 8005ab8:	6800      	ldr	r0, [r0, #0]
 8005aba:	f000 f982 	bl	8005dc2 <xQueueGenericCreate>
#elif ( configSUPPORT_STATIC_ALLOCATION == 1 )
  return xQueueCreateStatic(queue_def->queue_sz, queue_def->item_sz, queue_def->buffer, queue_def->controlblock);
#else  
  return xQueueCreate(queue_def->queue_sz, queue_def->item_sz);
#endif
}
 8005abe:	b003      	add	sp, #12
 8005ac0:	f85d fb04 	ldr.w	pc, [sp], #4

08005ac4 <vListInitialise>:
void vListInitialise( List_t * const pxList )
{
	/* The list structure contains a list item which is used to mark the
	end of the list.  To initialise the list the list end is inserted
	as the only list entry. */
	pxList->pxIndex = ( ListItem_t * ) &( pxList->xListEnd );			/*lint !e826 !e740 !e9087 The mini list structure is used as the list end to save RAM.  This is checked and valid. */
 8005ac4:	f100 0308 	add.w	r3, r0, #8
 8005ac8:	6043      	str	r3, [r0, #4]

	/* The list end value is the highest possible value in the list to
	ensure it remains at the end of the list. */
	pxList->xListEnd.xItemValue = portMAX_DELAY;
 8005aca:	f04f 32ff 	mov.w	r2, #4294967295
 8005ace:	6082      	str	r2, [r0, #8]

	/* The list end next and previous pointers point to itself so we know
	when the list is empty. */
	pxList->xListEnd.pxNext = ( ListItem_t * ) &( pxList->xListEnd );	/*lint !e826 !e740 !e9087 The mini list structure is used as the list end to save RAM.  This is checked and valid. */
 8005ad0:	60c3      	str	r3, [r0, #12]
	pxList->xListEnd.pxPrevious = ( ListItem_t * ) &( pxList->xListEnd );/*lint !e826 !e740 !e9087 The mini list structure is used as the list end to save RAM.  This is checked and valid. */
 8005ad2:	6103      	str	r3, [r0, #16]

	pxList->uxNumberOfItems = ( UBaseType_t ) 0U;
 8005ad4:	2300      	movs	r3, #0
 8005ad6:	6003      	str	r3, [r0, #0]

	/* Write known values into the list if
	configUSE_LIST_DATA_INTEGRITY_CHECK_BYTES is set to 1. */
	listSET_LIST_INTEGRITY_CHECK_1_VALUE( pxList );
	listSET_LIST_INTEGRITY_CHECK_2_VALUE( pxList );
}
 8005ad8:	4770      	bx	lr

08005ada <vListInitialiseItem>:
/*-----------------------------------------------------------*/

void vListInitialiseItem( ListItem_t * const pxItem )
{
	/* Make sure the list item is not recorded as being on a list. */
	pxItem->pxContainer = NULL;
 8005ada:	2300      	movs	r3, #0
 8005adc:	6103      	str	r3, [r0, #16]

	/* Write known values into the list item if
	configUSE_LIST_DATA_INTEGRITY_CHECK_BYTES is set to 1. */
	listSET_FIRST_LIST_ITEM_INTEGRITY_CHECK_VALUE( pxItem );
	listSET_SECOND_LIST_ITEM_INTEGRITY_CHECK_VALUE( pxItem );
}
 8005ade:	4770      	bx	lr

08005ae0 <vListInsertEnd>:
/*-----------------------------------------------------------*/

void vListInsertEnd( List_t * const pxList, ListItem_t * const pxNewListItem )
{
ListItem_t * const pxIndex = pxList->pxIndex;
 8005ae0:	6843      	ldr	r3, [r0, #4]
	listTEST_LIST_ITEM_INTEGRITY( pxNewListItem );

	/* Insert a new list item into pxList, but rather than sort the list,
	makes the new list item the last item to be removed by a call to
	listGET_OWNER_OF_NEXT_ENTRY(). */
	pxNewListItem->pxNext = pxIndex;
 8005ae2:	604b      	str	r3, [r1, #4]
	pxNewListItem->pxPrevious = pxIndex->pxPrevious;
 8005ae4:	689a      	ldr	r2, [r3, #8]
 8005ae6:	608a      	str	r2, [r1, #8]

	/* Only used during decision coverage testing. */
	mtCOVERAGE_TEST_DELAY();

	pxIndex->pxPrevious->pxNext = pxNewListItem;
 8005ae8:	6051      	str	r1, [r2, #4]
	pxIndex->pxPrevious = pxNewListItem;
 8005aea:	6099      	str	r1, [r3, #8]

	/* Remember which list the item is in. */
	pxNewListItem->pxContainer = pxList;
 8005aec:	6108      	str	r0, [r1, #16]

	( pxList->uxNumberOfItems )++;
 8005aee:	6803      	ldr	r3, [r0, #0]
 8005af0:	3301      	adds	r3, #1
 8005af2:	6003      	str	r3, [r0, #0]
}
 8005af4:	4770      	bx	lr

08005af6 <vListInsert>:
/*-----------------------------------------------------------*/

void vListInsert( List_t * const pxList, ListItem_t * const pxNewListItem )
{
 8005af6:	b430      	push	{r4, r5}
ListItem_t *pxIterator;
const TickType_t xValueOfInsertion = pxNewListItem->xItemValue;
 8005af8:	680d      	ldr	r5, [r1, #0]
	new list item should be placed after it.  This ensures that TCBs which are
	stored in ready lists (all of which have the same xItemValue value) get a
	share of the CPU.  However, if the xItemValue is the same as the back marker
	the iteration loop below will not end.  Therefore the value is checked
	first, and the algorithm slightly modified if necessary. */
	if( xValueOfInsertion == portMAX_DELAY )
 8005afa:	f1b5 3fff 	cmp.w	r5, #4294967295
 8005afe:	d011      	beq.n	8005b24 <vListInsert+0x2e>
			4) Using a queue or semaphore before it has been initialised or
			   before the scheduler has been started (are interrupts firing
			   before vTaskStartScheduler() has been called?).
		**********************************************************************/

		for( pxIterator = ( ListItem_t * ) &( pxList->xListEnd ); pxIterator->pxNext->xItemValue <= xValueOfInsertion; pxIterator = pxIterator->pxNext ) /*lint !e826 !e740 !e9087 The mini list structure is used as the list end to save RAM.  This is checked and valid. *//*lint !e440 The iterator moves to a different value, not xValueOfInsertion. */
 8005b00:	f100 0308 	add.w	r3, r0, #8
 8005b04:	461c      	mov	r4, r3
 8005b06:	685b      	ldr	r3, [r3, #4]
 8005b08:	681a      	ldr	r2, [r3, #0]
 8005b0a:	42aa      	cmp	r2, r5
 8005b0c:	d9fa      	bls.n	8005b04 <vListInsert+0xe>
			/* There is nothing to do here, just iterating to the wanted
			insertion position. */
		}
	}

	pxNewListItem->pxNext = pxIterator->pxNext;
 8005b0e:	6863      	ldr	r3, [r4, #4]
 8005b10:	604b      	str	r3, [r1, #4]
	pxNewListItem->pxNext->pxPrevious = pxNewListItem;
 8005b12:	6099      	str	r1, [r3, #8]
	pxNewListItem->pxPrevious = pxIterator;
 8005b14:	608c      	str	r4, [r1, #8]
	pxIterator->pxNext = pxNewListItem;
 8005b16:	6061      	str	r1, [r4, #4]

	/* Remember which list the item is in.  This allows fast removal of the
	item later. */
	pxNewListItem->pxContainer = pxList;
 8005b18:	6108      	str	r0, [r1, #16]

	( pxList->uxNumberOfItems )++;
 8005b1a:	6803      	ldr	r3, [r0, #0]
 8005b1c:	3301      	adds	r3, #1
 8005b1e:	6003      	str	r3, [r0, #0]
}
 8005b20:	bc30      	pop	{r4, r5}
 8005b22:	4770      	bx	lr
		pxIterator = pxList->xListEnd.pxPrevious;
 8005b24:	6904      	ldr	r4, [r0, #16]
 8005b26:	e7f2      	b.n	8005b0e <vListInsert+0x18>

08005b28 <uxListRemove>:

UBaseType_t uxListRemove( ListItem_t * const pxItemToRemove )
{
/* The list item knows which list it is in.  Obtain the list from the list
item. */
List_t * const pxList = pxItemToRemove->pxContainer;
 8005b28:	6903      	ldr	r3, [r0, #16]

	pxItemToRemove->pxNext->pxPrevious = pxItemToRemove->pxPrevious;
 8005b2a:	6841      	ldr	r1, [r0, #4]
 8005b2c:	6882      	ldr	r2, [r0, #8]
 8005b2e:	608a      	str	r2, [r1, #8]
	pxItemToRemove->pxPrevious->pxNext = pxItemToRemove->pxNext;
 8005b30:	6841      	ldr	r1, [r0, #4]
 8005b32:	6051      	str	r1, [r2, #4]

	/* Only used during decision coverage testing. */
	mtCOVERAGE_TEST_DELAY();

	/* Make sure the index is left pointing to a valid item. */
	if( pxList->pxIndex == pxItemToRemove )
 8005b34:	685a      	ldr	r2, [r3, #4]
 8005b36:	4282      	cmp	r2, r0
 8005b38:	d006      	beq.n	8005b48 <uxListRemove+0x20>
	else
	{
		mtCOVERAGE_TEST_MARKER();
	}

	pxItemToRemove->pxContainer = NULL;
 8005b3a:	2200      	movs	r2, #0
 8005b3c:	6102      	str	r2, [r0, #16]
	( pxList->uxNumberOfItems )--;
 8005b3e:	681a      	ldr	r2, [r3, #0]
 8005b40:	3a01      	subs	r2, #1
 8005b42:	601a      	str	r2, [r3, #0]

	return pxList->uxNumberOfItems;
 8005b44:	6818      	ldr	r0, [r3, #0]
}
 8005b46:	4770      	bx	lr
		pxList->pxIndex = pxItemToRemove->pxPrevious;
 8005b48:	6882      	ldr	r2, [r0, #8]
 8005b4a:	605a      	str	r2, [r3, #4]
 8005b4c:	e7f5      	b.n	8005b3a <uxListRemove+0x12>

08005b4e <prvIsQueueFull>:
	return xReturn;
} /*lint !e818 xQueue could not be pointer to const because it is a typedef. */
/*-----------------------------------------------------------*/

static BaseType_t prvIsQueueFull( const Queue_t *pxQueue )
{
 8005b4e:	b510      	push	{r4, lr}
 8005b50:	4604      	mov	r4, r0
BaseType_t xReturn;

	taskENTER_CRITICAL();
 8005b52:	f001 f817 	bl	8006b84 <vPortEnterCritical>
	{
		if( pxQueue->uxMessagesWaiting == pxQueue->uxLength )
 8005b56:	6ba2      	ldr	r2, [r4, #56]	@ 0x38
 8005b58:	6be3      	ldr	r3, [r4, #60]	@ 0x3c
 8005b5a:	429a      	cmp	r2, r3
 8005b5c:	d004      	beq.n	8005b68 <prvIsQueueFull+0x1a>
		{
			xReturn = pdTRUE;
		}
		else
		{
			xReturn = pdFALSE;
 8005b5e:	2400      	movs	r4, #0
		}
	}
	taskEXIT_CRITICAL();
 8005b60:	f001 f832 	bl	8006bc8 <vPortExitCritical>

	return xReturn;
}
 8005b64:	4620      	mov	r0, r4
 8005b66:	bd10      	pop	{r4, pc}
			xReturn = pdTRUE;
 8005b68:	2401      	movs	r4, #1
 8005b6a:	e7f9      	b.n	8005b60 <prvIsQueueFull+0x12>

08005b6c <prvIsQueueEmpty>:
{
 8005b6c:	b510      	push	{r4, lr}
 8005b6e:	4604      	mov	r4, r0
	taskENTER_CRITICAL();
 8005b70:	f001 f808 	bl	8006b84 <vPortEnterCritical>
		if( pxQueue->uxMessagesWaiting == ( UBaseType_t )  0 )
 8005b74:	6ba3      	ldr	r3, [r4, #56]	@ 0x38
 8005b76:	b923      	cbnz	r3, 8005b82 <prvIsQueueEmpty+0x16>
			xReturn = pdTRUE;
 8005b78:	2401      	movs	r4, #1
	taskEXIT_CRITICAL();
 8005b7a:	f001 f825 	bl	8006bc8 <vPortExitCritical>
}
 8005b7e:	4620      	mov	r0, r4
 8005b80:	bd10      	pop	{r4, pc}
			xReturn = pdFALSE;
 8005b82:	2400      	movs	r4, #0
 8005b84:	e7f9      	b.n	8005b7a <prvIsQueueEmpty+0xe>

08005b86 <prvCopyDataToQueue>:
{
 8005b86:	b570      	push	{r4, r5, r6, lr}
 8005b88:	4604      	mov	r4, r0
 8005b8a:	4615      	mov	r5, r2
	uxMessagesWaiting = pxQueue->uxMessagesWaiting;
 8005b8c:	6b86      	ldr	r6, [r0, #56]	@ 0x38
	if( pxQueue->uxItemSize == ( UBaseType_t ) 0 )
 8005b8e:	6c02      	ldr	r2, [r0, #64]	@ 0x40
 8005b90:	b95a      	cbnz	r2, 8005baa <prvCopyDataToQueue+0x24>
			if( pxQueue->uxQueueType == queueQUEUE_IS_MUTEX )
 8005b92:	6803      	ldr	r3, [r0, #0]
 8005b94:	b11b      	cbz	r3, 8005b9e <prvCopyDataToQueue+0x18>
BaseType_t xReturn = pdFALSE;
 8005b96:	2000      	movs	r0, #0
	pxQueue->uxMessagesWaiting = uxMessagesWaiting + ( UBaseType_t ) 1;
 8005b98:	3601      	adds	r6, #1
 8005b9a:	63a6      	str	r6, [r4, #56]	@ 0x38
}
 8005b9c:	bd70      	pop	{r4, r5, r6, pc}
				xReturn = xTaskPriorityDisinherit( pxQueue->u.xSemaphore.xMutexHolder );
 8005b9e:	6880      	ldr	r0, [r0, #8]
 8005ba0:	f000 ff42 	bl	8006a28 <xTaskPriorityDisinherit>
				pxQueue->u.xSemaphore.xMutexHolder = NULL;
 8005ba4:	2300      	movs	r3, #0
 8005ba6:	60a3      	str	r3, [r4, #8]
 8005ba8:	e7f6      	b.n	8005b98 <prvCopyDataToQueue+0x12>
	else if( xPosition == queueSEND_TO_BACK )
 8005baa:	b96d      	cbnz	r5, 8005bc8 <prvCopyDataToQueue+0x42>
		( void ) memcpy( ( void * ) pxQueue->pcWriteTo, pvItemToQueue, ( size_t ) pxQueue->uxItemSize ); /*lint !e961 !e418 !e9087 MISRA exception as the casts are only redundant for some ports, plus previous logic ensures a null pointer can only be passed to memcpy() if the copy size is 0.  Cast to void required by function signature and safe as no alignment requirement and copy length specified in bytes. */
 8005bac:	6840      	ldr	r0, [r0, #4]
 8005bae:	f001 fdd8 	bl	8007762 <memcpy>
		pxQueue->pcWriteTo += pxQueue->uxItemSize; /*lint !e9016 Pointer arithmetic on char types ok, especially in this use case where it is the clearest way of conveying intent. */
 8005bb2:	6863      	ldr	r3, [r4, #4]
 8005bb4:	6c22      	ldr	r2, [r4, #64]	@ 0x40
 8005bb6:	4413      	add	r3, r2
 8005bb8:	6063      	str	r3, [r4, #4]
		if( pxQueue->pcWriteTo >= pxQueue->u.xQueue.pcTail ) /*lint !e946 MISRA exception justified as comparison of pointers is the cleanest solution. */
 8005bba:	68a2      	ldr	r2, [r4, #8]
 8005bbc:	4293      	cmp	r3, r2
 8005bbe:	d319      	bcc.n	8005bf4 <prvCopyDataToQueue+0x6e>
			pxQueue->pcWriteTo = pxQueue->pcHead;
 8005bc0:	6823      	ldr	r3, [r4, #0]
 8005bc2:	6063      	str	r3, [r4, #4]
BaseType_t xReturn = pdFALSE;
 8005bc4:	4628      	mov	r0, r5
 8005bc6:	e7e7      	b.n	8005b98 <prvCopyDataToQueue+0x12>
		( void ) memcpy( ( void * ) pxQueue->u.xQueue.pcReadFrom, pvItemToQueue, ( size_t ) pxQueue->uxItemSize ); /*lint !e961 !e9087 !e418 MISRA exception as the casts are only redundant for some ports.  Cast to void required by function signature and safe as no alignment requirement and copy length specified in bytes.  Assert checks null pointer only used when length is 0. */
 8005bc8:	68c0      	ldr	r0, [r0, #12]
 8005bca:	f001 fdca 	bl	8007762 <memcpy>
		pxQueue->u.xQueue.pcReadFrom -= pxQueue->uxItemSize;
 8005bce:	68e3      	ldr	r3, [r4, #12]
 8005bd0:	6c22      	ldr	r2, [r4, #64]	@ 0x40
 8005bd2:	4251      	negs	r1, r2
 8005bd4:	1a9b      	subs	r3, r3, r2
 8005bd6:	60e3      	str	r3, [r4, #12]
		if( pxQueue->u.xQueue.pcReadFrom < pxQueue->pcHead ) /*lint !e946 MISRA exception justified as comparison of pointers is the cleanest solution. */
 8005bd8:	6822      	ldr	r2, [r4, #0]
 8005bda:	4293      	cmp	r3, r2
 8005bdc:	d202      	bcs.n	8005be4 <prvCopyDataToQueue+0x5e>
			pxQueue->u.xQueue.pcReadFrom = ( pxQueue->u.xQueue.pcTail - pxQueue->uxItemSize );
 8005bde:	68a3      	ldr	r3, [r4, #8]
 8005be0:	440b      	add	r3, r1
 8005be2:	60e3      	str	r3, [r4, #12]
		if( xPosition == queueOVERWRITE )
 8005be4:	2d02      	cmp	r5, #2
 8005be6:	d001      	beq.n	8005bec <prvCopyDataToQueue+0x66>
BaseType_t xReturn = pdFALSE;
 8005be8:	2000      	movs	r0, #0
 8005bea:	e7d5      	b.n	8005b98 <prvCopyDataToQueue+0x12>
			if( uxMessagesWaiting > ( UBaseType_t ) 0 )
 8005bec:	b126      	cbz	r6, 8005bf8 <prvCopyDataToQueue+0x72>
				--uxMessagesWaiting;
 8005bee:	3e01      	subs	r6, #1
BaseType_t xReturn = pdFALSE;
 8005bf0:	2000      	movs	r0, #0
 8005bf2:	e7d1      	b.n	8005b98 <prvCopyDataToQueue+0x12>
 8005bf4:	4628      	mov	r0, r5
 8005bf6:	e7cf      	b.n	8005b98 <prvCopyDataToQueue+0x12>
 8005bf8:	2000      	movs	r0, #0
 8005bfa:	e7cd      	b.n	8005b98 <prvCopyDataToQueue+0x12>

08005bfc <prvCopyDataFromQueue>:
{
 8005bfc:	b508      	push	{r3, lr}
 8005bfe:	4603      	mov	r3, r0
	if( pxQueue->uxItemSize != ( UBaseType_t ) 0 )
 8005c00:	6c02      	ldr	r2, [r0, #64]	@ 0x40
 8005c02:	b162      	cbz	r2, 8005c1e <prvCopyDataFromQueue+0x22>
 8005c04:	4608      	mov	r0, r1
		pxQueue->u.xQueue.pcReadFrom += pxQueue->uxItemSize; /*lint !e9016 Pointer arithmetic on char types ok, especially in this use case where it is the clearest way of conveying intent. */
 8005c06:	68d9      	ldr	r1, [r3, #12]
 8005c08:	4411      	add	r1, r2
 8005c0a:	60d9      	str	r1, [r3, #12]
		if( pxQueue->u.xQueue.pcReadFrom >= pxQueue->u.xQueue.pcTail ) /*lint !e946 MISRA exception justified as use of the relational operator is the cleanest solutions. */
 8005c0c:	f8d3 c008 	ldr.w	ip, [r3, #8]
 8005c10:	4561      	cmp	r1, ip
 8005c12:	d301      	bcc.n	8005c18 <prvCopyDataFromQueue+0x1c>
			pxQueue->u.xQueue.pcReadFrom = pxQueue->pcHead;
 8005c14:	6819      	ldr	r1, [r3, #0]
 8005c16:	60d9      	str	r1, [r3, #12]
		( void ) memcpy( ( void * ) pvBuffer, ( void * ) pxQueue->u.xQueue.pcReadFrom, ( size_t ) pxQueue->uxItemSize ); /*lint !e961 !e418 !e9087 MISRA exception as the casts are only redundant for some ports.  Also previous logic ensures a null pointer can only be passed to memcpy() when the count is 0.  Cast to void required by function signature and safe as no alignment requirement and copy length specified in bytes. */
 8005c18:	68d9      	ldr	r1, [r3, #12]
 8005c1a:	f001 fda2 	bl	8007762 <memcpy>
}
 8005c1e:	bd08      	pop	{r3, pc}

08005c20 <prvUnlockQueue>:
{
 8005c20:	b538      	push	{r3, r4, r5, lr}
 8005c22:	4605      	mov	r5, r0
	taskENTER_CRITICAL();
 8005c24:	f000 ffae 	bl	8006b84 <vPortEnterCritical>
		int8_t cTxLock = pxQueue->cTxLock;
 8005c28:	f895 4045 	ldrb.w	r4, [r5, #69]	@ 0x45
 8005c2c:	b264      	sxtb	r4, r4
		while( cTxLock > queueLOCKED_UNMODIFIED )
 8005c2e:	e001      	b.n	8005c34 <prvUnlockQueue+0x14>
			--cTxLock;
 8005c30:	3c01      	subs	r4, #1
 8005c32:	b264      	sxtb	r4, r4
		while( cTxLock > queueLOCKED_UNMODIFIED )
 8005c34:	2c00      	cmp	r4, #0
 8005c36:	dd0a      	ble.n	8005c4e <prvUnlockQueue+0x2e>
				if( listLIST_IS_EMPTY( &( pxQueue->xTasksWaitingToReceive ) ) == pdFALSE )
 8005c38:	6a6b      	ldr	r3, [r5, #36]	@ 0x24
 8005c3a:	b143      	cbz	r3, 8005c4e <prvUnlockQueue+0x2e>
					if( xTaskRemoveFromEventList( &( pxQueue->xTasksWaitingToReceive ) ) != pdFALSE )
 8005c3c:	f105 0024 	add.w	r0, r5, #36	@ 0x24
 8005c40:	f000 fe48 	bl	80068d4 <xTaskRemoveFromEventList>
 8005c44:	2800      	cmp	r0, #0
 8005c46:	d0f3      	beq.n	8005c30 <prvUnlockQueue+0x10>
						vTaskMissedYield();
 8005c48:	f000 fed8 	bl	80069fc <vTaskMissedYield>
 8005c4c:	e7f0      	b.n	8005c30 <prvUnlockQueue+0x10>
		pxQueue->cTxLock = queueUNLOCKED;
 8005c4e:	23ff      	movs	r3, #255	@ 0xff
 8005c50:	f885 3045 	strb.w	r3, [r5, #69]	@ 0x45
	taskEXIT_CRITICAL();
 8005c54:	f000 ffb8 	bl	8006bc8 <vPortExitCritical>
	taskENTER_CRITICAL();
 8005c58:	f000 ff94 	bl	8006b84 <vPortEnterCritical>
		int8_t cRxLock = pxQueue->cRxLock;
 8005c5c:	f895 4044 	ldrb.w	r4, [r5, #68]	@ 0x44
 8005c60:	b264      	sxtb	r4, r4
		while( cRxLock > queueLOCKED_UNMODIFIED )
 8005c62:	e001      	b.n	8005c68 <prvUnlockQueue+0x48>
				--cRxLock;
 8005c64:	3c01      	subs	r4, #1
 8005c66:	b264      	sxtb	r4, r4
		while( cRxLock > queueLOCKED_UNMODIFIED )
 8005c68:	2c00      	cmp	r4, #0
 8005c6a:	dd0a      	ble.n	8005c82 <prvUnlockQueue+0x62>
			if( listLIST_IS_EMPTY( &( pxQueue->xTasksWaitingToSend ) ) == pdFALSE )
 8005c6c:	692b      	ldr	r3, [r5, #16]
 8005c6e:	b143      	cbz	r3, 8005c82 <prvUnlockQueue+0x62>
				if( xTaskRemoveFromEventList( &( pxQueue->xTasksWaitingToSend ) ) != pdFALSE )
 8005c70:	f105 0010 	add.w	r0, r5, #16
 8005c74:	f000 fe2e 	bl	80068d4 <xTaskRemoveFromEventList>
 8005c78:	2800      	cmp	r0, #0
 8005c7a:	d0f3      	beq.n	8005c64 <prvUnlockQueue+0x44>
					vTaskMissedYield();
 8005c7c:	f000 febe 	bl	80069fc <vTaskMissedYield>
 8005c80:	e7f0      	b.n	8005c64 <prvUnlockQueue+0x44>
		pxQueue->cRxLock = queueUNLOCKED;
 8005c82:	23ff      	movs	r3, #255	@ 0xff
 8005c84:	f885 3044 	strb.w	r3, [r5, #68]	@ 0x44
	taskEXIT_CRITICAL();
 8005c88:	f000 ff9e 	bl	8006bc8 <vPortExitCritical>
}
 8005c8c:	bd38      	pop	{r3, r4, r5, pc}

08005c8e <xQueueGenericReset>:
{
 8005c8e:	b538      	push	{r3, r4, r5, lr}
	configASSERT( pxQueue );
 8005c90:	b1e0      	cbz	r0, 8005ccc <xQueueGenericReset+0x3e>
 8005c92:	460d      	mov	r5, r1
 8005c94:	4604      	mov	r4, r0
	taskENTER_CRITICAL();
 8005c96:	f000 ff75 	bl	8006b84 <vPortEnterCritical>
		pxQueue->u.xQueue.pcTail = pxQueue->pcHead + ( pxQueue->uxLength * pxQueue->uxItemSize ); /*lint !e9016 Pointer arithmetic allowed on char types, especially when it assists conveying intent. */
 8005c9a:	6823      	ldr	r3, [r4, #0]
 8005c9c:	6be2      	ldr	r2, [r4, #60]	@ 0x3c
 8005c9e:	6c21      	ldr	r1, [r4, #64]	@ 0x40
 8005ca0:	fb01 3002 	mla	r0, r1, r2, r3
 8005ca4:	60a0      	str	r0, [r4, #8]
		pxQueue->uxMessagesWaiting = ( UBaseType_t ) 0U;
 8005ca6:	2000      	movs	r0, #0
 8005ca8:	63a0      	str	r0, [r4, #56]	@ 0x38
		pxQueue->pcWriteTo = pxQueue->pcHead;
 8005caa:	6063      	str	r3, [r4, #4]
		pxQueue->u.xQueue.pcReadFrom = pxQueue->pcHead + ( ( pxQueue->uxLength - 1U ) * pxQueue->uxItemSize ); /*lint !e9016 Pointer arithmetic allowed on char types, especially when it assists conveying intent. */
 8005cac:	3a01      	subs	r2, #1
 8005cae:	fb02 3301 	mla	r3, r2, r1, r3
 8005cb2:	60e3      	str	r3, [r4, #12]
		pxQueue->cRxLock = queueUNLOCKED;
 8005cb4:	23ff      	movs	r3, #255	@ 0xff
 8005cb6:	f884 3044 	strb.w	r3, [r4, #68]	@ 0x44
		pxQueue->cTxLock = queueUNLOCKED;
 8005cba:	f884 3045 	strb.w	r3, [r4, #69]	@ 0x45
		if( xNewQueue == pdFALSE )
 8005cbe:	b9fd      	cbnz	r5, 8005d00 <xQueueGenericReset+0x72>
			if( listLIST_IS_EMPTY( &( pxQueue->xTasksWaitingToSend ) ) == pdFALSE )
 8005cc0:	6923      	ldr	r3, [r4, #16]
 8005cc2:	b963      	cbnz	r3, 8005cde <xQueueGenericReset+0x50>
	taskEXIT_CRITICAL();
 8005cc4:	f000 ff80 	bl	8006bc8 <vPortExitCritical>
}
 8005cc8:	2001      	movs	r0, #1
 8005cca:	bd38      	pop	{r3, r4, r5, pc}

portFORCE_INLINE static void vPortRaiseBASEPRI( void )
{
uint32_t ulNewBASEPRI;

	__asm volatile
 8005ccc:	f04f 0350 	mov.w	r3, #80	@ 0x50
 8005cd0:	f383 8811 	msr	BASEPRI, r3
 8005cd4:	f3bf 8f6f 	isb	sy
 8005cd8:	f3bf 8f4f 	dsb	sy
	configASSERT( pxQueue );
 8005cdc:	e7fe      	b.n	8005cdc <xQueueGenericReset+0x4e>
				if( xTaskRemoveFromEventList( &( pxQueue->xTasksWaitingToSend ) ) != pdFALSE )
 8005cde:	f104 0010 	add.w	r0, r4, #16
 8005ce2:	f000 fdf7 	bl	80068d4 <xTaskRemoveFromEventList>
 8005ce6:	2800      	cmp	r0, #0
 8005ce8:	d0ec      	beq.n	8005cc4 <xQueueGenericReset+0x36>
					queueYIELD_IF_USING_PREEMPTION();
 8005cea:	f04f 23e0 	mov.w	r3, #3758153728	@ 0xe000e000
 8005cee:	f04f 5280 	mov.w	r2, #268435456	@ 0x10000000
 8005cf2:	f8c3 2d04 	str.w	r2, [r3, #3332]	@ 0xd04
 8005cf6:	f3bf 8f4f 	dsb	sy
 8005cfa:	f3bf 8f6f 	isb	sy
 8005cfe:	e7e1      	b.n	8005cc4 <xQueueGenericReset+0x36>
			vListInitialise( &( pxQueue->xTasksWaitingToSend ) );
 8005d00:	f104 0010 	add.w	r0, r4, #16
 8005d04:	f7ff fede 	bl	8005ac4 <vListInitialise>
			vListInitialise( &( pxQueue->xTasksWaitingToReceive ) );
 8005d08:	f104 0024 	add.w	r0, r4, #36	@ 0x24
 8005d0c:	f7ff feda 	bl	8005ac4 <vListInitialise>
 8005d10:	e7d8      	b.n	8005cc4 <xQueueGenericReset+0x36>

08005d12 <prvInitialiseNewQueue>:
{
 8005d12:	b510      	push	{r4, lr}
 8005d14:	4603      	mov	r3, r0
 8005d16:	9802      	ldr	r0, [sp, #8]
	if( uxItemSize == ( UBaseType_t ) 0 )
 8005d18:	460c      	mov	r4, r1
 8005d1a:	b931      	cbnz	r1, 8005d2a <prvInitialiseNewQueue+0x18>
		pxNewQueue->pcHead = ( int8_t * ) pxNewQueue;
 8005d1c:	6000      	str	r0, [r0, #0]
	pxNewQueue->uxLength = uxQueueLength;
 8005d1e:	63c3      	str	r3, [r0, #60]	@ 0x3c
	pxNewQueue->uxItemSize = uxItemSize;
 8005d20:	6404      	str	r4, [r0, #64]	@ 0x40
	( void ) xQueueGenericReset( pxNewQueue, pdTRUE );
 8005d22:	2101      	movs	r1, #1
 8005d24:	f7ff ffb3 	bl	8005c8e <xQueueGenericReset>
}
 8005d28:	bd10      	pop	{r4, pc}
		pxNewQueue->pcHead = ( int8_t * ) pucQueueStorage;
 8005d2a:	6002      	str	r2, [r0, #0]
 8005d2c:	e7f7      	b.n	8005d1e <prvInitialiseNewQueue+0xc>

08005d2e <xQueueGenericCreateStatic>:
		configASSERT( uxQueueLength > ( UBaseType_t ) 0 );
 8005d2e:	b940      	cbnz	r0, 8005d42 <xQueueGenericCreateStatic+0x14>
 8005d30:	f04f 0350 	mov.w	r3, #80	@ 0x50
 8005d34:	f383 8811 	msr	BASEPRI, r3
 8005d38:	f3bf 8f6f 	isb	sy
 8005d3c:	f3bf 8f4f 	dsb	sy
 8005d40:	e7fe      	b.n	8005d40 <xQueueGenericCreateStatic+0x12>
	{
 8005d42:	b510      	push	{r4, lr}
 8005d44:	b084      	sub	sp, #16
 8005d46:	461c      	mov	r4, r3
 8005d48:	4684      	mov	ip, r0
		configASSERT( pxStaticQueue != NULL );
 8005d4a:	b153      	cbz	r3, 8005d62 <xQueueGenericCreateStatic+0x34>
		configASSERT( !( ( pucQueueStorage != NULL ) && ( uxItemSize == 0 ) ) );
 8005d4c:	b192      	cbz	r2, 8005d74 <xQueueGenericCreateStatic+0x46>
 8005d4e:	b989      	cbnz	r1, 8005d74 <xQueueGenericCreateStatic+0x46>
 8005d50:	f04f 0350 	mov.w	r3, #80	@ 0x50
 8005d54:	f383 8811 	msr	BASEPRI, r3
 8005d58:	f3bf 8f6f 	isb	sy
 8005d5c:	f3bf 8f4f 	dsb	sy
 8005d60:	e7fe      	b.n	8005d60 <xQueueGenericCreateStatic+0x32>
 8005d62:	f04f 0350 	mov.w	r3, #80	@ 0x50
 8005d66:	f383 8811 	msr	BASEPRI, r3
 8005d6a:	f3bf 8f6f 	isb	sy
 8005d6e:	f3bf 8f4f 	dsb	sy
		configASSERT( pxStaticQueue != NULL );
 8005d72:	e7fe      	b.n	8005d72 <xQueueGenericCreateStatic+0x44>
		configASSERT( !( ( pucQueueStorage == NULL ) && ( uxItemSize != 0 ) ) );
 8005d74:	b16a      	cbz	r2, 8005d92 <xQueueGenericCreateStatic+0x64>
			volatile size_t xSize = sizeof( StaticQueue_t );
 8005d76:	2348      	movs	r3, #72	@ 0x48
 8005d78:	9303      	str	r3, [sp, #12]
			configASSERT( xSize == sizeof( Queue_t ) );
 8005d7a:	9b03      	ldr	r3, [sp, #12]
 8005d7c:	2b48      	cmp	r3, #72	@ 0x48
 8005d7e:	d013      	beq.n	8005da8 <xQueueGenericCreateStatic+0x7a>
 8005d80:	f04f 0350 	mov.w	r3, #80	@ 0x50
 8005d84:	f383 8811 	msr	BASEPRI, r3
 8005d88:	f3bf 8f6f 	isb	sy
 8005d8c:	f3bf 8f4f 	dsb	sy
 8005d90:	e7fe      	b.n	8005d90 <xQueueGenericCreateStatic+0x62>
		configASSERT( !( ( pucQueueStorage == NULL ) && ( uxItemSize != 0 ) ) );
 8005d92:	2900      	cmp	r1, #0
 8005d94:	d0ef      	beq.n	8005d76 <xQueueGenericCreateStatic+0x48>
 8005d96:	f04f 0350 	mov.w	r3, #80	@ 0x50
 8005d9a:	f383 8811 	msr	BASEPRI, r3
 8005d9e:	f3bf 8f6f 	isb	sy
 8005da2:	f3bf 8f4f 	dsb	sy
 8005da6:	e7fe      	b.n	8005da6 <xQueueGenericCreateStatic+0x78>
			( void ) xSize; /* Keeps lint quiet when configASSERT() is not defined. */
 8005da8:	9b03      	ldr	r3, [sp, #12]
				pxNewQueue->ucStaticallyAllocated = pdTRUE;
 8005daa:	2301      	movs	r3, #1
 8005dac:	f884 3046 	strb.w	r3, [r4, #70]	@ 0x46
			prvInitialiseNewQueue( uxQueueLength, uxItemSize, pucQueueStorage, ucQueueType, pxNewQueue );
 8005db0:	9400      	str	r4, [sp, #0]
 8005db2:	f89d 3018 	ldrb.w	r3, [sp, #24]
 8005db6:	4660      	mov	r0, ip
 8005db8:	f7ff ffab 	bl	8005d12 <prvInitialiseNewQueue>
	}
 8005dbc:	4620      	mov	r0, r4
 8005dbe:	b004      	add	sp, #16
 8005dc0:	bd10      	pop	{r4, pc}

08005dc2 <xQueueGenericCreate>:
		configASSERT( uxQueueLength > ( UBaseType_t ) 0 );
 8005dc2:	b940      	cbnz	r0, 8005dd6 <xQueueGenericCreate+0x14>
 8005dc4:	f04f 0350 	mov.w	r3, #80	@ 0x50
 8005dc8:	f383 8811 	msr	BASEPRI, r3
 8005dcc:	f3bf 8f6f 	isb	sy
 8005dd0:	f3bf 8f4f 	dsb	sy
 8005dd4:	e7fe      	b.n	8005dd4 <xQueueGenericCreate+0x12>
	{
 8005dd6:	b5f0      	push	{r4, r5, r6, r7, lr}
 8005dd8:	b083      	sub	sp, #12
 8005dda:	460d      	mov	r5, r1
 8005ddc:	4614      	mov	r4, r2
 8005dde:	4606      	mov	r6, r0
		xQueueSizeInBytes = ( size_t ) ( uxQueueLength * uxItemSize ); /*lint !e961 MISRA exception as the casts are only redundant for some ports. */
 8005de0:	fb01 f000 	mul.w	r0, r1, r0
		pxNewQueue = ( Queue_t * ) pvPortMalloc( sizeof( Queue_t ) + xQueueSizeInBytes ); /*lint !e9087 !e9079 see comment above. */
 8005de4:	3048      	adds	r0, #72	@ 0x48
 8005de6:	f001 f819 	bl	8006e1c <pvPortMalloc>
		if( pxNewQueue != NULL )
 8005dea:	4607      	mov	r7, r0
 8005dec:	b150      	cbz	r0, 8005e04 <xQueueGenericCreate+0x42>
				pxNewQueue->ucStaticallyAllocated = pdFALSE;
 8005dee:	2300      	movs	r3, #0
 8005df0:	f880 3046 	strb.w	r3, [r0, #70]	@ 0x46
			prvInitialiseNewQueue( uxQueueLength, uxItemSize, pucQueueStorage, ucQueueType, pxNewQueue );
 8005df4:	9000      	str	r0, [sp, #0]
 8005df6:	4623      	mov	r3, r4
 8005df8:	f100 0248 	add.w	r2, r0, #72	@ 0x48
 8005dfc:	4629      	mov	r1, r5
 8005dfe:	4630      	mov	r0, r6
 8005e00:	f7ff ff87 	bl	8005d12 <prvInitialiseNewQueue>
	}
 8005e04:	4638      	mov	r0, r7
 8005e06:	b003      	add	sp, #12
 8005e08:	bdf0      	pop	{r4, r5, r6, r7, pc}

08005e0a <xQueueGenericSend>:
{
 8005e0a:	b5f0      	push	{r4, r5, r6, r7, lr}
 8005e0c:	b085      	sub	sp, #20
 8005e0e:	9201      	str	r2, [sp, #4]
	configASSERT( pxQueue );
 8005e10:	b188      	cbz	r0, 8005e36 <xQueueGenericSend+0x2c>
 8005e12:	460f      	mov	r7, r1
 8005e14:	461d      	mov	r5, r3
 8005e16:	4604      	mov	r4, r0
	configASSERT( !( ( pvItemToQueue == NULL ) && ( pxQueue->uxItemSize != ( UBaseType_t ) 0U ) ) );
 8005e18:	b1b1      	cbz	r1, 8005e48 <xQueueGenericSend+0x3e>
	configASSERT( !( ( xCopyPosition == queueOVERWRITE ) && ( pxQueue->uxLength != 1 ) ) );
 8005e1a:	2d02      	cmp	r5, #2
 8005e1c:	d120      	bne.n	8005e60 <xQueueGenericSend+0x56>
 8005e1e:	6be3      	ldr	r3, [r4, #60]	@ 0x3c
 8005e20:	2b01      	cmp	r3, #1
 8005e22:	d01d      	beq.n	8005e60 <xQueueGenericSend+0x56>
 8005e24:	f04f 0350 	mov.w	r3, #80	@ 0x50
 8005e28:	f383 8811 	msr	BASEPRI, r3
 8005e2c:	f3bf 8f6f 	isb	sy
 8005e30:	f3bf 8f4f 	dsb	sy
 8005e34:	e7fe      	b.n	8005e34 <xQueueGenericSend+0x2a>
 8005e36:	f04f 0350 	mov.w	r3, #80	@ 0x50
 8005e3a:	f383 8811 	msr	BASEPRI, r3
 8005e3e:	f3bf 8f6f 	isb	sy
 8005e42:	f3bf 8f4f 	dsb	sy
	configASSERT( pxQueue );
 8005e46:	e7fe      	b.n	8005e46 <xQueueGenericSend+0x3c>
	configASSERT( !( ( pvItemToQueue == NULL ) && ( pxQueue->uxItemSize != ( UBaseType_t ) 0U ) ) );
 8005e48:	6c03      	ldr	r3, [r0, #64]	@ 0x40
 8005e4a:	2b00      	cmp	r3, #0
 8005e4c:	d0e5      	beq.n	8005e1a <xQueueGenericSend+0x10>
 8005e4e:	f04f 0350 	mov.w	r3, #80	@ 0x50
 8005e52:	f383 8811 	msr	BASEPRI, r3
 8005e56:	f3bf 8f6f 	isb	sy
 8005e5a:	f3bf 8f4f 	dsb	sy
 8005e5e:	e7fe      	b.n	8005e5e <xQueueGenericSend+0x54>
		configASSERT( !( ( xTaskGetSchedulerState() == taskSCHEDULER_SUSPENDED ) && ( xTicksToWait != 0 ) ) );
 8005e60:	f000 fdd2 	bl	8006a08 <xTaskGetSchedulerState>
 8005e64:	4606      	mov	r6, r0
 8005e66:	b958      	cbnz	r0, 8005e80 <xQueueGenericSend+0x76>
 8005e68:	9b01      	ldr	r3, [sp, #4]
 8005e6a:	2b00      	cmp	r3, #0
 8005e6c:	d048      	beq.n	8005f00 <xQueueGenericSend+0xf6>
 8005e6e:	f04f 0350 	mov.w	r3, #80	@ 0x50
 8005e72:	f383 8811 	msr	BASEPRI, r3
 8005e76:	f3bf 8f6f 	isb	sy
 8005e7a:	f3bf 8f4f 	dsb	sy
 8005e7e:	e7fe      	b.n	8005e7e <xQueueGenericSend+0x74>
 8005e80:	2600      	movs	r6, #0
 8005e82:	e03d      	b.n	8005f00 <xQueueGenericSend+0xf6>
					xYieldRequired = prvCopyDataToQueue( pxQueue, pvItemToQueue, xCopyPosition );
 8005e84:	462a      	mov	r2, r5
 8005e86:	4639      	mov	r1, r7
 8005e88:	4620      	mov	r0, r4
 8005e8a:	f7ff fe7c 	bl	8005b86 <prvCopyDataToQueue>
					if( listLIST_IS_EMPTY( &( pxQueue->xTasksWaitingToReceive ) ) == pdFALSE )
 8005e8e:	6a63      	ldr	r3, [r4, #36]	@ 0x24
 8005e90:	b97b      	cbnz	r3, 8005eb2 <xQueueGenericSend+0xa8>
					else if( xYieldRequired != pdFALSE )
 8005e92:	b148      	cbz	r0, 8005ea8 <xQueueGenericSend+0x9e>
						queueYIELD_IF_USING_PREEMPTION();
 8005e94:	f04f 23e0 	mov.w	r3, #3758153728	@ 0xe000e000
 8005e98:	f04f 5280 	mov.w	r2, #268435456	@ 0x10000000
 8005e9c:	f8c3 2d04 	str.w	r2, [r3, #3332]	@ 0xd04
 8005ea0:	f3bf 8f4f 	dsb	sy
 8005ea4:	f3bf 8f6f 	isb	sy
				taskEXIT_CRITICAL();
 8005ea8:	f000 fe8e 	bl	8006bc8 <vPortExitCritical>
				return pdPASS;
 8005eac:	2001      	movs	r0, #1
}
 8005eae:	b005      	add	sp, #20
 8005eb0:	bdf0      	pop	{r4, r5, r6, r7, pc}
						if( xTaskRemoveFromEventList( &( pxQueue->xTasksWaitingToReceive ) ) != pdFALSE )
 8005eb2:	f104 0024 	add.w	r0, r4, #36	@ 0x24
 8005eb6:	f000 fd0d 	bl	80068d4 <xTaskRemoveFromEventList>
 8005eba:	2800      	cmp	r0, #0
 8005ebc:	d0f4      	beq.n	8005ea8 <xQueueGenericSend+0x9e>
							queueYIELD_IF_USING_PREEMPTION();
 8005ebe:	f04f 23e0 	mov.w	r3, #3758153728	@ 0xe000e000
 8005ec2:	f04f 5280 	mov.w	r2, #268435456	@ 0x10000000
 8005ec6:	f8c3 2d04 	str.w	r2, [r3, #3332]	@ 0xd04
 8005eca:	f3bf 8f4f 	dsb	sy
 8005ece:	f3bf 8f6f 	isb	sy
 8005ed2:	e7e9      	b.n	8005ea8 <xQueueGenericSend+0x9e>
					taskEXIT_CRITICAL();
 8005ed4:	f000 fe78 	bl	8006bc8 <vPortExitCritical>
					return errQUEUE_FULL;
 8005ed8:	2000      	movs	r0, #0
 8005eda:	e7e8      	b.n	8005eae <xQueueGenericSend+0xa4>
					vTaskInternalSetTimeOutState( &xTimeOut );
 8005edc:	a802      	add	r0, sp, #8
 8005ede:	f000 fd3f 	bl	8006960 <vTaskInternalSetTimeOutState>
					xEntryTimeSet = pdTRUE;
 8005ee2:	2601      	movs	r6, #1
 8005ee4:	e019      	b.n	8005f1a <xQueueGenericSend+0x110>
		prvLockQueue( pxQueue );
 8005ee6:	2300      	movs	r3, #0
 8005ee8:	f884 3044 	strb.w	r3, [r4, #68]	@ 0x44
 8005eec:	e021      	b.n	8005f32 <xQueueGenericSend+0x128>
 8005eee:	2300      	movs	r3, #0
 8005ef0:	f884 3045 	strb.w	r3, [r4, #69]	@ 0x45
 8005ef4:	e023      	b.n	8005f3e <xQueueGenericSend+0x134>
				prvUnlockQueue( pxQueue );
 8005ef6:	4620      	mov	r0, r4
 8005ef8:	f7ff fe92 	bl	8005c20 <prvUnlockQueue>
				( void ) xTaskResumeAll();
 8005efc:	f000 fbde 	bl	80066bc <xTaskResumeAll>
		taskENTER_CRITICAL();
 8005f00:	f000 fe40 	bl	8006b84 <vPortEnterCritical>
			if( ( pxQueue->uxMessagesWaiting < pxQueue->uxLength ) || ( xCopyPosition == queueOVERWRITE ) )
 8005f04:	6ba2      	ldr	r2, [r4, #56]	@ 0x38
 8005f06:	6be3      	ldr	r3, [r4, #60]	@ 0x3c
 8005f08:	429a      	cmp	r2, r3
 8005f0a:	d3bb      	bcc.n	8005e84 <xQueueGenericSend+0x7a>
 8005f0c:	2d02      	cmp	r5, #2
 8005f0e:	d0b9      	beq.n	8005e84 <xQueueGenericSend+0x7a>
				if( xTicksToWait == ( TickType_t ) 0 )
 8005f10:	9b01      	ldr	r3, [sp, #4]
 8005f12:	2b00      	cmp	r3, #0
 8005f14:	d0de      	beq.n	8005ed4 <xQueueGenericSend+0xca>
				else if( xEntryTimeSet == pdFALSE )
 8005f16:	2e00      	cmp	r6, #0
 8005f18:	d0e0      	beq.n	8005edc <xQueueGenericSend+0xd2>
		taskEXIT_CRITICAL();
 8005f1a:	f000 fe55 	bl	8006bc8 <vPortExitCritical>
		vTaskSuspendAll();
 8005f1e:	f000 fb39 	bl	8006594 <vTaskSuspendAll>
		prvLockQueue( pxQueue );
 8005f22:	f000 fe2f 	bl	8006b84 <vPortEnterCritical>
 8005f26:	f894 2044 	ldrb.w	r2, [r4, #68]	@ 0x44
 8005f2a:	b252      	sxtb	r2, r2
 8005f2c:	f1b2 3fff 	cmp.w	r2, #4294967295
 8005f30:	d0d9      	beq.n	8005ee6 <xQueueGenericSend+0xdc>
 8005f32:	f894 2045 	ldrb.w	r2, [r4, #69]	@ 0x45
 8005f36:	b252      	sxtb	r2, r2
 8005f38:	f1b2 3fff 	cmp.w	r2, #4294967295
 8005f3c:	d0d7      	beq.n	8005eee <xQueueGenericSend+0xe4>
 8005f3e:	f000 fe43 	bl	8006bc8 <vPortExitCritical>
		if( xTaskCheckForTimeOut( &xTimeOut, &xTicksToWait ) == pdFALSE )
 8005f42:	a901      	add	r1, sp, #4
 8005f44:	a802      	add	r0, sp, #8
 8005f46:	f000 fd17 	bl	8006978 <xTaskCheckForTimeOut>
 8005f4a:	b9d8      	cbnz	r0, 8005f84 <xQueueGenericSend+0x17a>
			if( prvIsQueueFull( pxQueue ) != pdFALSE )
 8005f4c:	4620      	mov	r0, r4
 8005f4e:	f7ff fdfe 	bl	8005b4e <prvIsQueueFull>
 8005f52:	2800      	cmp	r0, #0
 8005f54:	d0cf      	beq.n	8005ef6 <xQueueGenericSend+0xec>
				vTaskPlaceOnEventList( &( pxQueue->xTasksWaitingToSend ), xTicksToWait );
 8005f56:	9901      	ldr	r1, [sp, #4]
 8005f58:	f104 0010 	add.w	r0, r4, #16
 8005f5c:	f000 fca2 	bl	80068a4 <vTaskPlaceOnEventList>
				prvUnlockQueue( pxQueue );
 8005f60:	4620      	mov	r0, r4
 8005f62:	f7ff fe5d 	bl	8005c20 <prvUnlockQueue>
				if( xTaskResumeAll() == pdFALSE )
 8005f66:	f000 fba9 	bl	80066bc <xTaskResumeAll>
 8005f6a:	2800      	cmp	r0, #0
 8005f6c:	d1c8      	bne.n	8005f00 <xQueueGenericSend+0xf6>
					portYIELD_WITHIN_API();
 8005f6e:	f04f 23e0 	mov.w	r3, #3758153728	@ 0xe000e000
 8005f72:	f04f 5280 	mov.w	r2, #268435456	@ 0x10000000
 8005f76:	f8c3 2d04 	str.w	r2, [r3, #3332]	@ 0xd04
 8005f7a:	f3bf 8f4f 	dsb	sy
 8005f7e:	f3bf 8f6f 	isb	sy
 8005f82:	e7bd      	b.n	8005f00 <xQueueGenericSend+0xf6>
			prvUnlockQueue( pxQueue );
 8005f84:	4620      	mov	r0, r4
 8005f86:	f7ff fe4b 	bl	8005c20 <prvUnlockQueue>
			( void ) xTaskResumeAll();
 8005f8a:	f000 fb97 	bl	80066bc <xTaskResumeAll>
			return errQUEUE_FULL;
 8005f8e:	2000      	movs	r0, #0
 8005f90:	e78d      	b.n	8005eae <xQueueGenericSend+0xa4>

08005f92 <xQueueReceive>:
{
 8005f92:	b5f0      	push	{r4, r5, r6, r7, lr}
 8005f94:	b085      	sub	sp, #20
 8005f96:	9201      	str	r2, [sp, #4]
	configASSERT( ( pxQueue ) );
 8005f98:	b190      	cbz	r0, 8005fc0 <xQueueReceive+0x2e>
 8005f9a:	460f      	mov	r7, r1
 8005f9c:	4604      	mov	r4, r0
	configASSERT( !( ( ( pvBuffer ) == NULL ) && ( ( pxQueue )->uxItemSize != ( UBaseType_t ) 0U ) ) );
 8005f9e:	b1c1      	cbz	r1, 8005fd2 <xQueueReceive+0x40>
		configASSERT( !( ( xTaskGetSchedulerState() == taskSCHEDULER_SUSPENDED ) && ( xTicksToWait != 0 ) ) );
 8005fa0:	f000 fd32 	bl	8006a08 <xTaskGetSchedulerState>
 8005fa4:	4606      	mov	r6, r0
 8005fa6:	bb00      	cbnz	r0, 8005fea <xQueueReceive+0x58>
 8005fa8:	9b01      	ldr	r3, [sp, #4]
 8005faa:	2b00      	cmp	r3, #0
 8005fac:	d05e      	beq.n	800606c <xQueueReceive+0xda>
 8005fae:	f04f 0350 	mov.w	r3, #80	@ 0x50
 8005fb2:	f383 8811 	msr	BASEPRI, r3
 8005fb6:	f3bf 8f6f 	isb	sy
 8005fba:	f3bf 8f4f 	dsb	sy
 8005fbe:	e7fe      	b.n	8005fbe <xQueueReceive+0x2c>
 8005fc0:	f04f 0350 	mov.w	r3, #80	@ 0x50
 8005fc4:	f383 8811 	msr	BASEPRI, r3
 8005fc8:	f3bf 8f6f 	isb	sy
 8005fcc:	f3bf 8f4f 	dsb	sy
	configASSERT( ( pxQueue ) );
 8005fd0:	e7fe      	b.n	8005fd0 <xQueueReceive+0x3e>
	configASSERT( !( ( ( pvBuffer ) == NULL ) && ( ( pxQueue )->uxItemSize != ( UBaseType_t ) 0U ) ) );
 8005fd2:	6c03      	ldr	r3, [r0, #64]	@ 0x40
 8005fd4:	2b00      	cmp	r3, #0
 8005fd6:	d0e3      	beq.n	8005fa0 <xQueueReceive+0xe>
 8005fd8:	f04f 0350 	mov.w	r3, #80	@ 0x50
 8005fdc:	f383 8811 	msr	BASEPRI, r3
 8005fe0:	f3bf 8f6f 	isb	sy
 8005fe4:	f3bf 8f4f 	dsb	sy
 8005fe8:	e7fe      	b.n	8005fe8 <xQueueReceive+0x56>
 8005fea:	2600      	movs	r6, #0
 8005fec:	e03e      	b.n	800606c <xQueueReceive+0xda>
				prvCopyDataFromQueue( pxQueue, pvBuffer );
 8005fee:	4639      	mov	r1, r7
 8005ff0:	4620      	mov	r0, r4
 8005ff2:	f7ff fe03 	bl	8005bfc <prvCopyDataFromQueue>
				pxQueue->uxMessagesWaiting = uxMessagesWaiting - ( UBaseType_t ) 1;
 8005ff6:	3d01      	subs	r5, #1
 8005ff8:	63a5      	str	r5, [r4, #56]	@ 0x38
				if( listLIST_IS_EMPTY( &( pxQueue->xTasksWaitingToSend ) ) == pdFALSE )
 8005ffa:	6923      	ldr	r3, [r4, #16]
 8005ffc:	b923      	cbnz	r3, 8006008 <xQueueReceive+0x76>
				taskEXIT_CRITICAL();
 8005ffe:	f000 fde3 	bl	8006bc8 <vPortExitCritical>
				return pdPASS;
 8006002:	2001      	movs	r0, #1
}
 8006004:	b005      	add	sp, #20
 8006006:	bdf0      	pop	{r4, r5, r6, r7, pc}
					if( xTaskRemoveFromEventList( &( pxQueue->xTasksWaitingToSend ) ) != pdFALSE )
 8006008:	f104 0010 	add.w	r0, r4, #16
 800600c:	f000 fc62 	bl	80068d4 <xTaskRemoveFromEventList>
 8006010:	2800      	cmp	r0, #0
 8006012:	d0f4      	beq.n	8005ffe <xQueueReceive+0x6c>
						queueYIELD_IF_USING_PREEMPTION();
 8006014:	f04f 23e0 	mov.w	r3, #3758153728	@ 0xe000e000
 8006018:	f04f 5280 	mov.w	r2, #268435456	@ 0x10000000
 800601c:	f8c3 2d04 	str.w	r2, [r3, #3332]	@ 0xd04
 8006020:	f3bf 8f4f 	dsb	sy
 8006024:	f3bf 8f6f 	isb	sy
 8006028:	e7e9      	b.n	8005ffe <xQueueReceive+0x6c>
					taskEXIT_CRITICAL();
 800602a:	f000 fdcd 	bl	8006bc8 <vPortExitCritical>
					return errQUEUE_EMPTY;
 800602e:	2000      	movs	r0, #0
 8006030:	e7e8      	b.n	8006004 <xQueueReceive+0x72>
					vTaskInternalSetTimeOutState( &xTimeOut );
 8006032:	a802      	add	r0, sp, #8
 8006034:	f000 fc94 	bl	8006960 <vTaskInternalSetTimeOutState>
					xEntryTimeSet = pdTRUE;
 8006038:	2601      	movs	r6, #1
 800603a:	e021      	b.n	8006080 <xQueueReceive+0xee>
		prvLockQueue( pxQueue );
 800603c:	2300      	movs	r3, #0
 800603e:	f884 3044 	strb.w	r3, [r4, #68]	@ 0x44
 8006042:	e029      	b.n	8006098 <xQueueReceive+0x106>
 8006044:	2300      	movs	r3, #0
 8006046:	f884 3045 	strb.w	r3, [r4, #69]	@ 0x45
 800604a:	e02b      	b.n	80060a4 <xQueueReceive+0x112>
				prvUnlockQueue( pxQueue );
 800604c:	4620      	mov	r0, r4
 800604e:	f7ff fde7 	bl	8005c20 <prvUnlockQueue>
				( void ) xTaskResumeAll();
 8006052:	f000 fb33 	bl	80066bc <xTaskResumeAll>
 8006056:	e009      	b.n	800606c <xQueueReceive+0xda>
			prvUnlockQueue( pxQueue );
 8006058:	4620      	mov	r0, r4
 800605a:	f7ff fde1 	bl	8005c20 <prvUnlockQueue>
			( void ) xTaskResumeAll();
 800605e:	f000 fb2d 	bl	80066bc <xTaskResumeAll>
			if( prvIsQueueEmpty( pxQueue ) != pdFALSE )
 8006062:	4620      	mov	r0, r4
 8006064:	f7ff fd82 	bl	8005b6c <prvIsQueueEmpty>
 8006068:	2800      	cmp	r0, #0
 800606a:	d13f      	bne.n	80060ec <xQueueReceive+0x15a>
		taskENTER_CRITICAL();
 800606c:	f000 fd8a 	bl	8006b84 <vPortEnterCritical>
			const UBaseType_t uxMessagesWaiting = pxQueue->uxMessagesWaiting;
 8006070:	6ba5      	ldr	r5, [r4, #56]	@ 0x38
			if( uxMessagesWaiting > ( UBaseType_t ) 0 )
 8006072:	2d00      	cmp	r5, #0
 8006074:	d1bb      	bne.n	8005fee <xQueueReceive+0x5c>
				if( xTicksToWait == ( TickType_t ) 0 )
 8006076:	9b01      	ldr	r3, [sp, #4]
 8006078:	2b00      	cmp	r3, #0
 800607a:	d0d6      	beq.n	800602a <xQueueReceive+0x98>
				else if( xEntryTimeSet == pdFALSE )
 800607c:	2e00      	cmp	r6, #0
 800607e:	d0d8      	beq.n	8006032 <xQueueReceive+0xa0>
		taskEXIT_CRITICAL();
 8006080:	f000 fda2 	bl	8006bc8 <vPortExitCritical>
		vTaskSuspendAll();
 8006084:	f000 fa86 	bl	8006594 <vTaskSuspendAll>
		prvLockQueue( pxQueue );
 8006088:	f000 fd7c 	bl	8006b84 <vPortEnterCritical>
 800608c:	f894 3044 	ldrb.w	r3, [r4, #68]	@ 0x44
 8006090:	b25b      	sxtb	r3, r3
 8006092:	f1b3 3fff 	cmp.w	r3, #4294967295
 8006096:	d0d1      	beq.n	800603c <xQueueReceive+0xaa>
 8006098:	f894 3045 	ldrb.w	r3, [r4, #69]	@ 0x45
 800609c:	b25b      	sxtb	r3, r3
 800609e:	f1b3 3fff 	cmp.w	r3, #4294967295
 80060a2:	d0cf      	beq.n	8006044 <xQueueReceive+0xb2>
 80060a4:	f000 fd90 	bl	8006bc8 <vPortExitCritical>
		if( xTaskCheckForTimeOut( &xTimeOut, &xTicksToWait ) == pdFALSE )
 80060a8:	a901      	add	r1, sp, #4
 80060aa:	a802      	add	r0, sp, #8
 80060ac:	f000 fc64 	bl	8006978 <xTaskCheckForTimeOut>
 80060b0:	2800      	cmp	r0, #0
 80060b2:	d1d1      	bne.n	8006058 <xQueueReceive+0xc6>
			if( prvIsQueueEmpty( pxQueue ) != pdFALSE )
 80060b4:	4620      	mov	r0, r4
 80060b6:	f7ff fd59 	bl	8005b6c <prvIsQueueEmpty>
 80060ba:	2800      	cmp	r0, #0
 80060bc:	d0c6      	beq.n	800604c <xQueueReceive+0xba>
				vTaskPlaceOnEventList( &( pxQueue->xTasksWaitingToReceive ), xTicksToWait );
 80060be:	9901      	ldr	r1, [sp, #4]
 80060c0:	f104 0024 	add.w	r0, r4, #36	@ 0x24
 80060c4:	f000 fbee 	bl	80068a4 <vTaskPlaceOnEventList>
				prvUnlockQueue( pxQueue );
 80060c8:	4620      	mov	r0, r4
 80060ca:	f7ff fda9 	bl	8005c20 <prvUnlockQueue>
				if( xTaskResumeAll() == pdFALSE )
 80060ce:	f000 faf5 	bl	80066bc <xTaskResumeAll>
 80060d2:	2800      	cmp	r0, #0
 80060d4:	d1ca      	bne.n	800606c <xQueueReceive+0xda>
					portYIELD_WITHIN_API();
 80060d6:	f04f 23e0 	mov.w	r3, #3758153728	@ 0xe000e000
 80060da:	f04f 5280 	mov.w	r2, #268435456	@ 0x10000000
 80060de:	f8c3 2d04 	str.w	r2, [r3, #3332]	@ 0xd04
 80060e2:	f3bf 8f4f 	dsb	sy
 80060e6:	f3bf 8f6f 	isb	sy
 80060ea:	e7bf      	b.n	800606c <xQueueReceive+0xda>
				return errQUEUE_EMPTY;
 80060ec:	2000      	movs	r0, #0
 80060ee:	e789      	b.n	8006004 <xQueueReceive+0x72>

080060f0 <prvResetNextTaskUnblockTime>:

static void prvResetNextTaskUnblockTime( void )
{
TCB_t *pxTCB;

	if( listLIST_IS_EMPTY( pxDelayedTaskList ) != pdFALSE )
 80060f0:	4b08      	ldr	r3, [pc, #32]	@ (8006114 <prvResetNextTaskUnblockTime+0x24>)
 80060f2:	681b      	ldr	r3, [r3, #0]
 80060f4:	681b      	ldr	r3, [r3, #0]
 80060f6:	b923      	cbnz	r3, 8006102 <prvResetNextTaskUnblockTime+0x12>
	{
		/* The new current delayed list is empty.  Set xNextTaskUnblockTime to
		the maximum possible value so it is	extremely unlikely that the
		if( xTickCount >= xNextTaskUnblockTime ) test will pass until
		there is an item in the delayed list. */
		xNextTaskUnblockTime = portMAX_DELAY;
 80060f8:	4b07      	ldr	r3, [pc, #28]	@ (8006118 <prvResetNextTaskUnblockTime+0x28>)
 80060fa:	f04f 32ff 	mov.w	r2, #4294967295
 80060fe:	601a      	str	r2, [r3, #0]
 8006100:	4770      	bx	lr
	{
		/* The new current delayed list is not empty, get the value of
		the item at the head of the delayed list.  This is the time at
		which the task at the head of the delayed list should be removed
		from the Blocked state. */
		( pxTCB ) = listGET_OWNER_OF_HEAD_ENTRY( pxDelayedTaskList ); /*lint !e9079 void * is used as this macro is used with timers and co-routines too.  Alignment is known to be fine as the type of the pointer stored and retrieved is the same. */
 8006102:	4b04      	ldr	r3, [pc, #16]	@ (8006114 <prvResetNextTaskUnblockTime+0x24>)
 8006104:	681b      	ldr	r3, [r3, #0]
 8006106:	68db      	ldr	r3, [r3, #12]
 8006108:	68db      	ldr	r3, [r3, #12]
		xNextTaskUnblockTime = listGET_LIST_ITEM_VALUE( &( ( pxTCB )->xStateListItem ) );
 800610a:	685a      	ldr	r2, [r3, #4]
 800610c:	4b02      	ldr	r3, [pc, #8]	@ (8006118 <prvResetNextTaskUnblockTime+0x28>)
 800610e:	601a      	str	r2, [r3, #0]
	}
}
 8006110:	4770      	bx	lr
 8006112:	bf00      	nop
 8006114:	200019a0 	.word	0x200019a0
 8006118:	20001938 	.word	0x20001938

0800611c <prvInitialiseNewTask>:
{
 800611c:	e92d 47f0 	stmdb	sp!, {r4, r5, r6, r7, r8, r9, sl, lr}
 8006120:	4607      	mov	r7, r0
 8006122:	4698      	mov	r8, r3
 8006124:	9d08      	ldr	r5, [sp, #32]
 8006126:	f8dd 9024 	ldr.w	r9, [sp, #36]	@ 0x24
 800612a:	9c0a      	ldr	r4, [sp, #40]	@ 0x28
		pxTopOfStack = &( pxNewTCB->pxStack[ ulStackDepth - ( uint32_t ) 1 ] );
 800612c:	6b26      	ldr	r6, [r4, #48]	@ 0x30
 800612e:	f102 4280 	add.w	r2, r2, #1073741824	@ 0x40000000
 8006132:	3a01      	subs	r2, #1
 8006134:	eb06 0682 	add.w	r6, r6, r2, lsl #2
		pxTopOfStack = ( StackType_t * ) ( ( ( portPOINTER_SIZE_TYPE ) pxTopOfStack ) & ( ~( ( portPOINTER_SIZE_TYPE ) portBYTE_ALIGNMENT_MASK ) ) ); /*lint !e923 !e9033 !e9078 MISRA exception.  Avoiding casts between pointers and integers is not practical.  Size differences accounted for using portPOINTER_SIZE_TYPE type.  Checked by assert(). */
 8006138:	f026 0607 	bic.w	r6, r6, #7
	if( pcName != NULL )
 800613c:	2900      	cmp	r1, #0
 800613e:	d044      	beq.n	80061ca <prvInitialiseNewTask+0xae>
 8006140:	4608      	mov	r0, r1
		for( x = ( UBaseType_t ) 0; x < ( UBaseType_t ) configMAX_TASK_NAME_LEN; x++ )
 8006142:	f04f 0c00 	mov.w	ip, #0
 8006146:	f1bc 0f0f 	cmp.w	ip, #15
 800614a:	d809      	bhi.n	8006160 <prvInitialiseNewTask+0x44>
			pxNewTCB->pcTaskName[ x ] = pcName[ x ];
 800614c:	f810 200c 	ldrb.w	r2, [r0, ip]
 8006150:	eb04 030c 	add.w	r3, r4, ip
 8006154:	f883 2034 	strb.w	r2, [r3, #52]	@ 0x34
			if( pcName[ x ] == ( char ) 0x00 )
 8006158:	b112      	cbz	r2, 8006160 <prvInitialiseNewTask+0x44>
		for( x = ( UBaseType_t ) 0; x < ( UBaseType_t ) configMAX_TASK_NAME_LEN; x++ )
 800615a:	f10c 0c01 	add.w	ip, ip, #1
 800615e:	e7f2      	b.n	8006146 <prvInitialiseNewTask+0x2a>
		pxNewTCB->pcTaskName[ configMAX_TASK_NAME_LEN - 1 ] = '\0';
 8006160:	2300      	movs	r3, #0
 8006162:	f884 3043 	strb.w	r3, [r4, #67]	@ 0x43
	if( uxPriority >= ( UBaseType_t ) configMAX_PRIORITIES )
 8006166:	2d06      	cmp	r5, #6
 8006168:	d900      	bls.n	800616c <prvInitialiseNewTask+0x50>
		uxPriority = ( UBaseType_t ) configMAX_PRIORITIES - ( UBaseType_t ) 1U;
 800616a:	2506      	movs	r5, #6
	pxNewTCB->uxPriority = uxPriority;
 800616c:	62e5      	str	r5, [r4, #44]	@ 0x2c
		pxNewTCB->uxBasePriority = uxPriority;
 800616e:	6465      	str	r5, [r4, #68]	@ 0x44
		pxNewTCB->uxMutexesHeld = 0;
 8006170:	f04f 0a00 	mov.w	sl, #0
 8006174:	f8c4 a048 	str.w	sl, [r4, #72]	@ 0x48
	vListInitialiseItem( &( pxNewTCB->xStateListItem ) );
 8006178:	1d20      	adds	r0, r4, #4
 800617a:	f7ff fcae 	bl	8005ada <vListInitialiseItem>
	vListInitialiseItem( &( pxNewTCB->xEventListItem ) );
 800617e:	f104 0018 	add.w	r0, r4, #24
 8006182:	f7ff fcaa 	bl	8005ada <vListInitialiseItem>
	listSET_LIST_ITEM_OWNER( &( pxNewTCB->xStateListItem ), pxNewTCB );
 8006186:	6124      	str	r4, [r4, #16]
	listSET_LIST_ITEM_VALUE( &( pxNewTCB->xEventListItem ), ( TickType_t ) configMAX_PRIORITIES - ( TickType_t ) uxPriority ); /*lint !e961 MISRA exception as the casts are only redundant for some ports. */
 8006188:	f1c5 0507 	rsb	r5, r5, #7
 800618c:	61a5      	str	r5, [r4, #24]
	listSET_LIST_ITEM_OWNER( &( pxNewTCB->xEventListItem ), pxNewTCB );
 800618e:	6264      	str	r4, [r4, #36]	@ 0x24
		pxNewTCB->ulNotifiedValue = 0;
 8006190:	f8c4 a098 	str.w	sl, [r4, #152]	@ 0x98
		pxNewTCB->ucNotifyState = taskNOT_WAITING_NOTIFICATION;
 8006194:	f884 a09c 	strb.w	sl, [r4, #156]	@ 0x9c
		_REENT_INIT_PTR( ( &( pxNewTCB->xNewLib_reent ) ) );
 8006198:	224c      	movs	r2, #76	@ 0x4c
 800619a:	4651      	mov	r1, sl
 800619c:	18a0      	adds	r0, r4, r2
 800619e:	f001 f9c5 	bl	800752c <memset>
 80061a2:	4b0c      	ldr	r3, [pc, #48]	@ (80061d4 <prvInitialiseNewTask+0xb8>)
 80061a4:	6523      	str	r3, [r4, #80]	@ 0x50
 80061a6:	f103 0268 	add.w	r2, r3, #104	@ 0x68
 80061aa:	6562      	str	r2, [r4, #84]	@ 0x54
 80061ac:	33d0      	adds	r3, #208	@ 0xd0
 80061ae:	65a3      	str	r3, [r4, #88]	@ 0x58
			pxNewTCB->pxTopOfStack = pxPortInitialiseStack( pxTopOfStack, pxTaskCode, pvParameters );
 80061b0:	4642      	mov	r2, r8
 80061b2:	4639      	mov	r1, r7
 80061b4:	4630      	mov	r0, r6
 80061b6:	f000 fcbf 	bl	8006b38 <pxPortInitialiseStack>
 80061ba:	6020      	str	r0, [r4, #0]
	if( pxCreatedTask != NULL )
 80061bc:	f1b9 0f00 	cmp.w	r9, #0
 80061c0:	d001      	beq.n	80061c6 <prvInitialiseNewTask+0xaa>
		*pxCreatedTask = ( TaskHandle_t ) pxNewTCB;
 80061c2:	f8c9 4000 	str.w	r4, [r9]
}
 80061c6:	e8bd 87f0 	ldmia.w	sp!, {r4, r5, r6, r7, r8, r9, sl, pc}
		pxNewTCB->pcTaskName[ 0 ] = 0x00;
 80061ca:	2300      	movs	r3, #0
 80061cc:	f884 3034 	strb.w	r3, [r4, #52]	@ 0x34
 80061d0:	e7c9      	b.n	8006166 <prvInitialiseNewTask+0x4a>
 80061d2:	bf00      	nop
 80061d4:	200039cc 	.word	0x200039cc

080061d8 <prvInitialiseTaskLists>:
{
 80061d8:	b538      	push	{r3, r4, r5, lr}
	for( uxPriority = ( UBaseType_t ) 0U; uxPriority < ( UBaseType_t ) configMAX_PRIORITIES; uxPriority++ )
 80061da:	2400      	movs	r4, #0
 80061dc:	e007      	b.n	80061ee <prvInitialiseTaskLists+0x16>
		vListInitialise( &( pxReadyTasksLists[ uxPriority ] ) );
 80061de:	eb04 0284 	add.w	r2, r4, r4, lsl #2
 80061e2:	0093      	lsls	r3, r2, #2
 80061e4:	480e      	ldr	r0, [pc, #56]	@ (8006220 <prvInitialiseTaskLists+0x48>)
 80061e6:	4418      	add	r0, r3
 80061e8:	f7ff fc6c 	bl	8005ac4 <vListInitialise>
	for( uxPriority = ( UBaseType_t ) 0U; uxPriority < ( UBaseType_t ) configMAX_PRIORITIES; uxPriority++ )
 80061ec:	3401      	adds	r4, #1
 80061ee:	2c06      	cmp	r4, #6
 80061f0:	d9f5      	bls.n	80061de <prvInitialiseTaskLists+0x6>
	vListInitialise( &xDelayedTaskList1 );
 80061f2:	4d0c      	ldr	r5, [pc, #48]	@ (8006224 <prvInitialiseTaskLists+0x4c>)
 80061f4:	4628      	mov	r0, r5
 80061f6:	f7ff fc65 	bl	8005ac4 <vListInitialise>
	vListInitialise( &xDelayedTaskList2 );
 80061fa:	4c0b      	ldr	r4, [pc, #44]	@ (8006228 <prvInitialiseTaskLists+0x50>)
 80061fc:	4620      	mov	r0, r4
 80061fe:	f7ff fc61 	bl	8005ac4 <vListInitialise>
	vListInitialise( &xPendingReadyList );
 8006202:	480a      	ldr	r0, [pc, #40]	@ (800622c <prvInitialiseTaskLists+0x54>)
 8006204:	f7ff fc5e 	bl	8005ac4 <vListInitialise>
		vListInitialise( &xTasksWaitingTermination );
 8006208:	4809      	ldr	r0, [pc, #36]	@ (8006230 <prvInitialiseTaskLists+0x58>)
 800620a:	f7ff fc5b 	bl	8005ac4 <vListInitialise>
		vListInitialise( &xSuspendedTaskList );
 800620e:	4809      	ldr	r0, [pc, #36]	@ (8006234 <prvInitialiseTaskLists+0x5c>)
 8006210:	f7ff fc58 	bl	8005ac4 <vListInitialise>
	pxDelayedTaskList = &xDelayedTaskList1;
 8006214:	4b08      	ldr	r3, [pc, #32]	@ (8006238 <prvInitialiseTaskLists+0x60>)
 8006216:	601d      	str	r5, [r3, #0]
	pxOverflowDelayedTaskList = &xDelayedTaskList2;
 8006218:	4b08      	ldr	r3, [pc, #32]	@ (800623c <prvInitialiseTaskLists+0x64>)
 800621a:	601c      	str	r4, [r3, #0]
}
 800621c:	bd38      	pop	{r3, r4, r5, pc}
 800621e:	bf00      	nop
 8006220:	200019cc 	.word	0x200019cc
 8006224:	200019b8 	.word	0x200019b8
 8006228:	200019a4 	.word	0x200019a4
 800622c:	20001988 	.word	0x20001988
 8006230:	20001974 	.word	0x20001974
 8006234:	2000195c 	.word	0x2000195c
 8006238:	200019a0 	.word	0x200019a0
 800623c:	2000199c 	.word	0x2000199c

08006240 <prvAddNewTaskToReadyList>:
{
 8006240:	b510      	push	{r4, lr}
 8006242:	4604      	mov	r4, r0
	taskENTER_CRITICAL();
 8006244:	f000 fc9e 	bl	8006b84 <vPortEnterCritical>
		uxCurrentNumberOfTasks++;
 8006248:	4a21      	ldr	r2, [pc, #132]	@ (80062d0 <prvAddNewTaskToReadyList+0x90>)
 800624a:	6813      	ldr	r3, [r2, #0]
 800624c:	3301      	adds	r3, #1
 800624e:	6013      	str	r3, [r2, #0]
		if( pxCurrentTCB == NULL )
 8006250:	4b20      	ldr	r3, [pc, #128]	@ (80062d4 <prvAddNewTaskToReadyList+0x94>)
 8006252:	681b      	ldr	r3, [r3, #0]
 8006254:	b15b      	cbz	r3, 800626e <prvAddNewTaskToReadyList+0x2e>
			if( xSchedulerRunning == pdFALSE )
 8006256:	4b20      	ldr	r3, [pc, #128]	@ (80062d8 <prvAddNewTaskToReadyList+0x98>)
 8006258:	681b      	ldr	r3, [r3, #0]
 800625a:	b96b      	cbnz	r3, 8006278 <prvAddNewTaskToReadyList+0x38>
				if( pxCurrentTCB->uxPriority <= pxNewTCB->uxPriority )
 800625c:	4b1d      	ldr	r3, [pc, #116]	@ (80062d4 <prvAddNewTaskToReadyList+0x94>)
 800625e:	681b      	ldr	r3, [r3, #0]
 8006260:	6ada      	ldr	r2, [r3, #44]	@ 0x2c
 8006262:	6ae3      	ldr	r3, [r4, #44]	@ 0x2c
 8006264:	429a      	cmp	r2, r3
 8006266:	d807      	bhi.n	8006278 <prvAddNewTaskToReadyList+0x38>
					pxCurrentTCB = pxNewTCB;
 8006268:	4b1a      	ldr	r3, [pc, #104]	@ (80062d4 <prvAddNewTaskToReadyList+0x94>)
 800626a:	601c      	str	r4, [r3, #0]
 800626c:	e004      	b.n	8006278 <prvAddNewTaskToReadyList+0x38>
			pxCurrentTCB = pxNewTCB;
 800626e:	4b19      	ldr	r3, [pc, #100]	@ (80062d4 <prvAddNewTaskToReadyList+0x94>)
 8006270:	601c      	str	r4, [r3, #0]
			if( uxCurrentNumberOfTasks == ( UBaseType_t ) 1 )
 8006272:	6813      	ldr	r3, [r2, #0]
 8006274:	2b01      	cmp	r3, #1
 8006276:	d028      	beq.n	80062ca <prvAddNewTaskToReadyList+0x8a>
		uxTaskNumber++;
 8006278:	4a18      	ldr	r2, [pc, #96]	@ (80062dc <prvAddNewTaskToReadyList+0x9c>)
 800627a:	6813      	ldr	r3, [r2, #0]
 800627c:	3301      	adds	r3, #1
 800627e:	6013      	str	r3, [r2, #0]
		prvAddTaskToReadyList( pxNewTCB );
 8006280:	6ae0      	ldr	r0, [r4, #44]	@ 0x2c
 8006282:	2301      	movs	r3, #1
 8006284:	4083      	lsls	r3, r0
 8006286:	4a16      	ldr	r2, [pc, #88]	@ (80062e0 <prvAddNewTaskToReadyList+0xa0>)
 8006288:	6811      	ldr	r1, [r2, #0]
 800628a:	430b      	orrs	r3, r1
 800628c:	6013      	str	r3, [r2, #0]
 800628e:	eb00 0080 	add.w	r0, r0, r0, lsl #2
 8006292:	1d21      	adds	r1, r4, #4
 8006294:	4b13      	ldr	r3, [pc, #76]	@ (80062e4 <prvAddNewTaskToReadyList+0xa4>)
 8006296:	eb03 0080 	add.w	r0, r3, r0, lsl #2
 800629a:	f7ff fc21 	bl	8005ae0 <vListInsertEnd>
	taskEXIT_CRITICAL();
 800629e:	f000 fc93 	bl	8006bc8 <vPortExitCritical>
	if( xSchedulerRunning != pdFALSE )
 80062a2:	4b0d      	ldr	r3, [pc, #52]	@ (80062d8 <prvAddNewTaskToReadyList+0x98>)
 80062a4:	681b      	ldr	r3, [r3, #0]
 80062a6:	b17b      	cbz	r3, 80062c8 <prvAddNewTaskToReadyList+0x88>
		if( pxCurrentTCB->uxPriority < pxNewTCB->uxPriority )
 80062a8:	4b0a      	ldr	r3, [pc, #40]	@ (80062d4 <prvAddNewTaskToReadyList+0x94>)
 80062aa:	681b      	ldr	r3, [r3, #0]
 80062ac:	6ada      	ldr	r2, [r3, #44]	@ 0x2c
 80062ae:	6ae3      	ldr	r3, [r4, #44]	@ 0x2c
 80062b0:	429a      	cmp	r2, r3
 80062b2:	d209      	bcs.n	80062c8 <prvAddNewTaskToReadyList+0x88>
			taskYIELD_IF_USING_PREEMPTION();
 80062b4:	f04f 23e0 	mov.w	r3, #3758153728	@ 0xe000e000
 80062b8:	f04f 5280 	mov.w	r2, #268435456	@ 0x10000000
 80062bc:	f8c3 2d04 	str.w	r2, [r3, #3332]	@ 0xd04
 80062c0:	f3bf 8f4f 	dsb	sy
 80062c4:	f3bf 8f6f 	isb	sy
}
 80062c8:	bd10      	pop	{r4, pc}
				prvInitialiseTaskLists();
 80062ca:	f7ff ff85 	bl	80061d8 <prvInitialiseTaskLists>
 80062ce:	e7d3      	b.n	8006278 <prvAddNewTaskToReadyList+0x38>
 80062d0:	20001958 	.word	0x20001958
 80062d4:	20001a58 	.word	0x20001a58
 80062d8:	2000194c 	.word	0x2000194c
 80062dc:	2000193c 	.word	0x2000193c
 80062e0:	20001950 	.word	0x20001950
 80062e4:	200019cc 	.word	0x200019cc

080062e8 <prvDeleteTCB>:
	{
 80062e8:	b510      	push	{r4, lr}
 80062ea:	4604      	mov	r4, r0
			_reclaim_reent( &( pxTCB->xNewLib_reent ) );
 80062ec:	304c      	adds	r0, #76	@ 0x4c
 80062ee:	f001 f967 	bl	80075c0 <_reclaim_reent>
			if( pxTCB->ucStaticallyAllocated == tskDYNAMICALLY_ALLOCATED_STACK_AND_TCB )
 80062f2:	f894 309d 	ldrb.w	r3, [r4, #157]	@ 0x9d
 80062f6:	b163      	cbz	r3, 8006312 <prvDeleteTCB+0x2a>
			else if( pxTCB->ucStaticallyAllocated == tskSTATICALLY_ALLOCATED_STACK_ONLY )
 80062f8:	2b01      	cmp	r3, #1
 80062fa:	d011      	beq.n	8006320 <prvDeleteTCB+0x38>
				configASSERT( pxTCB->ucStaticallyAllocated == tskSTATICALLY_ALLOCATED_STACK_AND_TCB	);
 80062fc:	2b02      	cmp	r3, #2
 80062fe:	d00e      	beq.n	800631e <prvDeleteTCB+0x36>
 8006300:	f04f 0350 	mov.w	r3, #80	@ 0x50
 8006304:	f383 8811 	msr	BASEPRI, r3
 8006308:	f3bf 8f6f 	isb	sy
 800630c:	f3bf 8f4f 	dsb	sy
 8006310:	e7fe      	b.n	8006310 <prvDeleteTCB+0x28>
				vPortFree( pxTCB->pxStack );
 8006312:	6b20      	ldr	r0, [r4, #48]	@ 0x30
 8006314:	f000 fe04 	bl	8006f20 <vPortFree>
				vPortFree( pxTCB );
 8006318:	4620      	mov	r0, r4
 800631a:	f000 fe01 	bl	8006f20 <vPortFree>
	}
 800631e:	bd10      	pop	{r4, pc}
				vPortFree( pxTCB );
 8006320:	4620      	mov	r0, r4
 8006322:	f000 fdfd 	bl	8006f20 <vPortFree>
 8006326:	e7fa      	b.n	800631e <prvDeleteTCB+0x36>

08006328 <prvCheckTasksWaitingTermination>:
		while( uxDeletedTasksWaitingCleanUp > ( UBaseType_t ) 0U )
 8006328:	4b0f      	ldr	r3, [pc, #60]	@ (8006368 <prvCheckTasksWaitingTermination+0x40>)
 800632a:	681b      	ldr	r3, [r3, #0]
 800632c:	b1d3      	cbz	r3, 8006364 <prvCheckTasksWaitingTermination+0x3c>
{
 800632e:	b510      	push	{r4, lr}
			taskENTER_CRITICAL();
 8006330:	f000 fc28 	bl	8006b84 <vPortEnterCritical>
				pxTCB = listGET_OWNER_OF_HEAD_ENTRY( ( &xTasksWaitingTermination ) ); /*lint !e9079 void * is used as this macro is used with timers and co-routines too.  Alignment is known to be fine as the type of the pointer stored and retrieved is the same. */
 8006334:	4b0d      	ldr	r3, [pc, #52]	@ (800636c <prvCheckTasksWaitingTermination+0x44>)
 8006336:	68db      	ldr	r3, [r3, #12]
 8006338:	68dc      	ldr	r4, [r3, #12]
				( void ) uxListRemove( &( pxTCB->xStateListItem ) );
 800633a:	1d20      	adds	r0, r4, #4
 800633c:	f7ff fbf4 	bl	8005b28 <uxListRemove>
				--uxCurrentNumberOfTasks;
 8006340:	4a0b      	ldr	r2, [pc, #44]	@ (8006370 <prvCheckTasksWaitingTermination+0x48>)
 8006342:	6813      	ldr	r3, [r2, #0]
 8006344:	3b01      	subs	r3, #1
 8006346:	6013      	str	r3, [r2, #0]
				--uxDeletedTasksWaitingCleanUp;
 8006348:	4a07      	ldr	r2, [pc, #28]	@ (8006368 <prvCheckTasksWaitingTermination+0x40>)
 800634a:	6813      	ldr	r3, [r2, #0]
 800634c:	3b01      	subs	r3, #1
 800634e:	6013      	str	r3, [r2, #0]
			taskEXIT_CRITICAL();
 8006350:	f000 fc3a 	bl	8006bc8 <vPortExitCritical>
			prvDeleteTCB( pxTCB );
 8006354:	4620      	mov	r0, r4
 8006356:	f7ff ffc7 	bl	80062e8 <prvDeleteTCB>
		while( uxDeletedTasksWaitingCleanUp > ( UBaseType_t ) 0U )
 800635a:	4b03      	ldr	r3, [pc, #12]	@ (8006368 <prvCheckTasksWaitingTermination+0x40>)
 800635c:	681b      	ldr	r3, [r3, #0]
 800635e:	2b00      	cmp	r3, #0
 8006360:	d1e6      	bne.n	8006330 <prvCheckTasksWaitingTermination+0x8>
}
 8006362:	bd10      	pop	{r4, pc}
 8006364:	4770      	bx	lr
 8006366:	bf00      	nop
 8006368:	20001970 	.word	0x20001970
 800636c:	20001974 	.word	0x20001974
 8006370:	20001958 	.word	0x20001958

08006374 <prvIdleTask>:
{
 8006374:	b508      	push	{r3, lr}
		prvCheckTasksWaitingTermination();
 8006376:	f7ff ffd7 	bl	8006328 <prvCheckTasksWaitingTermination>
			if( listCURRENT_LIST_LENGTH( &( pxReadyTasksLists[ tskIDLE_PRIORITY ] ) ) > ( UBaseType_t ) 1 )
 800637a:	4b07      	ldr	r3, [pc, #28]	@ (8006398 <prvIdleTask+0x24>)
 800637c:	681b      	ldr	r3, [r3, #0]
 800637e:	2b01      	cmp	r3, #1
 8006380:	d9f9      	bls.n	8006376 <prvIdleTask+0x2>
				taskYIELD();
 8006382:	f04f 23e0 	mov.w	r3, #3758153728	@ 0xe000e000
 8006386:	f04f 5280 	mov.w	r2, #268435456	@ 0x10000000
 800638a:	f8c3 2d04 	str.w	r2, [r3, #3332]	@ 0xd04
 800638e:	f3bf 8f4f 	dsb	sy
 8006392:	f3bf 8f6f 	isb	sy
 8006396:	e7ee      	b.n	8006376 <prvIdleTask+0x2>
 8006398:	200019cc 	.word	0x200019cc

0800639c <prvAddCurrentTaskToDelayedList>:

#endif
/*-----------------------------------------------------------*/

static void prvAddCurrentTaskToDelayedList( TickType_t xTicksToWait, const BaseType_t xCanBlockIndefinitely )
{
 800639c:	b570      	push	{r4, r5, r6, lr}
 800639e:	4604      	mov	r4, r0
 80063a0:	460d      	mov	r5, r1
TickType_t xTimeToWake;
const TickType_t xConstTickCount = xTickCount;
 80063a2:	4b1d      	ldr	r3, [pc, #116]	@ (8006418 <prvAddCurrentTaskToDelayedList+0x7c>)
 80063a4:	681e      	ldr	r6, [r3, #0]
	}
	#endif

	/* Remove the task from the ready list before adding it to the blocked list
	as the same list item is used for both lists. */
	if( uxListRemove( &( pxCurrentTCB->xStateListItem ) ) == ( UBaseType_t ) 0 )
 80063a6:	4b1d      	ldr	r3, [pc, #116]	@ (800641c <prvAddCurrentTaskToDelayedList+0x80>)
 80063a8:	6818      	ldr	r0, [r3, #0]
 80063aa:	3004      	adds	r0, #4
 80063ac:	f7ff fbbc 	bl	8005b28 <uxListRemove>
 80063b0:	b948      	cbnz	r0, 80063c6 <prvAddCurrentTaskToDelayedList+0x2a>
	{
		/* The current task must be in a ready list, so there is no need to
		check, and the port reset macro can be called directly. */
		portRESET_READY_PRIORITY( pxCurrentTCB->uxPriority, uxTopReadyPriority ); /*lint !e931 pxCurrentTCB cannot change as it is the calling task.  pxCurrentTCB->uxPriority and uxTopReadyPriority cannot change as called with scheduler suspended or in a critical section. */
 80063b2:	4b1a      	ldr	r3, [pc, #104]	@ (800641c <prvAddCurrentTaskToDelayedList+0x80>)
 80063b4:	681b      	ldr	r3, [r3, #0]
 80063b6:	6adb      	ldr	r3, [r3, #44]	@ 0x2c
 80063b8:	2201      	movs	r2, #1
 80063ba:	409a      	lsls	r2, r3
 80063bc:	4918      	ldr	r1, [pc, #96]	@ (8006420 <prvAddCurrentTaskToDelayedList+0x84>)
 80063be:	680b      	ldr	r3, [r1, #0]
 80063c0:	ea23 0302 	bic.w	r3, r3, r2
 80063c4:	600b      	str	r3, [r1, #0]
		mtCOVERAGE_TEST_MARKER();
	}

	#if ( INCLUDE_vTaskSuspend == 1 )
	{
		if( ( xTicksToWait == portMAX_DELAY ) && ( xCanBlockIndefinitely != pdFALSE ) )
 80063c6:	f1b4 3fff 	cmp.w	r4, #4294967295
 80063ca:	d00d      	beq.n	80063e8 <prvAddCurrentTaskToDelayedList+0x4c>
		else
		{
			/* Calculate the time at which the task should be woken if the event
			does not occur.  This may overflow but this doesn't matter, the
			kernel will manage it correctly. */
			xTimeToWake = xConstTickCount + xTicksToWait;
 80063cc:	4434      	add	r4, r6

			/* The list item will be inserted in wake time order. */
			listSET_LIST_ITEM_VALUE( &( pxCurrentTCB->xStateListItem ), xTimeToWake );
 80063ce:	4b13      	ldr	r3, [pc, #76]	@ (800641c <prvAddCurrentTaskToDelayedList+0x80>)
 80063d0:	681b      	ldr	r3, [r3, #0]
 80063d2:	605c      	str	r4, [r3, #4]

			if( xTimeToWake < xConstTickCount )
 80063d4:	42a6      	cmp	r6, r4
 80063d6:	d910      	bls.n	80063fa <prvAddCurrentTaskToDelayedList+0x5e>
			{
				/* Wake time has overflowed.  Place this item in the overflow
				list. */
				vListInsert( pxOverflowDelayedTaskList, &( pxCurrentTCB->xStateListItem ) );
 80063d8:	4b12      	ldr	r3, [pc, #72]	@ (8006424 <prvAddCurrentTaskToDelayedList+0x88>)
 80063da:	6818      	ldr	r0, [r3, #0]
 80063dc:	4b0f      	ldr	r3, [pc, #60]	@ (800641c <prvAddCurrentTaskToDelayedList+0x80>)
 80063de:	6819      	ldr	r1, [r3, #0]
 80063e0:	3104      	adds	r1, #4
 80063e2:	f7ff fb88 	bl	8005af6 <vListInsert>

		/* Avoid compiler warning when INCLUDE_vTaskSuspend is not 1. */
		( void ) xCanBlockIndefinitely;
	}
	#endif /* INCLUDE_vTaskSuspend */
}
 80063e6:	bd70      	pop	{r4, r5, r6, pc}
		if( ( xTicksToWait == portMAX_DELAY ) && ( xCanBlockIndefinitely != pdFALSE ) )
 80063e8:	2d00      	cmp	r5, #0
 80063ea:	d0ef      	beq.n	80063cc <prvAddCurrentTaskToDelayedList+0x30>
			vListInsertEnd( &xSuspendedTaskList, &( pxCurrentTCB->xStateListItem ) );
 80063ec:	4b0b      	ldr	r3, [pc, #44]	@ (800641c <prvAddCurrentTaskToDelayedList+0x80>)
 80063ee:	6819      	ldr	r1, [r3, #0]
 80063f0:	3104      	adds	r1, #4
 80063f2:	480d      	ldr	r0, [pc, #52]	@ (8006428 <prvAddCurrentTaskToDelayedList+0x8c>)
 80063f4:	f7ff fb74 	bl	8005ae0 <vListInsertEnd>
 80063f8:	e7f5      	b.n	80063e6 <prvAddCurrentTaskToDelayedList+0x4a>
				vListInsert( pxDelayedTaskList, &( pxCurrentTCB->xStateListItem ) );
 80063fa:	4b0c      	ldr	r3, [pc, #48]	@ (800642c <prvAddCurrentTaskToDelayedList+0x90>)
 80063fc:	6818      	ldr	r0, [r3, #0]
 80063fe:	4b07      	ldr	r3, [pc, #28]	@ (800641c <prvAddCurrentTaskToDelayedList+0x80>)
 8006400:	6819      	ldr	r1, [r3, #0]
 8006402:	3104      	adds	r1, #4
 8006404:	f7ff fb77 	bl	8005af6 <vListInsert>
				if( xTimeToWake < xNextTaskUnblockTime )
 8006408:	4b09      	ldr	r3, [pc, #36]	@ (8006430 <prvAddCurrentTaskToDelayedList+0x94>)
 800640a:	681b      	ldr	r3, [r3, #0]
 800640c:	42a3      	cmp	r3, r4
 800640e:	d9ea      	bls.n	80063e6 <prvAddCurrentTaskToDelayedList+0x4a>
					xNextTaskUnblockTime = xTimeToWake;
 8006410:	4b07      	ldr	r3, [pc, #28]	@ (8006430 <prvAddCurrentTaskToDelayedList+0x94>)
 8006412:	601c      	str	r4, [r3, #0]
}
 8006414:	e7e7      	b.n	80063e6 <prvAddCurrentTaskToDelayedList+0x4a>
 8006416:	bf00      	nop
 8006418:	20001954 	.word	0x20001954
 800641c:	20001a58 	.word	0x20001a58
 8006420:	20001950 	.word	0x20001950
 8006424:	2000199c 	.word	0x2000199c
 8006428:	2000195c 	.word	0x2000195c
 800642c:	200019a0 	.word	0x200019a0
 8006430:	20001938 	.word	0x20001938

08006434 <xTaskCreateStatic>:
	{
 8006434:	b530      	push	{r4, r5, lr}
 8006436:	b087      	sub	sp, #28
 8006438:	9c0b      	ldr	r4, [sp, #44]	@ 0x2c
		configASSERT( puxStackBuffer != NULL );
 800643a:	b17c      	cbz	r4, 800645c <xTaskCreateStatic+0x28>
		configASSERT( pxTaskBuffer != NULL );
 800643c:	9d0c      	ldr	r5, [sp, #48]	@ 0x30
 800643e:	b1b5      	cbz	r5, 800646e <xTaskCreateStatic+0x3a>
			volatile size_t xSize = sizeof( StaticTask_t );
 8006440:	25a0      	movs	r5, #160	@ 0xa0
 8006442:	9504      	str	r5, [sp, #16]
			configASSERT( xSize == sizeof( TCB_t ) );
 8006444:	9d04      	ldr	r5, [sp, #16]
 8006446:	2da0      	cmp	r5, #160	@ 0xa0
 8006448:	d01a      	beq.n	8006480 <xTaskCreateStatic+0x4c>
 800644a:	f04f 0350 	mov.w	r3, #80	@ 0x50
 800644e:	f383 8811 	msr	BASEPRI, r3
 8006452:	f3bf 8f6f 	isb	sy
 8006456:	f3bf 8f4f 	dsb	sy
 800645a:	e7fe      	b.n	800645a <xTaskCreateStatic+0x26>
 800645c:	f04f 0350 	mov.w	r3, #80	@ 0x50
 8006460:	f383 8811 	msr	BASEPRI, r3
 8006464:	f3bf 8f6f 	isb	sy
 8006468:	f3bf 8f4f 	dsb	sy
		configASSERT( puxStackBuffer != NULL );
 800646c:	e7fe      	b.n	800646c <xTaskCreateStatic+0x38>
 800646e:	f04f 0350 	mov.w	r3, #80	@ 0x50
 8006472:	f383 8811 	msr	BASEPRI, r3
 8006476:	f3bf 8f6f 	isb	sy
 800647a:	f3bf 8f4f 	dsb	sy
		configASSERT( pxTaskBuffer != NULL );
 800647e:	e7fe      	b.n	800647e <xTaskCreateStatic+0x4a>
			( void ) xSize; /* Prevent lint warning when configASSERT() is not used. */
 8006480:	9d04      	ldr	r5, [sp, #16]
			pxNewTCB->pxStack = ( StackType_t * ) puxStackBuffer;
 8006482:	9d0c      	ldr	r5, [sp, #48]	@ 0x30
 8006484:	632c      	str	r4, [r5, #48]	@ 0x30
				pxNewTCB->ucStaticallyAllocated = tskSTATICALLY_ALLOCATED_STACK_AND_TCB;
 8006486:	2402      	movs	r4, #2
 8006488:	f885 409d 	strb.w	r4, [r5, #157]	@ 0x9d
			prvInitialiseNewTask( pxTaskCode, pcName, ulStackDepth, pvParameters, uxPriority, &xReturn, pxNewTCB, NULL );
 800648c:	2400      	movs	r4, #0
 800648e:	9403      	str	r4, [sp, #12]
 8006490:	9502      	str	r5, [sp, #8]
 8006492:	ac05      	add	r4, sp, #20
 8006494:	9401      	str	r4, [sp, #4]
 8006496:	9c0a      	ldr	r4, [sp, #40]	@ 0x28
 8006498:	9400      	str	r4, [sp, #0]
 800649a:	f7ff fe3f 	bl	800611c <prvInitialiseNewTask>
			prvAddNewTaskToReadyList( pxNewTCB );
 800649e:	980c      	ldr	r0, [sp, #48]	@ 0x30
 80064a0:	f7ff fece 	bl	8006240 <prvAddNewTaskToReadyList>
	}
 80064a4:	9805      	ldr	r0, [sp, #20]
 80064a6:	b007      	add	sp, #28
 80064a8:	bd30      	pop	{r4, r5, pc}

080064aa <xTaskCreate>:
	{
 80064aa:	e92d 43f0 	stmdb	sp!, {r4, r5, r6, r7, r8, r9, lr}
 80064ae:	b085      	sub	sp, #20
 80064b0:	4607      	mov	r7, r0
 80064b2:	4688      	mov	r8, r1
 80064b4:	4614      	mov	r4, r2
 80064b6:	461e      	mov	r6, r3
			pxStack = pvPortMalloc( ( ( ( size_t ) usStackDepth ) * sizeof( StackType_t ) ) ); /*lint !e9079 All values returned by pvPortMalloc() have at least the alignment required by the MCU's stack and this allocation is the stack. */
 80064b8:	0090      	lsls	r0, r2, #2
 80064ba:	f000 fcaf 	bl	8006e1c <pvPortMalloc>
			if( pxStack != NULL )
 80064be:	b308      	cbz	r0, 8006504 <xTaskCreate+0x5a>
 80064c0:	4681      	mov	r9, r0
				pxNewTCB = ( TCB_t * ) pvPortMalloc( sizeof( TCB_t ) ); /*lint !e9087 !e9079 All values returned by pvPortMalloc() have at least the alignment required by the MCU's stack, and the first member of TCB_t is always a pointer to the task's stack. */
 80064c2:	20a0      	movs	r0, #160	@ 0xa0
 80064c4:	f000 fcaa 	bl	8006e1c <pvPortMalloc>
				if( pxNewTCB != NULL )
 80064c8:	4605      	mov	r5, r0
 80064ca:	b1a8      	cbz	r0, 80064f8 <xTaskCreate+0x4e>
					pxNewTCB->pxStack = pxStack;
 80064cc:	f8c0 9030 	str.w	r9, [r0, #48]	@ 0x30
				pxNewTCB->ucStaticallyAllocated = tskDYNAMICALLY_ALLOCATED_STACK_AND_TCB;
 80064d0:	2300      	movs	r3, #0
 80064d2:	f880 309d 	strb.w	r3, [r0, #157]	@ 0x9d
			prvInitialiseNewTask( pxTaskCode, pcName, ( uint32_t ) usStackDepth, pvParameters, uxPriority, pxCreatedTask, pxNewTCB, NULL );
 80064d6:	9303      	str	r3, [sp, #12]
 80064d8:	9002      	str	r0, [sp, #8]
 80064da:	9b0d      	ldr	r3, [sp, #52]	@ 0x34
 80064dc:	9301      	str	r3, [sp, #4]
 80064de:	9b0c      	ldr	r3, [sp, #48]	@ 0x30
 80064e0:	9300      	str	r3, [sp, #0]
 80064e2:	4633      	mov	r3, r6
 80064e4:	4622      	mov	r2, r4
 80064e6:	4641      	mov	r1, r8
 80064e8:	4638      	mov	r0, r7
 80064ea:	f7ff fe17 	bl	800611c <prvInitialiseNewTask>
			prvAddNewTaskToReadyList( pxNewTCB );
 80064ee:	4628      	mov	r0, r5
 80064f0:	f7ff fea6 	bl	8006240 <prvAddNewTaskToReadyList>
			xReturn = pdPASS;
 80064f4:	2001      	movs	r0, #1
 80064f6:	e007      	b.n	8006508 <xTaskCreate+0x5e>
					vPortFree( pxStack );
 80064f8:	4648      	mov	r0, r9
 80064fa:	f000 fd11 	bl	8006f20 <vPortFree>
			xReturn = errCOULD_NOT_ALLOCATE_REQUIRED_MEMORY;
 80064fe:	f04f 30ff 	mov.w	r0, #4294967295
 8006502:	e001      	b.n	8006508 <xTaskCreate+0x5e>
 8006504:	f04f 30ff 	mov.w	r0, #4294967295
	}
 8006508:	b005      	add	sp, #20
 800650a:	e8bd 83f0 	ldmia.w	sp!, {r4, r5, r6, r7, r8, r9, pc}
	...

08006510 <vTaskStartScheduler>:
{
 8006510:	b510      	push	{r4, lr}
 8006512:	b088      	sub	sp, #32
		StaticTask_t *pxIdleTaskTCBBuffer = NULL;
 8006514:	2400      	movs	r4, #0
 8006516:	9405      	str	r4, [sp, #20]
		StackType_t *pxIdleTaskStackBuffer = NULL;
 8006518:	9406      	str	r4, [sp, #24]
		vApplicationGetIdleTaskMemory( &pxIdleTaskTCBBuffer, &pxIdleTaskStackBuffer, &ulIdleTaskStackSize );
 800651a:	aa07      	add	r2, sp, #28
 800651c:	a906      	add	r1, sp, #24
 800651e:	a805      	add	r0, sp, #20
 8006520:	f7f9 fe1e 	bl	8000160 <vApplicationGetIdleTaskMemory>
		xIdleTaskHandle = xTaskCreateStatic(	prvIdleTask,
 8006524:	9b05      	ldr	r3, [sp, #20]
 8006526:	9302      	str	r3, [sp, #8]
 8006528:	9b06      	ldr	r3, [sp, #24]
 800652a:	9301      	str	r3, [sp, #4]
 800652c:	9400      	str	r4, [sp, #0]
 800652e:	4623      	mov	r3, r4
 8006530:	9a07      	ldr	r2, [sp, #28]
 8006532:	4910      	ldr	r1, [pc, #64]	@ (8006574 <vTaskStartScheduler+0x64>)
 8006534:	4810      	ldr	r0, [pc, #64]	@ (8006578 <vTaskStartScheduler+0x68>)
 8006536:	f7ff ff7d 	bl	8006434 <xTaskCreateStatic>
 800653a:	4b10      	ldr	r3, [pc, #64]	@ (800657c <vTaskStartScheduler+0x6c>)
 800653c:	6018      	str	r0, [r3, #0]
		if( xIdleTaskHandle != NULL )
 800653e:	b1b8      	cbz	r0, 8006570 <vTaskStartScheduler+0x60>
 8006540:	f04f 0350 	mov.w	r3, #80	@ 0x50
 8006544:	f383 8811 	msr	BASEPRI, r3
 8006548:	f3bf 8f6f 	isb	sy
 800654c:	f3bf 8f4f 	dsb	sy
			_impure_ptr = &( pxCurrentTCB->xNewLib_reent );
 8006550:	4b0b      	ldr	r3, [pc, #44]	@ (8006580 <vTaskStartScheduler+0x70>)
 8006552:	681b      	ldr	r3, [r3, #0]
 8006554:	334c      	adds	r3, #76	@ 0x4c
 8006556:	4a0b      	ldr	r2, [pc, #44]	@ (8006584 <vTaskStartScheduler+0x74>)
 8006558:	6013      	str	r3, [r2, #0]
		xNextTaskUnblockTime = portMAX_DELAY;
 800655a:	4b0b      	ldr	r3, [pc, #44]	@ (8006588 <vTaskStartScheduler+0x78>)
 800655c:	f04f 32ff 	mov.w	r2, #4294967295
 8006560:	601a      	str	r2, [r3, #0]
		xSchedulerRunning = pdTRUE;
 8006562:	4b0a      	ldr	r3, [pc, #40]	@ (800658c <vTaskStartScheduler+0x7c>)
 8006564:	2201      	movs	r2, #1
 8006566:	601a      	str	r2, [r3, #0]
		xTickCount = ( TickType_t ) configINITIAL_TICK_COUNT;
 8006568:	4b09      	ldr	r3, [pc, #36]	@ (8006590 <vTaskStartScheduler+0x80>)
 800656a:	601c      	str	r4, [r3, #0]
		if( xPortStartScheduler() != pdFALSE )
 800656c:	f000 fb94 	bl	8006c98 <xPortStartScheduler>
}
 8006570:	b008      	add	sp, #32
 8006572:	bd10      	pop	{r4, pc}
 8006574:	0800a104 	.word	0x0800a104
 8006578:	08006375 	.word	0x08006375
 800657c:	20001934 	.word	0x20001934
 8006580:	20001a58 	.word	0x20001a58
 8006584:	20000064 	.word	0x20000064
 8006588:	20001938 	.word	0x20001938
 800658c:	2000194c 	.word	0x2000194c
 8006590:	20001954 	.word	0x20001954

08006594 <vTaskSuspendAll>:
	++uxSchedulerSuspended;
 8006594:	4a02      	ldr	r2, [pc, #8]	@ (80065a0 <vTaskSuspendAll+0xc>)
 8006596:	6813      	ldr	r3, [r2, #0]
 8006598:	3301      	adds	r3, #1
 800659a:	6013      	str	r3, [r2, #0]
}
 800659c:	4770      	bx	lr
 800659e:	bf00      	nop
 80065a0:	20001930 	.word	0x20001930

080065a4 <xTaskIncrementTick>:
{
 80065a4:	b5f8      	push	{r3, r4, r5, r6, r7, lr}
	if( uxSchedulerSuspended == ( UBaseType_t ) pdFALSE )
 80065a6:	4b3a      	ldr	r3, [pc, #232]	@ (8006690 <xTaskIncrementTick+0xec>)
 80065a8:	681b      	ldr	r3, [r3, #0]
 80065aa:	2b00      	cmp	r3, #0
 80065ac:	d169      	bne.n	8006682 <xTaskIncrementTick+0xde>
		const TickType_t xConstTickCount = xTickCount + ( TickType_t ) 1;
 80065ae:	4b39      	ldr	r3, [pc, #228]	@ (8006694 <xTaskIncrementTick+0xf0>)
 80065b0:	681d      	ldr	r5, [r3, #0]
 80065b2:	3501      	adds	r5, #1
		xTickCount = xConstTickCount;
 80065b4:	601d      	str	r5, [r3, #0]
		if( xConstTickCount == ( TickType_t ) 0U ) /*lint !e774 'if' does not always evaluate to false as it is looking for an overflow. */
 80065b6:	b9c5      	cbnz	r5, 80065ea <xTaskIncrementTick+0x46>
			taskSWITCH_DELAYED_LISTS();
 80065b8:	4b37      	ldr	r3, [pc, #220]	@ (8006698 <xTaskIncrementTick+0xf4>)
 80065ba:	681b      	ldr	r3, [r3, #0]
 80065bc:	681b      	ldr	r3, [r3, #0]
 80065be:	b143      	cbz	r3, 80065d2 <xTaskIncrementTick+0x2e>
 80065c0:	f04f 0350 	mov.w	r3, #80	@ 0x50
 80065c4:	f383 8811 	msr	BASEPRI, r3
 80065c8:	f3bf 8f6f 	isb	sy
 80065cc:	f3bf 8f4f 	dsb	sy
 80065d0:	e7fe      	b.n	80065d0 <xTaskIncrementTick+0x2c>
 80065d2:	4a31      	ldr	r2, [pc, #196]	@ (8006698 <xTaskIncrementTick+0xf4>)
 80065d4:	6811      	ldr	r1, [r2, #0]
 80065d6:	4b31      	ldr	r3, [pc, #196]	@ (800669c <xTaskIncrementTick+0xf8>)
 80065d8:	6818      	ldr	r0, [r3, #0]
 80065da:	6010      	str	r0, [r2, #0]
 80065dc:	6019      	str	r1, [r3, #0]
 80065de:	4a30      	ldr	r2, [pc, #192]	@ (80066a0 <xTaskIncrementTick+0xfc>)
 80065e0:	6813      	ldr	r3, [r2, #0]
 80065e2:	3301      	adds	r3, #1
 80065e4:	6013      	str	r3, [r2, #0]
 80065e6:	f7ff fd83 	bl	80060f0 <prvResetNextTaskUnblockTime>
		if( xConstTickCount >= xNextTaskUnblockTime )
 80065ea:	4b2e      	ldr	r3, [pc, #184]	@ (80066a4 <xTaskIncrementTick+0x100>)
 80065ec:	681b      	ldr	r3, [r3, #0]
 80065ee:	42ab      	cmp	r3, r5
 80065f0:	d93d      	bls.n	800666e <xTaskIncrementTick+0xca>
BaseType_t xSwitchRequired = pdFALSE;
 80065f2:	2700      	movs	r7, #0
			if( listCURRENT_LIST_LENGTH( &( pxReadyTasksLists[ pxCurrentTCB->uxPriority ] ) ) > ( UBaseType_t ) 1 )
 80065f4:	4b2c      	ldr	r3, [pc, #176]	@ (80066a8 <xTaskIncrementTick+0x104>)
 80065f6:	681b      	ldr	r3, [r3, #0]
 80065f8:	6adb      	ldr	r3, [r3, #44]	@ 0x2c
 80065fa:	eb03 0383 	add.w	r3, r3, r3, lsl #2
 80065fe:	009a      	lsls	r2, r3, #2
 8006600:	4b2a      	ldr	r3, [pc, #168]	@ (80066ac <xTaskIncrementTick+0x108>)
 8006602:	589b      	ldr	r3, [r3, r2]
 8006604:	2b01      	cmp	r3, #1
 8006606:	d900      	bls.n	800660a <xTaskIncrementTick+0x66>
				xSwitchRequired = pdTRUE;
 8006608:	2701      	movs	r7, #1
			if( xYieldPending != pdFALSE )
 800660a:	4b29      	ldr	r3, [pc, #164]	@ (80066b0 <xTaskIncrementTick+0x10c>)
 800660c:	681b      	ldr	r3, [r3, #0]
 800660e:	2b00      	cmp	r3, #0
 8006610:	d03c      	beq.n	800668c <xTaskIncrementTick+0xe8>
				xSwitchRequired = pdTRUE;
 8006612:	2701      	movs	r7, #1
	return xSwitchRequired;
 8006614:	e03a      	b.n	800668c <xTaskIncrementTick+0xe8>
							xSwitchRequired = pdTRUE;
 8006616:	2701      	movs	r7, #1
				if( listLIST_IS_EMPTY( pxDelayedTaskList ) != pdFALSE )
 8006618:	4b1f      	ldr	r3, [pc, #124]	@ (8006698 <xTaskIncrementTick+0xf4>)
 800661a:	681b      	ldr	r3, [r3, #0]
 800661c:	681b      	ldr	r3, [r3, #0]
 800661e:	b343      	cbz	r3, 8006672 <xTaskIncrementTick+0xce>
					pxTCB = listGET_OWNER_OF_HEAD_ENTRY( pxDelayedTaskList ); /*lint !e9079 void * is used as this macro is used with timers and co-routines too.  Alignment is known to be fine as the type of the pointer stored and retrieved is the same. */
 8006620:	4b1d      	ldr	r3, [pc, #116]	@ (8006698 <xTaskIncrementTick+0xf4>)
 8006622:	681b      	ldr	r3, [r3, #0]
 8006624:	68db      	ldr	r3, [r3, #12]
 8006626:	68dc      	ldr	r4, [r3, #12]
					xItemValue = listGET_LIST_ITEM_VALUE( &( pxTCB->xStateListItem ) );
 8006628:	6863      	ldr	r3, [r4, #4]
					if( xConstTickCount < xItemValue )
 800662a:	429d      	cmp	r5, r3
 800662c:	d326      	bcc.n	800667c <xTaskIncrementTick+0xd8>
					( void ) uxListRemove( &( pxTCB->xStateListItem ) );
 800662e:	1d26      	adds	r6, r4, #4
 8006630:	4630      	mov	r0, r6
 8006632:	f7ff fa79 	bl	8005b28 <uxListRemove>
					if( listLIST_ITEM_CONTAINER( &( pxTCB->xEventListItem ) ) != NULL )
 8006636:	6aa3      	ldr	r3, [r4, #40]	@ 0x28
 8006638:	b11b      	cbz	r3, 8006642 <xTaskIncrementTick+0x9e>
						( void ) uxListRemove( &( pxTCB->xEventListItem ) );
 800663a:	f104 0018 	add.w	r0, r4, #24
 800663e:	f7ff fa73 	bl	8005b28 <uxListRemove>
					prvAddTaskToReadyList( pxTCB );
 8006642:	6ae3      	ldr	r3, [r4, #44]	@ 0x2c
 8006644:	2201      	movs	r2, #1
 8006646:	409a      	lsls	r2, r3
 8006648:	491a      	ldr	r1, [pc, #104]	@ (80066b4 <xTaskIncrementTick+0x110>)
 800664a:	6808      	ldr	r0, [r1, #0]
 800664c:	4302      	orrs	r2, r0
 800664e:	600a      	str	r2, [r1, #0]
 8006650:	eb03 0383 	add.w	r3, r3, r3, lsl #2
 8006654:	009a      	lsls	r2, r3, #2
 8006656:	4631      	mov	r1, r6
 8006658:	4814      	ldr	r0, [pc, #80]	@ (80066ac <xTaskIncrementTick+0x108>)
 800665a:	4410      	add	r0, r2
 800665c:	f7ff fa40 	bl	8005ae0 <vListInsertEnd>
						if( pxTCB->uxPriority >= pxCurrentTCB->uxPriority )
 8006660:	6ae2      	ldr	r2, [r4, #44]	@ 0x2c
 8006662:	4b11      	ldr	r3, [pc, #68]	@ (80066a8 <xTaskIncrementTick+0x104>)
 8006664:	681b      	ldr	r3, [r3, #0]
 8006666:	6adb      	ldr	r3, [r3, #44]	@ 0x2c
 8006668:	429a      	cmp	r2, r3
 800666a:	d2d4      	bcs.n	8006616 <xTaskIncrementTick+0x72>
 800666c:	e7d4      	b.n	8006618 <xTaskIncrementTick+0x74>
BaseType_t xSwitchRequired = pdFALSE;
 800666e:	2700      	movs	r7, #0
 8006670:	e7d2      	b.n	8006618 <xTaskIncrementTick+0x74>
					xNextTaskUnblockTime = portMAX_DELAY; /*lint !e961 MISRA exception as the casts are only redundant for some ports. */
 8006672:	4b0c      	ldr	r3, [pc, #48]	@ (80066a4 <xTaskIncrementTick+0x100>)
 8006674:	f04f 32ff 	mov.w	r2, #4294967295
 8006678:	601a      	str	r2, [r3, #0]
					break;
 800667a:	e7bb      	b.n	80065f4 <xTaskIncrementTick+0x50>
						xNextTaskUnblockTime = xItemValue;
 800667c:	4a09      	ldr	r2, [pc, #36]	@ (80066a4 <xTaskIncrementTick+0x100>)
 800667e:	6013      	str	r3, [r2, #0]
						break; /*lint !e9011 Code structure here is deedmed easier to understand with multiple breaks. */
 8006680:	e7b8      	b.n	80065f4 <xTaskIncrementTick+0x50>
		++xPendedTicks;
 8006682:	4a0d      	ldr	r2, [pc, #52]	@ (80066b8 <xTaskIncrementTick+0x114>)
 8006684:	6813      	ldr	r3, [r2, #0]
 8006686:	3301      	adds	r3, #1
 8006688:	6013      	str	r3, [r2, #0]
BaseType_t xSwitchRequired = pdFALSE;
 800668a:	2700      	movs	r7, #0
}
 800668c:	4638      	mov	r0, r7
 800668e:	bdf8      	pop	{r3, r4, r5, r6, r7, pc}
 8006690:	20001930 	.word	0x20001930
 8006694:	20001954 	.word	0x20001954
 8006698:	200019a0 	.word	0x200019a0
 800669c:	2000199c 	.word	0x2000199c
 80066a0:	20001940 	.word	0x20001940
 80066a4:	20001938 	.word	0x20001938
 80066a8:	20001a58 	.word	0x20001a58
 80066ac:	200019cc 	.word	0x200019cc
 80066b0:	20001944 	.word	0x20001944
 80066b4:	20001950 	.word	0x20001950
 80066b8:	20001948 	.word	0x20001948

080066bc <xTaskResumeAll>:
{
 80066bc:	b538      	push	{r3, r4, r5, lr}
	configASSERT( uxSchedulerSuspended );
 80066be:	4b35      	ldr	r3, [pc, #212]	@ (8006794 <xTaskResumeAll+0xd8>)
 80066c0:	681b      	ldr	r3, [r3, #0]
 80066c2:	b943      	cbnz	r3, 80066d6 <xTaskResumeAll+0x1a>
 80066c4:	f04f 0350 	mov.w	r3, #80	@ 0x50
 80066c8:	f383 8811 	msr	BASEPRI, r3
 80066cc:	f3bf 8f6f 	isb	sy
 80066d0:	f3bf 8f4f 	dsb	sy
 80066d4:	e7fe      	b.n	80066d4 <xTaskResumeAll+0x18>
	taskENTER_CRITICAL();
 80066d6:	f000 fa55 	bl	8006b84 <vPortEnterCritical>
		--uxSchedulerSuspended;
 80066da:	4b2e      	ldr	r3, [pc, #184]	@ (8006794 <xTaskResumeAll+0xd8>)
 80066dc:	681a      	ldr	r2, [r3, #0]
 80066de:	3a01      	subs	r2, #1
 80066e0:	601a      	str	r2, [r3, #0]
		if( uxSchedulerSuspended == ( UBaseType_t ) pdFALSE )
 80066e2:	681b      	ldr	r3, [r3, #0]
 80066e4:	2b00      	cmp	r3, #0
 80066e6:	d14f      	bne.n	8006788 <xTaskResumeAll+0xcc>
			if( uxCurrentNumberOfTasks > ( UBaseType_t ) 0U )
 80066e8:	4b2b      	ldr	r3, [pc, #172]	@ (8006798 <xTaskResumeAll+0xdc>)
 80066ea:	681b      	ldr	r3, [r3, #0]
 80066ec:	b90b      	cbnz	r3, 80066f2 <xTaskResumeAll+0x36>
BaseType_t xAlreadyYielded = pdFALSE;
 80066ee:	2400      	movs	r4, #0
 80066f0:	e04b      	b.n	800678a <xTaskResumeAll+0xce>
TCB_t *pxTCB = NULL;
 80066f2:	2400      	movs	r4, #0
				while( listLIST_IS_EMPTY( &xPendingReadyList ) == pdFALSE )
 80066f4:	4b29      	ldr	r3, [pc, #164]	@ (800679c <xTaskResumeAll+0xe0>)
 80066f6:	681b      	ldr	r3, [r3, #0]
 80066f8:	b31b      	cbz	r3, 8006742 <xTaskResumeAll+0x86>
					pxTCB = listGET_OWNER_OF_HEAD_ENTRY( ( &xPendingReadyList ) ); /*lint !e9079 void * is used as this macro is used with timers and co-routines too.  Alignment is known to be fine as the type of the pointer stored and retrieved is the same. */
 80066fa:	4b28      	ldr	r3, [pc, #160]	@ (800679c <xTaskResumeAll+0xe0>)
 80066fc:	68db      	ldr	r3, [r3, #12]
 80066fe:	68dc      	ldr	r4, [r3, #12]
					( void ) uxListRemove( &( pxTCB->xEventListItem ) );
 8006700:	f104 0018 	add.w	r0, r4, #24
 8006704:	f7ff fa10 	bl	8005b28 <uxListRemove>
					( void ) uxListRemove( &( pxTCB->xStateListItem ) );
 8006708:	1d25      	adds	r5, r4, #4
 800670a:	4628      	mov	r0, r5
 800670c:	f7ff fa0c 	bl	8005b28 <uxListRemove>
					prvAddTaskToReadyList( pxTCB );
 8006710:	6ae0      	ldr	r0, [r4, #44]	@ 0x2c
 8006712:	2301      	movs	r3, #1
 8006714:	4083      	lsls	r3, r0
 8006716:	4a22      	ldr	r2, [pc, #136]	@ (80067a0 <xTaskResumeAll+0xe4>)
 8006718:	6811      	ldr	r1, [r2, #0]
 800671a:	430b      	orrs	r3, r1
 800671c:	6013      	str	r3, [r2, #0]
 800671e:	eb00 0080 	add.w	r0, r0, r0, lsl #2
 8006722:	4629      	mov	r1, r5
 8006724:	4b1f      	ldr	r3, [pc, #124]	@ (80067a4 <xTaskResumeAll+0xe8>)
 8006726:	eb03 0080 	add.w	r0, r3, r0, lsl #2
 800672a:	f7ff f9d9 	bl	8005ae0 <vListInsertEnd>
					if( pxTCB->uxPriority >= pxCurrentTCB->uxPriority )
 800672e:	6ae2      	ldr	r2, [r4, #44]	@ 0x2c
 8006730:	4b1d      	ldr	r3, [pc, #116]	@ (80067a8 <xTaskResumeAll+0xec>)
 8006732:	681b      	ldr	r3, [r3, #0]
 8006734:	6adb      	ldr	r3, [r3, #44]	@ 0x2c
 8006736:	429a      	cmp	r2, r3
 8006738:	d3dc      	bcc.n	80066f4 <xTaskResumeAll+0x38>
						xYieldPending = pdTRUE;
 800673a:	4b1c      	ldr	r3, [pc, #112]	@ (80067ac <xTaskResumeAll+0xf0>)
 800673c:	2201      	movs	r2, #1
 800673e:	601a      	str	r2, [r3, #0]
 8006740:	e7d8      	b.n	80066f4 <xTaskResumeAll+0x38>
				if( pxTCB != NULL )
 8006742:	b10c      	cbz	r4, 8006748 <xTaskResumeAll+0x8c>
					prvResetNextTaskUnblockTime();
 8006744:	f7ff fcd4 	bl	80060f0 <prvResetNextTaskUnblockTime>
					TickType_t xPendedCounts = xPendedTicks; /* Non-volatile copy. */
 8006748:	4b19      	ldr	r3, [pc, #100]	@ (80067b0 <xTaskResumeAll+0xf4>)
 800674a:	681c      	ldr	r4, [r3, #0]
					if( xPendedCounts > ( TickType_t ) 0U )
 800674c:	b984      	cbnz	r4, 8006770 <xTaskResumeAll+0xb4>
				if( xYieldPending != pdFALSE )
 800674e:	4b17      	ldr	r3, [pc, #92]	@ (80067ac <xTaskResumeAll+0xf0>)
 8006750:	681c      	ldr	r4, [r3, #0]
 8006752:	b1d4      	cbz	r4, 800678a <xTaskResumeAll+0xce>
					taskYIELD_IF_USING_PREEMPTION();
 8006754:	f04f 23e0 	mov.w	r3, #3758153728	@ 0xe000e000
 8006758:	f04f 5280 	mov.w	r2, #268435456	@ 0x10000000
 800675c:	f8c3 2d04 	str.w	r2, [r3, #3332]	@ 0xd04
 8006760:	f3bf 8f4f 	dsb	sy
 8006764:	f3bf 8f6f 	isb	sy
						xAlreadyYielded = pdTRUE;
 8006768:	2401      	movs	r4, #1
 800676a:	e00e      	b.n	800678a <xTaskResumeAll+0xce>
						} while( xPendedCounts > ( TickType_t ) 0U );
 800676c:	3c01      	subs	r4, #1
 800676e:	d007      	beq.n	8006780 <xTaskResumeAll+0xc4>
							if( xTaskIncrementTick() != pdFALSE )
 8006770:	f7ff ff18 	bl	80065a4 <xTaskIncrementTick>
 8006774:	2800      	cmp	r0, #0
 8006776:	d0f9      	beq.n	800676c <xTaskResumeAll+0xb0>
								xYieldPending = pdTRUE;
 8006778:	4b0c      	ldr	r3, [pc, #48]	@ (80067ac <xTaskResumeAll+0xf0>)
 800677a:	2201      	movs	r2, #1
 800677c:	601a      	str	r2, [r3, #0]
 800677e:	e7f5      	b.n	800676c <xTaskResumeAll+0xb0>
						xPendedTicks = 0;
 8006780:	4b0b      	ldr	r3, [pc, #44]	@ (80067b0 <xTaskResumeAll+0xf4>)
 8006782:	2200      	movs	r2, #0
 8006784:	601a      	str	r2, [r3, #0]
 8006786:	e7e2      	b.n	800674e <xTaskResumeAll+0x92>
BaseType_t xAlreadyYielded = pdFALSE;
 8006788:	2400      	movs	r4, #0
	taskEXIT_CRITICAL();
 800678a:	f000 fa1d 	bl	8006bc8 <vPortExitCritical>
}
 800678e:	4620      	mov	r0, r4
 8006790:	bd38      	pop	{r3, r4, r5, pc}
 8006792:	bf00      	nop
 8006794:	20001930 	.word	0x20001930
 8006798:	20001958 	.word	0x20001958
 800679c:	20001988 	.word	0x20001988
 80067a0:	20001950 	.word	0x20001950
 80067a4:	200019cc 	.word	0x200019cc
 80067a8:	20001a58 	.word	0x20001a58
 80067ac:	20001944 	.word	0x20001944
 80067b0:	20001948 	.word	0x20001948

080067b4 <vTaskDelay>:
	{
 80067b4:	b510      	push	{r4, lr}
		if( xTicksToDelay > ( TickType_t ) 0U )
 80067b6:	b1a8      	cbz	r0, 80067e4 <vTaskDelay+0x30>
 80067b8:	4604      	mov	r4, r0
			configASSERT( uxSchedulerSuspended == 0 );
 80067ba:	4b10      	ldr	r3, [pc, #64]	@ (80067fc <vTaskDelay+0x48>)
 80067bc:	681b      	ldr	r3, [r3, #0]
 80067be:	b143      	cbz	r3, 80067d2 <vTaskDelay+0x1e>
 80067c0:	f04f 0350 	mov.w	r3, #80	@ 0x50
 80067c4:	f383 8811 	msr	BASEPRI, r3
 80067c8:	f3bf 8f6f 	isb	sy
 80067cc:	f3bf 8f4f 	dsb	sy
 80067d0:	e7fe      	b.n	80067d0 <vTaskDelay+0x1c>
			vTaskSuspendAll();
 80067d2:	f7ff fedf 	bl	8006594 <vTaskSuspendAll>
				prvAddCurrentTaskToDelayedList( xTicksToDelay, pdFALSE );
 80067d6:	2100      	movs	r1, #0
 80067d8:	4620      	mov	r0, r4
 80067da:	f7ff fddf 	bl	800639c <prvAddCurrentTaskToDelayedList>
			xAlreadyYielded = xTaskResumeAll();
 80067de:	f7ff ff6d 	bl	80066bc <xTaskResumeAll>
		if( xAlreadyYielded == pdFALSE )
 80067e2:	b948      	cbnz	r0, 80067f8 <vTaskDelay+0x44>
			portYIELD_WITHIN_API();
 80067e4:	f04f 23e0 	mov.w	r3, #3758153728	@ 0xe000e000
 80067e8:	f04f 5280 	mov.w	r2, #268435456	@ 0x10000000
 80067ec:	f8c3 2d04 	str.w	r2, [r3, #3332]	@ 0xd04
 80067f0:	f3bf 8f4f 	dsb	sy
 80067f4:	f3bf 8f6f 	isb	sy
	}
 80067f8:	bd10      	pop	{r4, pc}
 80067fa:	bf00      	nop
 80067fc:	20001930 	.word	0x20001930

08006800 <vTaskSwitchContext>:
	if( uxSchedulerSuspended != ( UBaseType_t ) pdFALSE )
 8006800:	4b22      	ldr	r3, [pc, #136]	@ (800688c <vTaskSwitchContext+0x8c>)
 8006802:	681b      	ldr	r3, [r3, #0]
 8006804:	b11b      	cbz	r3, 800680e <vTaskSwitchContext+0xe>
		xYieldPending = pdTRUE;
 8006806:	4b22      	ldr	r3, [pc, #136]	@ (8006890 <vTaskSwitchContext+0x90>)
 8006808:	2201      	movs	r2, #1
 800680a:	601a      	str	r2, [r3, #0]
 800680c:	4770      	bx	lr
		xYieldPending = pdFALSE;
 800680e:	4b20      	ldr	r3, [pc, #128]	@ (8006890 <vTaskSwitchContext+0x90>)
 8006810:	2200      	movs	r2, #0
 8006812:	601a      	str	r2, [r3, #0]
		taskSELECT_HIGHEST_PRIORITY_TASK(); /*lint !e9079 void * is used as this macro is used with timers and co-routines too.  Alignment is known to be fine as the type of the pointer stored and retrieved is the same. */
 8006814:	4b1f      	ldr	r3, [pc, #124]	@ (8006894 <vTaskSwitchContext+0x94>)
 8006816:	681b      	ldr	r3, [r3, #0]
		__asm volatile ( "clz %0, %1" : "=r" ( ucReturn ) : "r" ( ulBitmap ) : "memory" );
 8006818:	fab3 f383 	clz	r3, r3
 800681c:	b2db      	uxtb	r3, r3
 800681e:	f1c3 031f 	rsb	r3, r3, #31
 8006822:	eb03 0183 	add.w	r1, r3, r3, lsl #2
 8006826:	008a      	lsls	r2, r1, #2
 8006828:	491b      	ldr	r1, [pc, #108]	@ (8006898 <vTaskSwitchContext+0x98>)
 800682a:	588a      	ldr	r2, [r1, r2]
 800682c:	b942      	cbnz	r2, 8006840 <vTaskSwitchContext+0x40>
	__asm volatile
 800682e:	f04f 0350 	mov.w	r3, #80	@ 0x50
 8006832:	f383 8811 	msr	BASEPRI, r3
 8006836:	f3bf 8f6f 	isb	sy
 800683a:	f3bf 8f4f 	dsb	sy
 800683e:	e7fe      	b.n	800683e <vTaskSwitchContext+0x3e>
 8006840:	4815      	ldr	r0, [pc, #84]	@ (8006898 <vTaskSwitchContext+0x98>)
 8006842:	eb03 0183 	add.w	r1, r3, r3, lsl #2
 8006846:	008a      	lsls	r2, r1, #2
 8006848:	4402      	add	r2, r0
 800684a:	6851      	ldr	r1, [r2, #4]
 800684c:	6849      	ldr	r1, [r1, #4]
 800684e:	6051      	str	r1, [r2, #4]
 8006850:	eb03 0c83 	add.w	ip, r3, r3, lsl #2
 8006854:	ea4f 028c 	mov.w	r2, ip, lsl #2
 8006858:	3208      	adds	r2, #8
 800685a:	4402      	add	r2, r0
 800685c:	4291      	cmp	r1, r2
 800685e:	d00d      	beq.n	800687c <vTaskSwitchContext+0x7c>
 8006860:	eb03 0383 	add.w	r3, r3, r3, lsl #2
 8006864:	009a      	lsls	r2, r3, #2
 8006866:	4b0c      	ldr	r3, [pc, #48]	@ (8006898 <vTaskSwitchContext+0x98>)
 8006868:	4413      	add	r3, r2
 800686a:	685b      	ldr	r3, [r3, #4]
 800686c:	68da      	ldr	r2, [r3, #12]
 800686e:	4b0b      	ldr	r3, [pc, #44]	@ (800689c <vTaskSwitchContext+0x9c>)
 8006870:	601a      	str	r2, [r3, #0]
			_impure_ptr = &( pxCurrentTCB->xNewLib_reent );
 8006872:	681b      	ldr	r3, [r3, #0]
 8006874:	334c      	adds	r3, #76	@ 0x4c
 8006876:	4a0a      	ldr	r2, [pc, #40]	@ (80068a0 <vTaskSwitchContext+0xa0>)
 8006878:	6013      	str	r3, [r2, #0]
}
 800687a:	4770      	bx	lr
		taskSELECT_HIGHEST_PRIORITY_TASK(); /*lint !e9079 void * is used as this macro is used with timers and co-routines too.  Alignment is known to be fine as the type of the pointer stored and retrieved is the same. */
 800687c:	6848      	ldr	r0, [r1, #4]
 800687e:	4662      	mov	r2, ip
 8006880:	0091      	lsls	r1, r2, #2
 8006882:	4a05      	ldr	r2, [pc, #20]	@ (8006898 <vTaskSwitchContext+0x98>)
 8006884:	440a      	add	r2, r1
 8006886:	6050      	str	r0, [r2, #4]
 8006888:	e7ea      	b.n	8006860 <vTaskSwitchContext+0x60>
 800688a:	bf00      	nop
 800688c:	20001930 	.word	0x20001930
 8006890:	20001944 	.word	0x20001944
 8006894:	20001950 	.word	0x20001950
 8006898:	200019cc 	.word	0x200019cc
 800689c:	20001a58 	.word	0x20001a58
 80068a0:	20000064 	.word	0x20000064

080068a4 <vTaskPlaceOnEventList>:
	configASSERT( pxEventList );
 80068a4:	b158      	cbz	r0, 80068be <vTaskPlaceOnEventList+0x1a>
{
 80068a6:	b510      	push	{r4, lr}
 80068a8:	460c      	mov	r4, r1
	vListInsert( pxEventList, &( pxCurrentTCB->xEventListItem ) );
 80068aa:	4a09      	ldr	r2, [pc, #36]	@ (80068d0 <vTaskPlaceOnEventList+0x2c>)
 80068ac:	6811      	ldr	r1, [r2, #0]
 80068ae:	3118      	adds	r1, #24
 80068b0:	f7ff f921 	bl	8005af6 <vListInsert>
	prvAddCurrentTaskToDelayedList( xTicksToWait, pdTRUE );
 80068b4:	2101      	movs	r1, #1
 80068b6:	4620      	mov	r0, r4
 80068b8:	f7ff fd70 	bl	800639c <prvAddCurrentTaskToDelayedList>
}
 80068bc:	bd10      	pop	{r4, pc}
 80068be:	f04f 0350 	mov.w	r3, #80	@ 0x50
 80068c2:	f383 8811 	msr	BASEPRI, r3
 80068c6:	f3bf 8f6f 	isb	sy
 80068ca:	f3bf 8f4f 	dsb	sy
	configASSERT( pxEventList );
 80068ce:	e7fe      	b.n	80068ce <vTaskPlaceOnEventList+0x2a>
 80068d0:	20001a58 	.word	0x20001a58

080068d4 <xTaskRemoveFromEventList>:
{
 80068d4:	b538      	push	{r3, r4, r5, lr}
	pxUnblockedTCB = listGET_OWNER_OF_HEAD_ENTRY( pxEventList ); /*lint !e9079 void * is used as this macro is used with timers and co-routines too.  Alignment is known to be fine as the type of the pointer stored and retrieved is the same. */
 80068d6:	68c3      	ldr	r3, [r0, #12]
 80068d8:	68dc      	ldr	r4, [r3, #12]
	configASSERT( pxUnblockedTCB );
 80068da:	b324      	cbz	r4, 8006926 <xTaskRemoveFromEventList+0x52>
	( void ) uxListRemove( &( pxUnblockedTCB->xEventListItem ) );
 80068dc:	f104 0518 	add.w	r5, r4, #24
 80068e0:	4628      	mov	r0, r5
 80068e2:	f7ff f921 	bl	8005b28 <uxListRemove>
	if( uxSchedulerSuspended == ( UBaseType_t ) pdFALSE )
 80068e6:	4b18      	ldr	r3, [pc, #96]	@ (8006948 <xTaskRemoveFromEventList+0x74>)
 80068e8:	681b      	ldr	r3, [r3, #0]
 80068ea:	bb2b      	cbnz	r3, 8006938 <xTaskRemoveFromEventList+0x64>
		( void ) uxListRemove( &( pxUnblockedTCB->xStateListItem ) );
 80068ec:	1d25      	adds	r5, r4, #4
 80068ee:	4628      	mov	r0, r5
 80068f0:	f7ff f91a 	bl	8005b28 <uxListRemove>
		prvAddTaskToReadyList( pxUnblockedTCB );
 80068f4:	6ae0      	ldr	r0, [r4, #44]	@ 0x2c
 80068f6:	2301      	movs	r3, #1
 80068f8:	4083      	lsls	r3, r0
 80068fa:	4a14      	ldr	r2, [pc, #80]	@ (800694c <xTaskRemoveFromEventList+0x78>)
 80068fc:	6811      	ldr	r1, [r2, #0]
 80068fe:	430b      	orrs	r3, r1
 8006900:	6013      	str	r3, [r2, #0]
 8006902:	eb00 0080 	add.w	r0, r0, r0, lsl #2
 8006906:	4629      	mov	r1, r5
 8006908:	4b11      	ldr	r3, [pc, #68]	@ (8006950 <xTaskRemoveFromEventList+0x7c>)
 800690a:	eb03 0080 	add.w	r0, r3, r0, lsl #2
 800690e:	f7ff f8e7 	bl	8005ae0 <vListInsertEnd>
	if( pxUnblockedTCB->uxPriority > pxCurrentTCB->uxPriority )
 8006912:	6ae2      	ldr	r2, [r4, #44]	@ 0x2c
 8006914:	4b0f      	ldr	r3, [pc, #60]	@ (8006954 <xTaskRemoveFromEventList+0x80>)
 8006916:	681b      	ldr	r3, [r3, #0]
 8006918:	6adb      	ldr	r3, [r3, #44]	@ 0x2c
 800691a:	429a      	cmp	r2, r3
 800691c:	d911      	bls.n	8006942 <xTaskRemoveFromEventList+0x6e>
		xYieldPending = pdTRUE;
 800691e:	2001      	movs	r0, #1
 8006920:	4b0d      	ldr	r3, [pc, #52]	@ (8006958 <xTaskRemoveFromEventList+0x84>)
 8006922:	6018      	str	r0, [r3, #0]
}
 8006924:	bd38      	pop	{r3, r4, r5, pc}
 8006926:	f04f 0350 	mov.w	r3, #80	@ 0x50
 800692a:	f383 8811 	msr	BASEPRI, r3
 800692e:	f3bf 8f6f 	isb	sy
 8006932:	f3bf 8f4f 	dsb	sy
	configASSERT( pxUnblockedTCB );
 8006936:	e7fe      	b.n	8006936 <xTaskRemoveFromEventList+0x62>
		vListInsertEnd( &( xPendingReadyList ), &( pxUnblockedTCB->xEventListItem ) );
 8006938:	4629      	mov	r1, r5
 800693a:	4808      	ldr	r0, [pc, #32]	@ (800695c <xTaskRemoveFromEventList+0x88>)
 800693c:	f7ff f8d0 	bl	8005ae0 <vListInsertEnd>
 8006940:	e7e7      	b.n	8006912 <xTaskRemoveFromEventList+0x3e>
		xReturn = pdFALSE;
 8006942:	2000      	movs	r0, #0
	return xReturn;
 8006944:	e7ee      	b.n	8006924 <xTaskRemoveFromEventList+0x50>
 8006946:	bf00      	nop
 8006948:	20001930 	.word	0x20001930
 800694c:	20001950 	.word	0x20001950
 8006950:	200019cc 	.word	0x200019cc
 8006954:	20001a58 	.word	0x20001a58
 8006958:	20001944 	.word	0x20001944
 800695c:	20001988 	.word	0x20001988

08006960 <vTaskInternalSetTimeOutState>:
	pxTimeOut->xOverflowCount = xNumOfOverflows;
 8006960:	4b03      	ldr	r3, [pc, #12]	@ (8006970 <vTaskInternalSetTimeOutState+0x10>)
 8006962:	681b      	ldr	r3, [r3, #0]
 8006964:	6003      	str	r3, [r0, #0]
	pxTimeOut->xTimeOnEntering = xTickCount;
 8006966:	4b03      	ldr	r3, [pc, #12]	@ (8006974 <vTaskInternalSetTimeOutState+0x14>)
 8006968:	681b      	ldr	r3, [r3, #0]
 800696a:	6043      	str	r3, [r0, #4]
}
 800696c:	4770      	bx	lr
 800696e:	bf00      	nop
 8006970:	20001940 	.word	0x20001940
 8006974:	20001954 	.word	0x20001954

08006978 <xTaskCheckForTimeOut>:
	configASSERT( pxTimeOut );
 8006978:	b1d8      	cbz	r0, 80069b2 <xTaskCheckForTimeOut+0x3a>
{
 800697a:	b570      	push	{r4, r5, r6, lr}
 800697c:	460c      	mov	r4, r1
 800697e:	4605      	mov	r5, r0
	configASSERT( pxTicksToWait );
 8006980:	b301      	cbz	r1, 80069c4 <xTaskCheckForTimeOut+0x4c>
	taskENTER_CRITICAL();
 8006982:	f000 f8ff 	bl	8006b84 <vPortEnterCritical>
		const TickType_t xConstTickCount = xTickCount;
 8006986:	4b1b      	ldr	r3, [pc, #108]	@ (80069f4 <xTaskCheckForTimeOut+0x7c>)
 8006988:	6819      	ldr	r1, [r3, #0]
		const TickType_t xElapsedTime = xConstTickCount - pxTimeOut->xTimeOnEntering;
 800698a:	686b      	ldr	r3, [r5, #4]
 800698c:	1ac8      	subs	r0, r1, r3
			if( *pxTicksToWait == portMAX_DELAY )
 800698e:	6822      	ldr	r2, [r4, #0]
 8006990:	f1b2 3fff 	cmp.w	r2, #4294967295
 8006994:	d027      	beq.n	80069e6 <xTaskCheckForTimeOut+0x6e>
		if( ( xNumOfOverflows != pxTimeOut->xOverflowCount ) && ( xConstTickCount >= pxTimeOut->xTimeOnEntering ) ) /*lint !e525 Indentation preferred as is to make code within pre-processor directives clearer. */
 8006996:	4e18      	ldr	r6, [pc, #96]	@ (80069f8 <xTaskCheckForTimeOut+0x80>)
 8006998:	6836      	ldr	r6, [r6, #0]
 800699a:	f8d5 c000 	ldr.w	ip, [r5]
 800699e:	45b4      	cmp	ip, r6
 80069a0:	d001      	beq.n	80069a6 <xTaskCheckForTimeOut+0x2e>
 80069a2:	428b      	cmp	r3, r1
 80069a4:	d924      	bls.n	80069f0 <xTaskCheckForTimeOut+0x78>
		else if( xElapsedTime < *pxTicksToWait ) /*lint !e961 Explicit casting is only redundant with some compilers, whereas others require it to prevent integer conversion errors. */
 80069a6:	4282      	cmp	r2, r0
 80069a8:	d815      	bhi.n	80069d6 <xTaskCheckForTimeOut+0x5e>
			*pxTicksToWait = 0;
 80069aa:	2300      	movs	r3, #0
 80069ac:	6023      	str	r3, [r4, #0]
			xReturn = pdTRUE;
 80069ae:	2401      	movs	r4, #1
 80069b0:	e01a      	b.n	80069e8 <xTaskCheckForTimeOut+0x70>
 80069b2:	f04f 0350 	mov.w	r3, #80	@ 0x50
 80069b6:	f383 8811 	msr	BASEPRI, r3
 80069ba:	f3bf 8f6f 	isb	sy
 80069be:	f3bf 8f4f 	dsb	sy
	configASSERT( pxTimeOut );
 80069c2:	e7fe      	b.n	80069c2 <xTaskCheckForTimeOut+0x4a>
 80069c4:	f04f 0350 	mov.w	r3, #80	@ 0x50
 80069c8:	f383 8811 	msr	BASEPRI, r3
 80069cc:	f3bf 8f6f 	isb	sy
 80069d0:	f3bf 8f4f 	dsb	sy
	configASSERT( pxTicksToWait );
 80069d4:	e7fe      	b.n	80069d4 <xTaskCheckForTimeOut+0x5c>
			*pxTicksToWait -= xElapsedTime;
 80069d6:	1a5b      	subs	r3, r3, r1
 80069d8:	4413      	add	r3, r2
 80069da:	6023      	str	r3, [r4, #0]
			vTaskInternalSetTimeOutState( pxTimeOut );
 80069dc:	4628      	mov	r0, r5
 80069de:	f7ff ffbf 	bl	8006960 <vTaskInternalSetTimeOutState>
			xReturn = pdFALSE;
 80069e2:	2400      	movs	r4, #0
 80069e4:	e000      	b.n	80069e8 <xTaskCheckForTimeOut+0x70>
				xReturn = pdFALSE;
 80069e6:	2400      	movs	r4, #0
	taskEXIT_CRITICAL();
 80069e8:	f000 f8ee 	bl	8006bc8 <vPortExitCritical>
}
 80069ec:	4620      	mov	r0, r4
 80069ee:	bd70      	pop	{r4, r5, r6, pc}
			xReturn = pdTRUE;
 80069f0:	2401      	movs	r4, #1
 80069f2:	e7f9      	b.n	80069e8 <xTaskCheckForTimeOut+0x70>
 80069f4:	20001954 	.word	0x20001954
 80069f8:	20001940 	.word	0x20001940

080069fc <vTaskMissedYield>:
	xYieldPending = pdTRUE;
 80069fc:	4b01      	ldr	r3, [pc, #4]	@ (8006a04 <vTaskMissedYield+0x8>)
 80069fe:	2201      	movs	r2, #1
 8006a00:	601a      	str	r2, [r3, #0]
}
 8006a02:	4770      	bx	lr
 8006a04:	20001944 	.word	0x20001944

08006a08 <xTaskGetSchedulerState>:
		if( xSchedulerRunning == pdFALSE )
 8006a08:	4b05      	ldr	r3, [pc, #20]	@ (8006a20 <xTaskGetSchedulerState+0x18>)
 8006a0a:	681b      	ldr	r3, [r3, #0]
 8006a0c:	b133      	cbz	r3, 8006a1c <xTaskGetSchedulerState+0x14>
			if( uxSchedulerSuspended == ( UBaseType_t ) pdFALSE )
 8006a0e:	4b05      	ldr	r3, [pc, #20]	@ (8006a24 <xTaskGetSchedulerState+0x1c>)
 8006a10:	681b      	ldr	r3, [r3, #0]
 8006a12:	b10b      	cbz	r3, 8006a18 <xTaskGetSchedulerState+0x10>
				xReturn = taskSCHEDULER_SUSPENDED;
 8006a14:	2000      	movs	r0, #0
	}
 8006a16:	4770      	bx	lr
				xReturn = taskSCHEDULER_RUNNING;
 8006a18:	2002      	movs	r0, #2
 8006a1a:	4770      	bx	lr
			xReturn = taskSCHEDULER_NOT_STARTED;
 8006a1c:	2001      	movs	r0, #1
 8006a1e:	4770      	bx	lr
 8006a20:	2000194c 	.word	0x2000194c
 8006a24:	20001930 	.word	0x20001930

08006a28 <xTaskPriorityDisinherit>:
		if( pxMutexHolder != NULL )
 8006a28:	2800      	cmp	r0, #0
 8006a2a:	d04b      	beq.n	8006ac4 <xTaskPriorityDisinherit+0x9c>
	{
 8006a2c:	b538      	push	{r3, r4, r5, lr}
 8006a2e:	4604      	mov	r4, r0
			configASSERT( pxTCB == pxCurrentTCB );
 8006a30:	4b26      	ldr	r3, [pc, #152]	@ (8006acc <xTaskPriorityDisinherit+0xa4>)
 8006a32:	681b      	ldr	r3, [r3, #0]
 8006a34:	4283      	cmp	r3, r0
 8006a36:	d008      	beq.n	8006a4a <xTaskPriorityDisinherit+0x22>
 8006a38:	f04f 0350 	mov.w	r3, #80	@ 0x50
 8006a3c:	f383 8811 	msr	BASEPRI, r3
 8006a40:	f3bf 8f6f 	isb	sy
 8006a44:	f3bf 8f4f 	dsb	sy
 8006a48:	e7fe      	b.n	8006a48 <xTaskPriorityDisinherit+0x20>
			configASSERT( pxTCB->uxMutexesHeld );
 8006a4a:	6c83      	ldr	r3, [r0, #72]	@ 0x48
 8006a4c:	b943      	cbnz	r3, 8006a60 <xTaskPriorityDisinherit+0x38>
 8006a4e:	f04f 0350 	mov.w	r3, #80	@ 0x50
 8006a52:	f383 8811 	msr	BASEPRI, r3
 8006a56:	f3bf 8f6f 	isb	sy
 8006a5a:	f3bf 8f4f 	dsb	sy
 8006a5e:	e7fe      	b.n	8006a5e <xTaskPriorityDisinherit+0x36>
			( pxTCB->uxMutexesHeld )--;
 8006a60:	3b01      	subs	r3, #1
 8006a62:	6483      	str	r3, [r0, #72]	@ 0x48
			if( pxTCB->uxPriority != pxTCB->uxBasePriority )
 8006a64:	6ac1      	ldr	r1, [r0, #44]	@ 0x2c
 8006a66:	6c42      	ldr	r2, [r0, #68]	@ 0x44
 8006a68:	4291      	cmp	r1, r2
 8006a6a:	d02d      	beq.n	8006ac8 <xTaskPriorityDisinherit+0xa0>
				if( pxTCB->uxMutexesHeld == ( UBaseType_t ) 0 )
 8006a6c:	b10b      	cbz	r3, 8006a72 <xTaskPriorityDisinherit+0x4a>
	BaseType_t xReturn = pdFALSE;
 8006a6e:	2000      	movs	r0, #0
	}
 8006a70:	bd38      	pop	{r3, r4, r5, pc}
					if( uxListRemove( &( pxTCB->xStateListItem ) ) == ( UBaseType_t ) 0 )
 8006a72:	1d05      	adds	r5, r0, #4
 8006a74:	4628      	mov	r0, r5
 8006a76:	f7ff f857 	bl	8005b28 <uxListRemove>
 8006a7a:	b968      	cbnz	r0, 8006a98 <xTaskPriorityDisinherit+0x70>
						taskRESET_READY_PRIORITY( pxTCB->uxPriority );
 8006a7c:	6ae3      	ldr	r3, [r4, #44]	@ 0x2c
 8006a7e:	eb03 0283 	add.w	r2, r3, r3, lsl #2
 8006a82:	0092      	lsls	r2, r2, #2
 8006a84:	4912      	ldr	r1, [pc, #72]	@ (8006ad0 <xTaskPriorityDisinherit+0xa8>)
 8006a86:	588a      	ldr	r2, [r1, r2]
 8006a88:	b932      	cbnz	r2, 8006a98 <xTaskPriorityDisinherit+0x70>
 8006a8a:	2201      	movs	r2, #1
 8006a8c:	409a      	lsls	r2, r3
 8006a8e:	4911      	ldr	r1, [pc, #68]	@ (8006ad4 <xTaskPriorityDisinherit+0xac>)
 8006a90:	680b      	ldr	r3, [r1, #0]
 8006a92:	ea23 0302 	bic.w	r3, r3, r2
 8006a96:	600b      	str	r3, [r1, #0]
					pxTCB->uxPriority = pxTCB->uxBasePriority;
 8006a98:	6c60      	ldr	r0, [r4, #68]	@ 0x44
 8006a9a:	62e0      	str	r0, [r4, #44]	@ 0x2c
					listSET_LIST_ITEM_VALUE( &( pxTCB->xEventListItem ), ( TickType_t ) configMAX_PRIORITIES - ( TickType_t ) pxTCB->uxPriority ); /*lint !e961 MISRA exception as the casts are only redundant for some ports. */
 8006a9c:	f1c0 0307 	rsb	r3, r0, #7
 8006aa0:	61a3      	str	r3, [r4, #24]
					prvAddTaskToReadyList( pxTCB );
 8006aa2:	2401      	movs	r4, #1
 8006aa4:	fa04 f300 	lsl.w	r3, r4, r0
 8006aa8:	4a0a      	ldr	r2, [pc, #40]	@ (8006ad4 <xTaskPriorityDisinherit+0xac>)
 8006aaa:	6811      	ldr	r1, [r2, #0]
 8006aac:	430b      	orrs	r3, r1
 8006aae:	6013      	str	r3, [r2, #0]
 8006ab0:	eb00 0080 	add.w	r0, r0, r0, lsl #2
 8006ab4:	4629      	mov	r1, r5
 8006ab6:	4b06      	ldr	r3, [pc, #24]	@ (8006ad0 <xTaskPriorityDisinherit+0xa8>)
 8006ab8:	eb03 0080 	add.w	r0, r3, r0, lsl #2
 8006abc:	f7ff f810 	bl	8005ae0 <vListInsertEnd>
					xReturn = pdTRUE;
 8006ac0:	4620      	mov	r0, r4
 8006ac2:	e7d5      	b.n	8006a70 <xTaskPriorityDisinherit+0x48>
	BaseType_t xReturn = pdFALSE;
 8006ac4:	2000      	movs	r0, #0
	}
 8006ac6:	4770      	bx	lr
	BaseType_t xReturn = pdFALSE;
 8006ac8:	2000      	movs	r0, #0
 8006aca:	e7d1      	b.n	8006a70 <xTaskPriorityDisinherit+0x48>
 8006acc:	20001a58 	.word	0x20001a58
 8006ad0:	200019cc 	.word	0x200019cc
 8006ad4:	20001950 	.word	0x20001950

08006ad8 <prvTaskExitError>:
	return pxTopOfStack;
}
/*-----------------------------------------------------------*/

static void prvTaskExitError( void )
{
 8006ad8:	b082      	sub	sp, #8
volatile uint32_t ulDummy = 0UL;
 8006ada:	2300      	movs	r3, #0
 8006adc:	9301      	str	r3, [sp, #4]
	its caller as there is nothing to return to.  If a task wants to exit it
	should instead call vTaskDelete( NULL ).

	Artificially force an assert() to be triggered if configASSERT() is
	defined, then stop here so application writers can catch the error. */
	configASSERT( uxCriticalNesting == ~0UL );
 8006ade:	4b0d      	ldr	r3, [pc, #52]	@ (8006b14 <prvTaskExitError+0x3c>)
 8006ae0:	681b      	ldr	r3, [r3, #0]
 8006ae2:	f1b3 3fff 	cmp.w	r3, #4294967295
 8006ae6:	d008      	beq.n	8006afa <prvTaskExitError+0x22>
 8006ae8:	f04f 0350 	mov.w	r3, #80	@ 0x50
 8006aec:	f383 8811 	msr	BASEPRI, r3
 8006af0:	f3bf 8f6f 	isb	sy
 8006af4:	f3bf 8f4f 	dsb	sy
 8006af8:	e7fe      	b.n	8006af8 <prvTaskExitError+0x20>
 8006afa:	f04f 0350 	mov.w	r3, #80	@ 0x50
 8006afe:	f383 8811 	msr	BASEPRI, r3
 8006b02:	f3bf 8f6f 	isb	sy
 8006b06:	f3bf 8f4f 	dsb	sy
	portDISABLE_INTERRUPTS();
	while( ulDummy == 0 )
 8006b0a:	9b01      	ldr	r3, [sp, #4]
 8006b0c:	2b00      	cmp	r3, #0
 8006b0e:	d0fc      	beq.n	8006b0a <prvTaskExitError+0x32>
		about code appearing after this function is called - making ulDummy
		volatile makes the compiler think the function could return and
		therefore not output an 'unreachable code' warning for code that appears
		after it. */
	}
}
 8006b10:	b002      	add	sp, #8
 8006b12:	4770      	bx	lr
 8006b14:	20000054 	.word	0x20000054

08006b18 <prvPortStartFirstTask>:
}
/*-----------------------------------------------------------*/

static void prvPortStartFirstTask( void )
{
	__asm volatile(
 8006b18:	4806      	ldr	r0, [pc, #24]	@ (8006b34 <prvPortStartFirstTask+0x1c>)
 8006b1a:	6800      	ldr	r0, [r0, #0]
 8006b1c:	6800      	ldr	r0, [r0, #0]
 8006b1e:	f380 8808 	msr	MSP, r0
 8006b22:	b662      	cpsie	i
 8006b24:	b661      	cpsie	f
 8006b26:	f3bf 8f4f 	dsb	sy
 8006b2a:	f3bf 8f6f 	isb	sy
 8006b2e:	df00      	svc	0
 8006b30:	bf00      	nop
					" dsb					\n"
					" isb					\n"
					" svc 0					\n" /* System call to start first task. */
					" nop					\n"
				);
}
 8006b32:	0000      	.short	0x0000
 8006b34:	e000ed08 	.word	0xe000ed08

08006b38 <pxPortInitialiseStack>:
	*pxTopOfStack = portINITIAL_XPSR;	/* xPSR */
 8006b38:	f04f 7380 	mov.w	r3, #16777216	@ 0x1000000
 8006b3c:	f840 3c04 	str.w	r3, [r0, #-4]
	*pxTopOfStack = ( ( StackType_t ) pxCode ) & portSTART_ADDRESS_MASK;	/* PC */
 8006b40:	f021 0101 	bic.w	r1, r1, #1
 8006b44:	f840 1c08 	str.w	r1, [r0, #-8]
	*pxTopOfStack = ( StackType_t ) portTASK_RETURN_ADDRESS;	/* LR */
 8006b48:	4b03      	ldr	r3, [pc, #12]	@ (8006b58 <pxPortInitialiseStack+0x20>)
 8006b4a:	f840 3c0c 	str.w	r3, [r0, #-12]
	*pxTopOfStack = ( StackType_t ) pvParameters;	/* R0 */
 8006b4e:	f840 2c20 	str.w	r2, [r0, #-32]
}
 8006b52:	3840      	subs	r0, #64	@ 0x40
 8006b54:	4770      	bx	lr
 8006b56:	bf00      	nop
 8006b58:	08006ad9 	.word	0x08006ad9
 8006b5c:	00000000 	.word	0x00000000

08006b60 <SVC_Handler>:
	__asm volatile (
 8006b60:	4b07      	ldr	r3, [pc, #28]	@ (8006b80 <pxCurrentTCBConst2>)
 8006b62:	6819      	ldr	r1, [r3, #0]
 8006b64:	6808      	ldr	r0, [r1, #0]
 8006b66:	e8b0 0ff0 	ldmia.w	r0!, {r4, r5, r6, r7, r8, r9, sl, fp}
 8006b6a:	f380 8809 	msr	PSP, r0
 8006b6e:	f3bf 8f6f 	isb	sy
 8006b72:	f04f 0000 	mov.w	r0, #0
 8006b76:	f380 8811 	msr	BASEPRI, r0
 8006b7a:	f04e 0e0d 	orr.w	lr, lr, #13
 8006b7e:	4770      	bx	lr

08006b80 <pxCurrentTCBConst2>:
 8006b80:	20001a58 	.word	0x20001a58

08006b84 <vPortEnterCritical>:
 8006b84:	f04f 0350 	mov.w	r3, #80	@ 0x50
 8006b88:	f383 8811 	msr	BASEPRI, r3
 8006b8c:	f3bf 8f6f 	isb	sy
 8006b90:	f3bf 8f4f 	dsb	sy
/*-----------------------------------------------------------*/

void vPortEnterCritical( void )
{
	portDISABLE_INTERRUPTS();
	uxCriticalNesting++;
 8006b94:	4a0b      	ldr	r2, [pc, #44]	@ (8006bc4 <vPortEnterCritical+0x40>)
 8006b96:	6813      	ldr	r3, [r2, #0]
 8006b98:	3301      	adds	r3, #1
 8006b9a:	6013      	str	r3, [r2, #0]
	/* This is not the interrupt safe version of the enter critical function so
	assert() if it is being called from an interrupt context.  Only API
	functions that end in "FromISR" can be used in an interrupt.  Only assert if
	the critical nesting count is 1 to protect against recursive calls if the
	assert function also uses a critical section. */
	if( uxCriticalNesting == 1 )
 8006b9c:	2b01      	cmp	r3, #1
 8006b9e:	d000      	beq.n	8006ba2 <vPortEnterCritical+0x1e>
	{
		configASSERT( ( portNVIC_INT_CTRL_REG & portVECTACTIVE_MASK ) == 0 );
	}
}
 8006ba0:	4770      	bx	lr
		configASSERT( ( portNVIC_INT_CTRL_REG & portVECTACTIVE_MASK ) == 0 );
 8006ba2:	f04f 23e0 	mov.w	r3, #3758153728	@ 0xe000e000
 8006ba6:	f8d3 3d04 	ldr.w	r3, [r3, #3332]	@ 0xd04
 8006baa:	f013 0fff 	tst.w	r3, #255	@ 0xff
 8006bae:	d0f7      	beq.n	8006ba0 <vPortEnterCritical+0x1c>
 8006bb0:	f04f 0350 	mov.w	r3, #80	@ 0x50
 8006bb4:	f383 8811 	msr	BASEPRI, r3
 8006bb8:	f3bf 8f6f 	isb	sy
 8006bbc:	f3bf 8f4f 	dsb	sy
 8006bc0:	e7fe      	b.n	8006bc0 <vPortEnterCritical+0x3c>
 8006bc2:	bf00      	nop
 8006bc4:	20000054 	.word	0x20000054

08006bc8 <vPortExitCritical>:
/*-----------------------------------------------------------*/

void vPortExitCritical( void )
{
	configASSERT( uxCriticalNesting );
 8006bc8:	4b09      	ldr	r3, [pc, #36]	@ (8006bf0 <vPortExitCritical+0x28>)
 8006bca:	681b      	ldr	r3, [r3, #0]
 8006bcc:	b943      	cbnz	r3, 8006be0 <vPortExitCritical+0x18>
 8006bce:	f04f 0350 	mov.w	r3, #80	@ 0x50
 8006bd2:	f383 8811 	msr	BASEPRI, r3
 8006bd6:	f3bf 8f6f 	isb	sy
 8006bda:	f3bf 8f4f 	dsb	sy
 8006bde:	e7fe      	b.n	8006bde <vPortExitCritical+0x16>
	uxCriticalNesting--;
 8006be0:	3b01      	subs	r3, #1
 8006be2:	4a03      	ldr	r2, [pc, #12]	@ (8006bf0 <vPortExitCritical+0x28>)
 8006be4:	6013      	str	r3, [r2, #0]
	if( uxCriticalNesting == 0 )
 8006be6:	b90b      	cbnz	r3, 8006bec <vPortExitCritical+0x24>
}
/*-----------------------------------------------------------*/

portFORCE_INLINE static void vPortSetBASEPRI( uint32_t ulNewMaskValue )
{
	__asm volatile
 8006be8:	f383 8811 	msr	BASEPRI, r3
	{
		portENABLE_INTERRUPTS();
	}
}
 8006bec:	4770      	bx	lr
 8006bee:	bf00      	nop
 8006bf0:	20000054 	.word	0x20000054
	...

08006c00 <PendSV_Handler>:

void xPortPendSVHandler( void )
{
	/* This is a naked function. */

	__asm volatile
 8006c00:	f3ef 8009 	mrs	r0, PSP
 8006c04:	f3bf 8f6f 	isb	sy
 8006c08:	4b0d      	ldr	r3, [pc, #52]	@ (8006c40 <pxCurrentTCBConst>)
 8006c0a:	681a      	ldr	r2, [r3, #0]
 8006c0c:	e920 0ff0 	stmdb	r0!, {r4, r5, r6, r7, r8, r9, sl, fp}
 8006c10:	6010      	str	r0, [r2, #0]
 8006c12:	e92d 4008 	stmdb	sp!, {r3, lr}
 8006c16:	f04f 0050 	mov.w	r0, #80	@ 0x50
 8006c1a:	f380 8811 	msr	BASEPRI, r0
 8006c1e:	f7ff fdef 	bl	8006800 <vTaskSwitchContext>
 8006c22:	f04f 0000 	mov.w	r0, #0
 8006c26:	f380 8811 	msr	BASEPRI, r0
 8006c2a:	e8bd 4008 	ldmia.w	sp!, {r3, lr}
 8006c2e:	6819      	ldr	r1, [r3, #0]
 8006c30:	6808      	ldr	r0, [r1, #0]
 8006c32:	e8b0 0ff0 	ldmia.w	r0!, {r4, r5, r6, r7, r8, r9, sl, fp}
 8006c36:	f380 8809 	msr	PSP, r0
 8006c3a:	f3bf 8f6f 	isb	sy
 8006c3e:	4770      	bx	lr

08006c40 <pxCurrentTCBConst>:
 8006c40:	20001a58 	.word	0x20001a58

08006c44 <SysTick_Handler>:
	);
}
/*-----------------------------------------------------------*/

void xPortSysTickHandler( void )
{
 8006c44:	b508      	push	{r3, lr}
	__asm volatile
 8006c46:	f04f 0350 	mov.w	r3, #80	@ 0x50
 8006c4a:	f383 8811 	msr	BASEPRI, r3
 8006c4e:	f3bf 8f6f 	isb	sy
 8006c52:	f3bf 8f4f 	dsb	sy
	save and then restore the interrupt mask value as its value is already
	known. */
	portDISABLE_INTERRUPTS();
	{
		/* Increment the RTOS tick. */
		if( xTaskIncrementTick() != pdFALSE )
 8006c56:	f7ff fca5 	bl	80065a4 <xTaskIncrementTick>
 8006c5a:	b128      	cbz	r0, 8006c68 <SysTick_Handler+0x24>
		{
			/* A context switch is required.  Context switching is performed in
			the PendSV interrupt.  Pend the PendSV interrupt. */
			portNVIC_INT_CTRL_REG = portNVIC_PENDSVSET_BIT;
 8006c5c:	f04f 23e0 	mov.w	r3, #3758153728	@ 0xe000e000
 8006c60:	f04f 5280 	mov.w	r2, #268435456	@ 0x10000000
 8006c64:	f8c3 2d04 	str.w	r2, [r3, #3332]	@ 0xd04
	__asm volatile
 8006c68:	2300      	movs	r3, #0
 8006c6a:	f383 8811 	msr	BASEPRI, r3
		}
	}
	portENABLE_INTERRUPTS();
}
 8006c6e:	bd08      	pop	{r3, pc}

08006c70 <vPortSetupTimerInterrupt>:
		ulStoppedTimerCompensation = portMISSED_COUNTS_FACTOR / ( configCPU_CLOCK_HZ / configSYSTICK_CLOCK_HZ );
	}
	#endif /* configUSE_TICKLESS_IDLE */

	/* Stop and clear the SysTick. */
	portNVIC_SYSTICK_CTRL_REG = 0UL;
 8006c70:	f04f 22e0 	mov.w	r2, #3758153728	@ 0xe000e000
 8006c74:	2300      	movs	r3, #0
 8006c76:	6113      	str	r3, [r2, #16]
	portNVIC_SYSTICK_CURRENT_VALUE_REG = 0UL;
 8006c78:	6193      	str	r3, [r2, #24]

	/* Configure SysTick to interrupt at the requested rate. */
	portNVIC_SYSTICK_LOAD_REG = ( configSYSTICK_CLOCK_HZ / configTICK_RATE_HZ ) - 1UL;
 8006c7a:	4b05      	ldr	r3, [pc, #20]	@ (8006c90 <vPortSetupTimerInterrupt+0x20>)
 8006c7c:	681b      	ldr	r3, [r3, #0]
 8006c7e:	4905      	ldr	r1, [pc, #20]	@ (8006c94 <vPortSetupTimerInterrupt+0x24>)
 8006c80:	fba1 1303 	umull	r1, r3, r1, r3
 8006c84:	099b      	lsrs	r3, r3, #6
 8006c86:	3b01      	subs	r3, #1
 8006c88:	6153      	str	r3, [r2, #20]
	portNVIC_SYSTICK_CTRL_REG = ( portNVIC_SYSTICK_CLK_BIT | portNVIC_SYSTICK_INT_BIT | portNVIC_SYSTICK_ENABLE_BIT );
 8006c8a:	2307      	movs	r3, #7
 8006c8c:	6113      	str	r3, [r2, #16]
}
 8006c8e:	4770      	bx	lr
 8006c90:	20000048 	.word	0x20000048
 8006c94:	10624dd3 	.word	0x10624dd3

08006c98 <xPortStartScheduler>:
{
 8006c98:	b510      	push	{r4, lr}
 8006c9a:	b082      	sub	sp, #8
		ulOriginalPriority = *pucFirstUserPriorityRegister;
 8006c9c:	4b2a      	ldr	r3, [pc, #168]	@ (8006d48 <xPortStartScheduler+0xb0>)
 8006c9e:	781a      	ldrb	r2, [r3, #0]
 8006ca0:	b2d2      	uxtb	r2, r2
 8006ca2:	9201      	str	r2, [sp, #4]
		*pucFirstUserPriorityRegister = portMAX_8_BIT_VALUE;
 8006ca4:	22ff      	movs	r2, #255	@ 0xff
 8006ca6:	701a      	strb	r2, [r3, #0]
		ucMaxPriorityValue = *pucFirstUserPriorityRegister;
 8006ca8:	781b      	ldrb	r3, [r3, #0]
 8006caa:	b2db      	uxtb	r3, r3
 8006cac:	f88d 3003 	strb.w	r3, [sp, #3]
		ucMaxSysCallPriority = configMAX_SYSCALL_INTERRUPT_PRIORITY & ucMaxPriorityValue;
 8006cb0:	f89d 3003 	ldrb.w	r3, [sp, #3]
 8006cb4:	f003 0350 	and.w	r3, r3, #80	@ 0x50
 8006cb8:	4a24      	ldr	r2, [pc, #144]	@ (8006d4c <xPortStartScheduler+0xb4>)
 8006cba:	7013      	strb	r3, [r2, #0]
		ulMaxPRIGROUPValue = portMAX_PRIGROUP_BITS;
 8006cbc:	4b24      	ldr	r3, [pc, #144]	@ (8006d50 <xPortStartScheduler+0xb8>)
 8006cbe:	2207      	movs	r2, #7
 8006cc0:	601a      	str	r2, [r3, #0]
		while( ( ucMaxPriorityValue & portTOP_BIT_OF_BYTE ) == portTOP_BIT_OF_BYTE )
 8006cc2:	e009      	b.n	8006cd8 <xPortStartScheduler+0x40>
			ulMaxPRIGROUPValue--;
 8006cc4:	4a22      	ldr	r2, [pc, #136]	@ (8006d50 <xPortStartScheduler+0xb8>)
 8006cc6:	6813      	ldr	r3, [r2, #0]
 8006cc8:	3b01      	subs	r3, #1
 8006cca:	6013      	str	r3, [r2, #0]
			ucMaxPriorityValue <<= ( uint8_t ) 0x01;
 8006ccc:	f89d 3003 	ldrb.w	r3, [sp, #3]
 8006cd0:	005b      	lsls	r3, r3, #1
 8006cd2:	b2db      	uxtb	r3, r3
 8006cd4:	f88d 3003 	strb.w	r3, [sp, #3]
		while( ( ucMaxPriorityValue & portTOP_BIT_OF_BYTE ) == portTOP_BIT_OF_BYTE )
 8006cd8:	f89d 3003 	ldrb.w	r3, [sp, #3]
 8006cdc:	f013 0f80 	tst.w	r3, #128	@ 0x80
 8006ce0:	d1f0      	bne.n	8006cc4 <xPortStartScheduler+0x2c>
			configASSERT( ( portMAX_PRIGROUP_BITS - ulMaxPRIGROUPValue ) == configPRIO_BITS );
 8006ce2:	4b1b      	ldr	r3, [pc, #108]	@ (8006d50 <xPortStartScheduler+0xb8>)
 8006ce4:	681b      	ldr	r3, [r3, #0]
 8006ce6:	2b03      	cmp	r3, #3
 8006ce8:	d008      	beq.n	8006cfc <xPortStartScheduler+0x64>
	__asm volatile
 8006cea:	f04f 0350 	mov.w	r3, #80	@ 0x50
 8006cee:	f383 8811 	msr	BASEPRI, r3
 8006cf2:	f3bf 8f6f 	isb	sy
 8006cf6:	f3bf 8f4f 	dsb	sy
 8006cfa:	e7fe      	b.n	8006cfa <xPortStartScheduler+0x62>
		ulMaxPRIGROUPValue <<= portPRIGROUP_SHIFT;
 8006cfc:	021b      	lsls	r3, r3, #8
 8006cfe:	4a14      	ldr	r2, [pc, #80]	@ (8006d50 <xPortStartScheduler+0xb8>)
 8006d00:	6013      	str	r3, [r2, #0]
		ulMaxPRIGROUPValue &= portPRIORITY_GROUP_MASK;
 8006d02:	f403 63e0 	and.w	r3, r3, #1792	@ 0x700
 8006d06:	6013      	str	r3, [r2, #0]
		*pucFirstUserPriorityRegister = ulOriginalPriority;
 8006d08:	9b01      	ldr	r3, [sp, #4]
 8006d0a:	b2db      	uxtb	r3, r3
 8006d0c:	4a0e      	ldr	r2, [pc, #56]	@ (8006d48 <xPortStartScheduler+0xb0>)
 8006d0e:	7013      	strb	r3, [r2, #0]
	portNVIC_SYSPRI2_REG |= portNVIC_PENDSV_PRI;
 8006d10:	f04f 23e0 	mov.w	r3, #3758153728	@ 0xe000e000
 8006d14:	f8d3 2d20 	ldr.w	r2, [r3, #3360]	@ 0xd20
 8006d18:	f442 0270 	orr.w	r2, r2, #15728640	@ 0xf00000
 8006d1c:	f8c3 2d20 	str.w	r2, [r3, #3360]	@ 0xd20
	portNVIC_SYSPRI2_REG |= portNVIC_SYSTICK_PRI;
 8006d20:	f8d3 2d20 	ldr.w	r2, [r3, #3360]	@ 0xd20
 8006d24:	f042 4270 	orr.w	r2, r2, #4026531840	@ 0xf0000000
 8006d28:	f8c3 2d20 	str.w	r2, [r3, #3360]	@ 0xd20
	vPortSetupTimerInterrupt();
 8006d2c:	f7ff ffa0 	bl	8006c70 <vPortSetupTimerInterrupt>
	uxCriticalNesting = 0;
 8006d30:	2400      	movs	r4, #0
 8006d32:	4b08      	ldr	r3, [pc, #32]	@ (8006d54 <xPortStartScheduler+0xbc>)
 8006d34:	601c      	str	r4, [r3, #0]
	prvPortStartFirstTask();
 8006d36:	f7ff feef 	bl	8006b18 <prvPortStartFirstTask>
	vTaskSwitchContext();
 8006d3a:	f7ff fd61 	bl	8006800 <vTaskSwitchContext>
	prvTaskExitError();
 8006d3e:	f7ff fecb 	bl	8006ad8 <prvTaskExitError>
}
 8006d42:	4620      	mov	r0, r4
 8006d44:	b002      	add	sp, #8
 8006d46:	bd10      	pop	{r4, pc}
 8006d48:	e000e400 	.word	0xe000e400
 8006d4c:	20001a60 	.word	0x20001a60
 8006d50:	20001a5c 	.word	0x20001a5c
 8006d54:	20000054 	.word	0x20000054

08006d58 <prvHeapInit>:
uint8_t *pucAlignedHeap;
size_t uxAddress;
size_t xTotalHeapSize = configTOTAL_HEAP_SIZE;

	/* Ensure the heap starts on a correctly aligned boundary. */
	uxAddress = ( size_t ) ucHeap;
 8006d58:	4a12      	ldr	r2, [pc, #72]	@ (8006da4 <prvHeapInit+0x4c>)

	if( ( uxAddress & portBYTE_ALIGNMENT_MASK ) != 0 )
 8006d5a:	f012 0f07 	tst.w	r2, #7
 8006d5e:	d01e      	beq.n	8006d9e <prvHeapInit+0x46>
	{
		uxAddress += ( portBYTE_ALIGNMENT - 1 );
 8006d60:	1dd1      	adds	r1, r2, #7
		uxAddress &= ~( ( size_t ) portBYTE_ALIGNMENT_MASK );
 8006d62:	f021 0107 	bic.w	r1, r1, #7
		xTotalHeapSize -= uxAddress - ( size_t ) ucHeap;
 8006d66:	f5c1 53fa 	rsb	r3, r1, #8000	@ 0x1f40
 8006d6a:	4413      	add	r3, r2
		uxAddress &= ~( ( size_t ) portBYTE_ALIGNMENT_MASK );
 8006d6c:	460a      	mov	r2, r1

	pucAlignedHeap = ( uint8_t * ) uxAddress;

	/* xStart is used to hold a pointer to the first item in the list of free
	blocks.  The void cast is used to prevent compiler warnings. */
	xStart.pxNextFreeBlock = ( void * ) pucAlignedHeap;
 8006d6e:	480e      	ldr	r0, [pc, #56]	@ (8006da8 <prvHeapInit+0x50>)
 8006d70:	6002      	str	r2, [r0, #0]
	xStart.xBlockSize = ( size_t ) 0;
 8006d72:	2100      	movs	r1, #0
 8006d74:	6041      	str	r1, [r0, #4]

	/* pxEnd is used to mark the end of the list of free blocks and is inserted
	at the end of the heap space. */
	uxAddress = ( ( size_t ) pucAlignedHeap ) + xTotalHeapSize;
 8006d76:	4413      	add	r3, r2
	uxAddress -= xHeapStructSize;
 8006d78:	3b08      	subs	r3, #8
	uxAddress &= ~( ( size_t ) portBYTE_ALIGNMENT_MASK );
 8006d7a:	f023 0307 	bic.w	r3, r3, #7
	pxEnd = ( void * ) uxAddress;
 8006d7e:	480b      	ldr	r0, [pc, #44]	@ (8006dac <prvHeapInit+0x54>)
 8006d80:	6003      	str	r3, [r0, #0]
	pxEnd->xBlockSize = 0;
 8006d82:	6059      	str	r1, [r3, #4]
	pxEnd->pxNextFreeBlock = NULL;
 8006d84:	6019      	str	r1, [r3, #0]

	/* To start with there is a single free block that is sized to take up the
	entire heap space, minus the space taken by pxEnd. */
	pxFirstFreeBlock = ( void * ) pucAlignedHeap;
	pxFirstFreeBlock->xBlockSize = uxAddress - ( size_t ) pxFirstFreeBlock;
 8006d86:	1a99      	subs	r1, r3, r2
 8006d88:	6051      	str	r1, [r2, #4]
	pxFirstFreeBlock->pxNextFreeBlock = pxEnd;
 8006d8a:	6013      	str	r3, [r2, #0]

	/* Only one block exists - and it covers the entire usable heap space. */
	xMinimumEverFreeBytesRemaining = pxFirstFreeBlock->xBlockSize;
 8006d8c:	4b08      	ldr	r3, [pc, #32]	@ (8006db0 <prvHeapInit+0x58>)
 8006d8e:	6019      	str	r1, [r3, #0]
	xFreeBytesRemaining = pxFirstFreeBlock->xBlockSize;
 8006d90:	4b08      	ldr	r3, [pc, #32]	@ (8006db4 <prvHeapInit+0x5c>)
 8006d92:	6019      	str	r1, [r3, #0]

	/* Work out the position of the top bit in a size_t variable. */
	xBlockAllocatedBit = ( ( size_t ) 1 ) << ( ( sizeof( size_t ) * heapBITS_PER_BYTE ) - 1 );
 8006d94:	4b08      	ldr	r3, [pc, #32]	@ (8006db8 <prvHeapInit+0x60>)
 8006d96:	f04f 4200 	mov.w	r2, #2147483648	@ 0x80000000
 8006d9a:	601a      	str	r2, [r3, #0]
}
 8006d9c:	4770      	bx	lr
size_t xTotalHeapSize = configTOTAL_HEAP_SIZE;
 8006d9e:	f44f 53fa 	mov.w	r3, #8000	@ 0x1f40
 8006da2:	e7e4      	b.n	8006d6e <prvHeapInit+0x16>
 8006da4:	20001a84 	.word	0x20001a84
 8006da8:	20001a7c 	.word	0x20001a7c
 8006dac:	20001a78 	.word	0x20001a78
 8006db0:	20001a70 	.word	0x20001a70
 8006db4:	20001a74 	.word	0x20001a74
 8006db8:	20001a64 	.word	0x20001a64

08006dbc <prvInsertBlockIntoFreeList>:
BlockLink_t *pxIterator;
uint8_t *puc;

	/* Iterate through the list until a block is found that has a higher address
	than the block being inserted. */
	for( pxIterator = &xStart; pxIterator->pxNextFreeBlock < pxBlockToInsert; pxIterator = pxIterator->pxNextFreeBlock )
 8006dbc:	4b15      	ldr	r3, [pc, #84]	@ (8006e14 <prvInsertBlockIntoFreeList+0x58>)
 8006dbe:	461a      	mov	r2, r3
 8006dc0:	681b      	ldr	r3, [r3, #0]
 8006dc2:	4283      	cmp	r3, r0
 8006dc4:	d3fb      	bcc.n	8006dbe <prvInsertBlockIntoFreeList+0x2>
	}

	/* Do the block being inserted, and the block it is being inserted after
	make a contiguous block of memory? */
	puc = ( uint8_t * ) pxIterator;
	if( ( puc + pxIterator->xBlockSize ) == ( uint8_t * ) pxBlockToInsert )
 8006dc6:	6851      	ldr	r1, [r2, #4]
 8006dc8:	eb02 0c01 	add.w	ip, r2, r1
 8006dcc:	4584      	cmp	ip, r0
 8006dce:	d009      	beq.n	8006de4 <prvInsertBlockIntoFreeList+0x28>
	}

	/* Do the block being inserted, and the block it is being inserted before
	make a contiguous block of memory? */
	puc = ( uint8_t * ) pxBlockToInsert;
	if( ( puc + pxBlockToInsert->xBlockSize ) == ( uint8_t * ) pxIterator->pxNextFreeBlock )
 8006dd0:	6841      	ldr	r1, [r0, #4]
 8006dd2:	eb00 0c01 	add.w	ip, r0, r1
 8006dd6:	4563      	cmp	r3, ip
 8006dd8:	d009      	beq.n	8006dee <prvInsertBlockIntoFreeList+0x32>
			pxBlockToInsert->pxNextFreeBlock = pxEnd;
		}
	}
	else
	{
		pxBlockToInsert->pxNextFreeBlock = pxIterator->pxNextFreeBlock;
 8006dda:	6003      	str	r3, [r0, #0]

	/* If the block being inserted plugged a gab, so was merged with the block
	before and the block after, then it's pxNextFreeBlock pointer will have
	already been set, and should not be set here as that would make it point
	to itself. */
	if( pxIterator != pxBlockToInsert )
 8006ddc:	4290      	cmp	r0, r2
 8006dde:	d018      	beq.n	8006e12 <prvInsertBlockIntoFreeList+0x56>
	{
		pxIterator->pxNextFreeBlock = pxBlockToInsert;
 8006de0:	6010      	str	r0, [r2, #0]
	}
	else
	{
		mtCOVERAGE_TEST_MARKER();
 8006de2:	4770      	bx	lr
		pxIterator->xBlockSize += pxBlockToInsert->xBlockSize;
 8006de4:	6840      	ldr	r0, [r0, #4]
 8006de6:	4401      	add	r1, r0
 8006de8:	6051      	str	r1, [r2, #4]
		pxBlockToInsert = pxIterator;
 8006dea:	4610      	mov	r0, r2
 8006dec:	e7f0      	b.n	8006dd0 <prvInsertBlockIntoFreeList+0x14>
{
 8006dee:	b410      	push	{r4}
		if( pxIterator->pxNextFreeBlock != pxEnd )
 8006df0:	4c09      	ldr	r4, [pc, #36]	@ (8006e18 <prvInsertBlockIntoFreeList+0x5c>)
 8006df2:	6824      	ldr	r4, [r4, #0]
 8006df4:	42a3      	cmp	r3, r4
 8006df6:	d00a      	beq.n	8006e0e <prvInsertBlockIntoFreeList+0x52>
			pxBlockToInsert->xBlockSize += pxIterator->pxNextFreeBlock->xBlockSize;
 8006df8:	685b      	ldr	r3, [r3, #4]
 8006dfa:	4419      	add	r1, r3
 8006dfc:	6041      	str	r1, [r0, #4]
			pxBlockToInsert->pxNextFreeBlock = pxIterator->pxNextFreeBlock->pxNextFreeBlock;
 8006dfe:	6813      	ldr	r3, [r2, #0]
 8006e00:	681b      	ldr	r3, [r3, #0]
 8006e02:	6003      	str	r3, [r0, #0]
	if( pxIterator != pxBlockToInsert )
 8006e04:	4290      	cmp	r0, r2
 8006e06:	d000      	beq.n	8006e0a <prvInsertBlockIntoFreeList+0x4e>
		pxIterator->pxNextFreeBlock = pxBlockToInsert;
 8006e08:	6010      	str	r0, [r2, #0]
	}
}
 8006e0a:	bc10      	pop	{r4}
 8006e0c:	4770      	bx	lr
			pxBlockToInsert->pxNextFreeBlock = pxEnd;
 8006e0e:	6004      	str	r4, [r0, #0]
 8006e10:	e7f8      	b.n	8006e04 <prvInsertBlockIntoFreeList+0x48>
 8006e12:	4770      	bx	lr
 8006e14:	20001a7c 	.word	0x20001a7c
 8006e18:	20001a78 	.word	0x20001a78

08006e1c <pvPortMalloc>:
{
 8006e1c:	b538      	push	{r3, r4, r5, lr}
 8006e1e:	4604      	mov	r4, r0
	vTaskSuspendAll();
 8006e20:	f7ff fbb8 	bl	8006594 <vTaskSuspendAll>
		if( pxEnd == NULL )
 8006e24:	4b38      	ldr	r3, [pc, #224]	@ (8006f08 <pvPortMalloc+0xec>)
 8006e26:	681b      	ldr	r3, [r3, #0]
 8006e28:	b1b3      	cbz	r3, 8006e58 <pvPortMalloc+0x3c>
		if( ( xWantedSize & xBlockAllocatedBit ) == 0 )
 8006e2a:	4b38      	ldr	r3, [pc, #224]	@ (8006f0c <pvPortMalloc+0xf0>)
 8006e2c:	681b      	ldr	r3, [r3, #0]
 8006e2e:	421c      	tst	r4, r3
 8006e30:	d150      	bne.n	8006ed4 <pvPortMalloc+0xb8>
			if( xWantedSize > 0 )
 8006e32:	2c00      	cmp	r4, #0
 8006e34:	d050      	beq.n	8006ed8 <pvPortMalloc+0xbc>
				xWantedSize += xHeapStructSize;
 8006e36:	f104 0208 	add.w	r2, r4, #8
				if( ( xWantedSize & portBYTE_ALIGNMENT_MASK ) != 0x00 )
 8006e3a:	f014 0f07 	tst.w	r4, #7
 8006e3e:	d002      	beq.n	8006e46 <pvPortMalloc+0x2a>
					xWantedSize += ( portBYTE_ALIGNMENT - ( xWantedSize & portBYTE_ALIGNMENT_MASK ) );
 8006e40:	f022 0207 	bic.w	r2, r2, #7
 8006e44:	3208      	adds	r2, #8
			if( ( xWantedSize > 0 ) && ( xWantedSize <= xFreeBytesRemaining ) )
 8006e46:	2a00      	cmp	r2, #0
 8006e48:	d055      	beq.n	8006ef6 <pvPortMalloc+0xda>
 8006e4a:	4b31      	ldr	r3, [pc, #196]	@ (8006f10 <pvPortMalloc+0xf4>)
 8006e4c:	681b      	ldr	r3, [r3, #0]
 8006e4e:	4293      	cmp	r3, r2
 8006e50:	d353      	bcc.n	8006efa <pvPortMalloc+0xde>
				pxBlock = xStart.pxNextFreeBlock;
 8006e52:	4930      	ldr	r1, [pc, #192]	@ (8006f14 <pvPortMalloc+0xf8>)
 8006e54:	680c      	ldr	r4, [r1, #0]
				while( ( pxBlock->xBlockSize < xWantedSize ) && ( pxBlock->pxNextFreeBlock != NULL ) )
 8006e56:	e004      	b.n	8006e62 <pvPortMalloc+0x46>
			prvHeapInit();
 8006e58:	f7ff ff7e 	bl	8006d58 <prvHeapInit>
 8006e5c:	e7e5      	b.n	8006e2a <pvPortMalloc+0xe>
					pxPreviousBlock = pxBlock;
 8006e5e:	4621      	mov	r1, r4
					pxBlock = pxBlock->pxNextFreeBlock;
 8006e60:	461c      	mov	r4, r3
				while( ( pxBlock->xBlockSize < xWantedSize ) && ( pxBlock->pxNextFreeBlock != NULL ) )
 8006e62:	6863      	ldr	r3, [r4, #4]
 8006e64:	4293      	cmp	r3, r2
 8006e66:	d202      	bcs.n	8006e6e <pvPortMalloc+0x52>
 8006e68:	6823      	ldr	r3, [r4, #0]
 8006e6a:	2b00      	cmp	r3, #0
 8006e6c:	d1f7      	bne.n	8006e5e <pvPortMalloc+0x42>
				if( pxBlock != pxEnd )
 8006e6e:	4b26      	ldr	r3, [pc, #152]	@ (8006f08 <pvPortMalloc+0xec>)
 8006e70:	681b      	ldr	r3, [r3, #0]
 8006e72:	42a3      	cmp	r3, r4
 8006e74:	d043      	beq.n	8006efe <pvPortMalloc+0xe2>
					pvReturn = ( void * ) ( ( ( uint8_t * ) pxPreviousBlock->pxNextFreeBlock ) + xHeapStructSize );
 8006e76:	680d      	ldr	r5, [r1, #0]
 8006e78:	3508      	adds	r5, #8
					pxPreviousBlock->pxNextFreeBlock = pxBlock->pxNextFreeBlock;
 8006e7a:	6823      	ldr	r3, [r4, #0]
 8006e7c:	600b      	str	r3, [r1, #0]
					if( ( pxBlock->xBlockSize - xWantedSize ) > heapMINIMUM_BLOCK_SIZE )
 8006e7e:	6863      	ldr	r3, [r4, #4]
 8006e80:	1a9b      	subs	r3, r3, r2
 8006e82:	2b10      	cmp	r3, #16
 8006e84:	d910      	bls.n	8006ea8 <pvPortMalloc+0x8c>
						pxNewBlockLink = ( void * ) ( ( ( uint8_t * ) pxBlock ) + xWantedSize );
 8006e86:	18a0      	adds	r0, r4, r2
						configASSERT( ( ( ( size_t ) pxNewBlockLink ) & portBYTE_ALIGNMENT_MASK ) == 0 );
 8006e88:	f010 0f07 	tst.w	r0, #7
 8006e8c:	d008      	beq.n	8006ea0 <pvPortMalloc+0x84>
 8006e8e:	f04f 0350 	mov.w	r3, #80	@ 0x50
 8006e92:	f383 8811 	msr	BASEPRI, r3
 8006e96:	f3bf 8f6f 	isb	sy
 8006e9a:	f3bf 8f4f 	dsb	sy
 8006e9e:	e7fe      	b.n	8006e9e <pvPortMalloc+0x82>
						pxNewBlockLink->xBlockSize = pxBlock->xBlockSize - xWantedSize;
 8006ea0:	6043      	str	r3, [r0, #4]
						pxBlock->xBlockSize = xWantedSize;
 8006ea2:	6062      	str	r2, [r4, #4]
						prvInsertBlockIntoFreeList( pxNewBlockLink );
 8006ea4:	f7ff ff8a 	bl	8006dbc <prvInsertBlockIntoFreeList>
					xFreeBytesRemaining -= pxBlock->xBlockSize;
 8006ea8:	6862      	ldr	r2, [r4, #4]
 8006eaa:	4919      	ldr	r1, [pc, #100]	@ (8006f10 <pvPortMalloc+0xf4>)
 8006eac:	680b      	ldr	r3, [r1, #0]
 8006eae:	1a9b      	subs	r3, r3, r2
 8006eb0:	600b      	str	r3, [r1, #0]
					if( xFreeBytesRemaining < xMinimumEverFreeBytesRemaining )
 8006eb2:	4919      	ldr	r1, [pc, #100]	@ (8006f18 <pvPortMalloc+0xfc>)
 8006eb4:	6809      	ldr	r1, [r1, #0]
 8006eb6:	428b      	cmp	r3, r1
 8006eb8:	d201      	bcs.n	8006ebe <pvPortMalloc+0xa2>
						xMinimumEverFreeBytesRemaining = xFreeBytesRemaining;
 8006eba:	4917      	ldr	r1, [pc, #92]	@ (8006f18 <pvPortMalloc+0xfc>)
 8006ebc:	600b      	str	r3, [r1, #0]
					pxBlock->xBlockSize |= xBlockAllocatedBit;
 8006ebe:	4b13      	ldr	r3, [pc, #76]	@ (8006f0c <pvPortMalloc+0xf0>)
 8006ec0:	681b      	ldr	r3, [r3, #0]
 8006ec2:	4313      	orrs	r3, r2
 8006ec4:	6063      	str	r3, [r4, #4]
					pxBlock->pxNextFreeBlock = NULL;
 8006ec6:	2300      	movs	r3, #0
 8006ec8:	6023      	str	r3, [r4, #0]
					xNumberOfSuccessfulAllocations++;
 8006eca:	4a14      	ldr	r2, [pc, #80]	@ (8006f1c <pvPortMalloc+0x100>)
 8006ecc:	6813      	ldr	r3, [r2, #0]
 8006ece:	3301      	adds	r3, #1
 8006ed0:	6013      	str	r3, [r2, #0]
 8006ed2:	e002      	b.n	8006eda <pvPortMalloc+0xbe>
void *pvReturn = NULL;
 8006ed4:	2500      	movs	r5, #0
 8006ed6:	e000      	b.n	8006eda <pvPortMalloc+0xbe>
 8006ed8:	2500      	movs	r5, #0
	( void ) xTaskResumeAll();
 8006eda:	f7ff fbef 	bl	80066bc <xTaskResumeAll>
	configASSERT( ( ( ( size_t ) pvReturn ) & ( size_t ) portBYTE_ALIGNMENT_MASK ) == 0 );
 8006ede:	f015 0f07 	tst.w	r5, #7
 8006ee2:	d00e      	beq.n	8006f02 <pvPortMalloc+0xe6>
 8006ee4:	f04f 0350 	mov.w	r3, #80	@ 0x50
 8006ee8:	f383 8811 	msr	BASEPRI, r3
 8006eec:	f3bf 8f6f 	isb	sy
 8006ef0:	f3bf 8f4f 	dsb	sy
 8006ef4:	e7fe      	b.n	8006ef4 <pvPortMalloc+0xd8>
void *pvReturn = NULL;
 8006ef6:	2500      	movs	r5, #0
 8006ef8:	e7ef      	b.n	8006eda <pvPortMalloc+0xbe>
 8006efa:	2500      	movs	r5, #0
 8006efc:	e7ed      	b.n	8006eda <pvPortMalloc+0xbe>
 8006efe:	2500      	movs	r5, #0
 8006f00:	e7eb      	b.n	8006eda <pvPortMalloc+0xbe>
}
 8006f02:	4628      	mov	r0, r5
 8006f04:	bd38      	pop	{r3, r4, r5, pc}
 8006f06:	bf00      	nop
 8006f08:	20001a78 	.word	0x20001a78
 8006f0c:	20001a64 	.word	0x20001a64
 8006f10:	20001a74 	.word	0x20001a74
 8006f14:	20001a7c 	.word	0x20001a7c
 8006f18:	20001a70 	.word	0x20001a70
 8006f1c:	20001a6c 	.word	0x20001a6c

08006f20 <vPortFree>:
	if( pv != NULL )
 8006f20:	2800      	cmp	r0, #0
 8006f22:	d034      	beq.n	8006f8e <vPortFree+0x6e>
{
 8006f24:	b538      	push	{r3, r4, r5, lr}
 8006f26:	4604      	mov	r4, r0
		puc -= xHeapStructSize;
 8006f28:	f1a0 0508 	sub.w	r5, r0, #8
		configASSERT( ( pxLink->xBlockSize & xBlockAllocatedBit ) != 0 );
 8006f2c:	f850 3c04 	ldr.w	r3, [r0, #-4]
 8006f30:	4a17      	ldr	r2, [pc, #92]	@ (8006f90 <vPortFree+0x70>)
 8006f32:	6812      	ldr	r2, [r2, #0]
 8006f34:	4213      	tst	r3, r2
 8006f36:	d108      	bne.n	8006f4a <vPortFree+0x2a>
 8006f38:	f04f 0350 	mov.w	r3, #80	@ 0x50
 8006f3c:	f383 8811 	msr	BASEPRI, r3
 8006f40:	f3bf 8f6f 	isb	sy
 8006f44:	f3bf 8f4f 	dsb	sy
 8006f48:	e7fe      	b.n	8006f48 <vPortFree+0x28>
		configASSERT( pxLink->pxNextFreeBlock == NULL );
 8006f4a:	f850 1c08 	ldr.w	r1, [r0, #-8]
 8006f4e:	b141      	cbz	r1, 8006f62 <vPortFree+0x42>
 8006f50:	f04f 0350 	mov.w	r3, #80	@ 0x50
 8006f54:	f383 8811 	msr	BASEPRI, r3
 8006f58:	f3bf 8f6f 	isb	sy
 8006f5c:	f3bf 8f4f 	dsb	sy
 8006f60:	e7fe      	b.n	8006f60 <vPortFree+0x40>
				pxLink->xBlockSize &= ~xBlockAllocatedBit;
 8006f62:	ea23 0302 	bic.w	r3, r3, r2
 8006f66:	f840 3c04 	str.w	r3, [r0, #-4]
				vTaskSuspendAll();
 8006f6a:	f7ff fb13 	bl	8006594 <vTaskSuspendAll>
					xFreeBytesRemaining += pxLink->xBlockSize;
 8006f6e:	f854 1c04 	ldr.w	r1, [r4, #-4]
 8006f72:	4a08      	ldr	r2, [pc, #32]	@ (8006f94 <vPortFree+0x74>)
 8006f74:	6813      	ldr	r3, [r2, #0]
 8006f76:	440b      	add	r3, r1
 8006f78:	6013      	str	r3, [r2, #0]
					prvInsertBlockIntoFreeList( ( ( BlockLink_t * ) pxLink ) );
 8006f7a:	4628      	mov	r0, r5
 8006f7c:	f7ff ff1e 	bl	8006dbc <prvInsertBlockIntoFreeList>
					xNumberOfSuccessfulFrees++;
 8006f80:	4a05      	ldr	r2, [pc, #20]	@ (8006f98 <vPortFree+0x78>)
 8006f82:	6813      	ldr	r3, [r2, #0]
 8006f84:	3301      	adds	r3, #1
 8006f86:	6013      	str	r3, [r2, #0]
				( void ) xTaskResumeAll();
 8006f88:	f7ff fb98 	bl	80066bc <xTaskResumeAll>
}
 8006f8c:	bd38      	pop	{r3, r4, r5, pc}
 8006f8e:	4770      	bx	lr
 8006f90:	20001a64 	.word	0x20001a64
 8006f94:	20001a74 	.word	0x20001a74
 8006f98:	20001a68 	.word	0x20001a68

08006f9c <__assert_func>:
 8006f9c:	b51f      	push	{r0, r1, r2, r3, r4, lr}
 8006f9e:	4614      	mov	r4, r2
 8006fa0:	461a      	mov	r2, r3
 8006fa2:	4b09      	ldr	r3, [pc, #36]	@ (8006fc8 <__assert_func+0x2c>)
 8006fa4:	4605      	mov	r5, r0
 8006fa6:	681b      	ldr	r3, [r3, #0]
 8006fa8:	68d8      	ldr	r0, [r3, #12]
 8006faa:	b14c      	cbz	r4, 8006fc0 <__assert_func+0x24>
 8006fac:	4b07      	ldr	r3, [pc, #28]	@ (8006fcc <__assert_func+0x30>)
 8006fae:	e9cd 3401 	strd	r3, r4, [sp, #4]
 8006fb2:	9100      	str	r1, [sp, #0]
 8006fb4:	462b      	mov	r3, r5
 8006fb6:	4906      	ldr	r1, [pc, #24]	@ (8006fd0 <__assert_func+0x34>)
 8006fb8:	f000 f960 	bl	800727c <fiprintf>
 8006fbc:	f000 fbdf 	bl	800777e <abort>
 8006fc0:	4b04      	ldr	r3, [pc, #16]	@ (8006fd4 <__assert_func+0x38>)
 8006fc2:	461c      	mov	r4, r3
 8006fc4:	e7f3      	b.n	8006fae <__assert_func+0x12>
 8006fc6:	bf00      	nop
 8006fc8:	20000064 	.word	0x20000064
 8006fcc:	0800a4f4 	.word	0x0800a4f4
 8006fd0:	0800a501 	.word	0x0800a501
 8006fd4:	0800a52f 	.word	0x0800a52f

08006fd8 <sbrk_aligned>:
 8006fd8:	b570      	push	{r4, r5, r6, lr}
 8006fda:	4e0f      	ldr	r6, [pc, #60]	@ (8007018 <sbrk_aligned+0x40>)
 8006fdc:	460c      	mov	r4, r1
 8006fde:	6831      	ldr	r1, [r6, #0]
 8006fe0:	4605      	mov	r5, r0
 8006fe2:	b911      	cbnz	r1, 8006fea <sbrk_aligned+0x12>
 8006fe4:	f000 fb6e 	bl	80076c4 <_sbrk_r>
 8006fe8:	6030      	str	r0, [r6, #0]
 8006fea:	4621      	mov	r1, r4
 8006fec:	4628      	mov	r0, r5
 8006fee:	f000 fb69 	bl	80076c4 <_sbrk_r>
 8006ff2:	1c43      	adds	r3, r0, #1
 8006ff4:	d103      	bne.n	8006ffe <sbrk_aligned+0x26>
 8006ff6:	f04f 34ff 	mov.w	r4, #4294967295
 8006ffa:	4620      	mov	r0, r4
 8006ffc:	bd70      	pop	{r4, r5, r6, pc}
 8006ffe:	1cc4      	adds	r4, r0, #3
 8007000:	f024 0403 	bic.w	r4, r4, #3
 8007004:	42a0      	cmp	r0, r4
 8007006:	d0f8      	beq.n	8006ffa <sbrk_aligned+0x22>
 8007008:	1a21      	subs	r1, r4, r0
 800700a:	4628      	mov	r0, r5
 800700c:	f000 fb5a 	bl	80076c4 <_sbrk_r>
 8007010:	3001      	adds	r0, #1
 8007012:	d1f2      	bne.n	8006ffa <sbrk_aligned+0x22>
 8007014:	e7ef      	b.n	8006ff6 <sbrk_aligned+0x1e>
 8007016:	bf00      	nop
 8007018:	200039c4 	.word	0x200039c4

0800701c <_malloc_r>:
 800701c:	e92d 43f8 	stmdb	sp!, {r3, r4, r5, r6, r7, r8, r9, lr}
 8007020:	1ccd      	adds	r5, r1, #3
 8007022:	f025 0503 	bic.w	r5, r5, #3
 8007026:	3508      	adds	r5, #8
 8007028:	2d0c      	cmp	r5, #12
 800702a:	bf38      	it	cc
 800702c:	250c      	movcc	r5, #12
 800702e:	2d00      	cmp	r5, #0
 8007030:	4606      	mov	r6, r0
 8007032:	db01      	blt.n	8007038 <_malloc_r+0x1c>
 8007034:	42a9      	cmp	r1, r5
 8007036:	d904      	bls.n	8007042 <_malloc_r+0x26>
 8007038:	230c      	movs	r3, #12
 800703a:	6033      	str	r3, [r6, #0]
 800703c:	2000      	movs	r0, #0
 800703e:	e8bd 83f8 	ldmia.w	sp!, {r3, r4, r5, r6, r7, r8, r9, pc}
 8007042:	f8df 80d4 	ldr.w	r8, [pc, #212]	@ 8007118 <_malloc_r+0xfc>
 8007046:	f000 f869 	bl	800711c <__malloc_lock>
 800704a:	f8d8 3000 	ldr.w	r3, [r8]
 800704e:	461c      	mov	r4, r3
 8007050:	bb44      	cbnz	r4, 80070a4 <_malloc_r+0x88>
 8007052:	4629      	mov	r1, r5
 8007054:	4630      	mov	r0, r6
 8007056:	f7ff ffbf 	bl	8006fd8 <sbrk_aligned>
 800705a:	1c43      	adds	r3, r0, #1
 800705c:	4604      	mov	r4, r0
 800705e:	d158      	bne.n	8007112 <_malloc_r+0xf6>
 8007060:	f8d8 4000 	ldr.w	r4, [r8]
 8007064:	4627      	mov	r7, r4
 8007066:	2f00      	cmp	r7, #0
 8007068:	d143      	bne.n	80070f2 <_malloc_r+0xd6>
 800706a:	2c00      	cmp	r4, #0
 800706c:	d04b      	beq.n	8007106 <_malloc_r+0xea>
 800706e:	6823      	ldr	r3, [r4, #0]
 8007070:	4639      	mov	r1, r7
 8007072:	4630      	mov	r0, r6
 8007074:	eb04 0903 	add.w	r9, r4, r3
 8007078:	f000 fb24 	bl	80076c4 <_sbrk_r>
 800707c:	4581      	cmp	r9, r0
 800707e:	d142      	bne.n	8007106 <_malloc_r+0xea>
 8007080:	6821      	ldr	r1, [r4, #0]
 8007082:	4630      	mov	r0, r6
 8007084:	1a6d      	subs	r5, r5, r1
 8007086:	4629      	mov	r1, r5
 8007088:	f7ff ffa6 	bl	8006fd8 <sbrk_aligned>
 800708c:	3001      	adds	r0, #1
 800708e:	d03a      	beq.n	8007106 <_malloc_r+0xea>
 8007090:	6823      	ldr	r3, [r4, #0]
 8007092:	442b      	add	r3, r5
 8007094:	6023      	str	r3, [r4, #0]
 8007096:	f8d8 3000 	ldr.w	r3, [r8]
 800709a:	685a      	ldr	r2, [r3, #4]
 800709c:	bb62      	cbnz	r2, 80070f8 <_malloc_r+0xdc>
 800709e:	f8c8 7000 	str.w	r7, [r8]
 80070a2:	e00f      	b.n	80070c4 <_malloc_r+0xa8>
 80070a4:	6822      	ldr	r2, [r4, #0]
 80070a6:	1b52      	subs	r2, r2, r5
 80070a8:	d420      	bmi.n	80070ec <_malloc_r+0xd0>
 80070aa:	2a0b      	cmp	r2, #11
 80070ac:	d917      	bls.n	80070de <_malloc_r+0xc2>
 80070ae:	1961      	adds	r1, r4, r5
 80070b0:	42a3      	cmp	r3, r4
 80070b2:	6025      	str	r5, [r4, #0]
 80070b4:	bf18      	it	ne
 80070b6:	6059      	strne	r1, [r3, #4]
 80070b8:	6863      	ldr	r3, [r4, #4]
 80070ba:	bf08      	it	eq
 80070bc:	f8c8 1000 	streq.w	r1, [r8]
 80070c0:	5162      	str	r2, [r4, r5]
 80070c2:	604b      	str	r3, [r1, #4]
 80070c4:	4630      	mov	r0, r6
 80070c6:	f000 f82f 	bl	8007128 <__malloc_unlock>
 80070ca:	f104 000b 	add.w	r0, r4, #11
 80070ce:	1d23      	adds	r3, r4, #4
 80070d0:	f020 0007 	bic.w	r0, r0, #7
 80070d4:	1ac2      	subs	r2, r0, r3
 80070d6:	bf1c      	itt	ne
 80070d8:	1a1b      	subne	r3, r3, r0
 80070da:	50a3      	strne	r3, [r4, r2]
 80070dc:	e7af      	b.n	800703e <_malloc_r+0x22>
 80070de:	6862      	ldr	r2, [r4, #4]
 80070e0:	42a3      	cmp	r3, r4
 80070e2:	bf0c      	ite	eq
 80070e4:	f8c8 2000 	streq.w	r2, [r8]
 80070e8:	605a      	strne	r2, [r3, #4]
 80070ea:	e7eb      	b.n	80070c4 <_malloc_r+0xa8>
 80070ec:	4623      	mov	r3, r4
 80070ee:	6864      	ldr	r4, [r4, #4]
 80070f0:	e7ae      	b.n	8007050 <_malloc_r+0x34>
 80070f2:	463c      	mov	r4, r7
 80070f4:	687f      	ldr	r7, [r7, #4]
 80070f6:	e7b6      	b.n	8007066 <_malloc_r+0x4a>
 80070f8:	461a      	mov	r2, r3
 80070fa:	685b      	ldr	r3, [r3, #4]
 80070fc:	42a3      	cmp	r3, r4
 80070fe:	d1fb      	bne.n	80070f8 <_malloc_r+0xdc>
 8007100:	2300      	movs	r3, #0
 8007102:	6053      	str	r3, [r2, #4]
 8007104:	e7de      	b.n	80070c4 <_malloc_r+0xa8>
 8007106:	230c      	movs	r3, #12
 8007108:	4630      	mov	r0, r6
 800710a:	6033      	str	r3, [r6, #0]
 800710c:	f000 f80c 	bl	8007128 <__malloc_unlock>
 8007110:	e794      	b.n	800703c <_malloc_r+0x20>
 8007112:	6005      	str	r5, [r0, #0]
 8007114:	e7d6      	b.n	80070c4 <_malloc_r+0xa8>
 8007116:	bf00      	nop
 8007118:	200039c8 	.word	0x200039c8

0800711c <__malloc_lock>:
 800711c:	4801      	ldr	r0, [pc, #4]	@ (8007124 <__malloc_lock+0x8>)
 800711e:	f000 bb1e 	b.w	800775e <__retarget_lock_acquire_recursive>
 8007122:	bf00      	nop
 8007124:	20003b0c 	.word	0x20003b0c

08007128 <__malloc_unlock>:
 8007128:	4801      	ldr	r0, [pc, #4]	@ (8007130 <__malloc_unlock+0x8>)
 800712a:	f000 bb19 	b.w	8007760 <__retarget_lock_release_recursive>
 800712e:	bf00      	nop
 8007130:	20003b0c 	.word	0x20003b0c

08007134 <std>:
 8007134:	2300      	movs	r3, #0
 8007136:	b510      	push	{r4, lr}
 8007138:	4604      	mov	r4, r0
 800713a:	e9c0 3300 	strd	r3, r3, [r0]
 800713e:	e9c0 3304 	strd	r3, r3, [r0, #16]
 8007142:	6083      	str	r3, [r0, #8]
 8007144:	8181      	strh	r1, [r0, #12]
 8007146:	6643      	str	r3, [r0, #100]	@ 0x64
 8007148:	81c2      	strh	r2, [r0, #14]
 800714a:	6183      	str	r3, [r0, #24]
 800714c:	4619      	mov	r1, r3
 800714e:	2208      	movs	r2, #8
 8007150:	305c      	adds	r0, #92	@ 0x5c
 8007152:	f000 f9eb 	bl	800752c <memset>
 8007156:	4b0d      	ldr	r3, [pc, #52]	@ (800718c <std+0x58>)
 8007158:	6224      	str	r4, [r4, #32]
 800715a:	6263      	str	r3, [r4, #36]	@ 0x24
 800715c:	4b0c      	ldr	r3, [pc, #48]	@ (8007190 <std+0x5c>)
 800715e:	62a3      	str	r3, [r4, #40]	@ 0x28
 8007160:	4b0c      	ldr	r3, [pc, #48]	@ (8007194 <std+0x60>)
 8007162:	62e3      	str	r3, [r4, #44]	@ 0x2c
 8007164:	4b0c      	ldr	r3, [pc, #48]	@ (8007198 <std+0x64>)
 8007166:	6323      	str	r3, [r4, #48]	@ 0x30
 8007168:	4b0c      	ldr	r3, [pc, #48]	@ (800719c <std+0x68>)
 800716a:	429c      	cmp	r4, r3
 800716c:	d006      	beq.n	800717c <std+0x48>
 800716e:	f103 0268 	add.w	r2, r3, #104	@ 0x68
 8007172:	4294      	cmp	r4, r2
 8007174:	d002      	beq.n	800717c <std+0x48>
 8007176:	33d0      	adds	r3, #208	@ 0xd0
 8007178:	429c      	cmp	r4, r3
 800717a:	d105      	bne.n	8007188 <std+0x54>
 800717c:	f104 0058 	add.w	r0, r4, #88	@ 0x58
 8007180:	e8bd 4010 	ldmia.w	sp!, {r4, lr}
 8007184:	f000 baea 	b.w	800775c <__retarget_lock_init_recursive>
 8007188:	bd10      	pop	{r4, pc}
 800718a:	bf00      	nop
 800718c:	08007349 	.word	0x08007349
 8007190:	0800736b 	.word	0x0800736b
 8007194:	080073a3 	.word	0x080073a3
 8007198:	080073c7 	.word	0x080073c7
 800719c:	200039cc 	.word	0x200039cc

080071a0 <stdio_exit_handler>:
 80071a0:	4a02      	ldr	r2, [pc, #8]	@ (80071ac <stdio_exit_handler+0xc>)
 80071a2:	4903      	ldr	r1, [pc, #12]	@ (80071b0 <stdio_exit_handler+0x10>)
 80071a4:	4803      	ldr	r0, [pc, #12]	@ (80071b4 <stdio_exit_handler+0x14>)
 80071a6:	f000 b87b 	b.w	80072a0 <_fwalk_sglue>
 80071aa:	bf00      	nop
 80071ac:	20000058 	.word	0x20000058
 80071b0:	0800816d 	.word	0x0800816d
 80071b4:	20000068 	.word	0x20000068

080071b8 <cleanup_stdio>:
 80071b8:	6841      	ldr	r1, [r0, #4]
 80071ba:	4b0c      	ldr	r3, [pc, #48]	@ (80071ec <cleanup_stdio+0x34>)
 80071bc:	b510      	push	{r4, lr}
 80071be:	4299      	cmp	r1, r3
 80071c0:	4604      	mov	r4, r0
 80071c2:	d001      	beq.n	80071c8 <cleanup_stdio+0x10>
 80071c4:	f000 ffd2 	bl	800816c <_fflush_r>
 80071c8:	68a1      	ldr	r1, [r4, #8]
 80071ca:	4b09      	ldr	r3, [pc, #36]	@ (80071f0 <cleanup_stdio+0x38>)
 80071cc:	4299      	cmp	r1, r3
 80071ce:	d002      	beq.n	80071d6 <cleanup_stdio+0x1e>
 80071d0:	4620      	mov	r0, r4
 80071d2:	f000 ffcb 	bl	800816c <_fflush_r>
 80071d6:	68e1      	ldr	r1, [r4, #12]
 80071d8:	4b06      	ldr	r3, [pc, #24]	@ (80071f4 <cleanup_stdio+0x3c>)
 80071da:	4299      	cmp	r1, r3
 80071dc:	d004      	beq.n	80071e8 <cleanup_stdio+0x30>
 80071de:	4620      	mov	r0, r4
 80071e0:	e8bd 4010 	ldmia.w	sp!, {r4, lr}
 80071e4:	f000 bfc2 	b.w	800816c <_fflush_r>
 80071e8:	bd10      	pop	{r4, pc}
 80071ea:	bf00      	nop
 80071ec:	200039cc 	.word	0x200039cc
 80071f0:	20003a34 	.word	0x20003a34
 80071f4:	20003a9c 	.word	0x20003a9c

080071f8 <global_stdio_init.part.0>:
 80071f8:	b510      	push	{r4, lr}
 80071fa:	4b0b      	ldr	r3, [pc, #44]	@ (8007228 <global_stdio_init.part.0+0x30>)
 80071fc:	4c0b      	ldr	r4, [pc, #44]	@ (800722c <global_stdio_init.part.0+0x34>)
 80071fe:	4a0c      	ldr	r2, [pc, #48]	@ (8007230 <global_stdio_init.part.0+0x38>)
 8007200:	4620      	mov	r0, r4
 8007202:	601a      	str	r2, [r3, #0]
 8007204:	2104      	movs	r1, #4
 8007206:	2200      	movs	r2, #0
 8007208:	f7ff ff94 	bl	8007134 <std>
 800720c:	f104 0068 	add.w	r0, r4, #104	@ 0x68
 8007210:	2201      	movs	r2, #1
 8007212:	2109      	movs	r1, #9
 8007214:	f7ff ff8e 	bl	8007134 <std>
 8007218:	f104 00d0 	add.w	r0, r4, #208	@ 0xd0
 800721c:	2202      	movs	r2, #2
 800721e:	e8bd 4010 	ldmia.w	sp!, {r4, lr}
 8007222:	2112      	movs	r1, #18
 8007224:	f7ff bf86 	b.w	8007134 <std>
 8007228:	20003b04 	.word	0x20003b04
 800722c:	200039cc 	.word	0x200039cc
 8007230:	080071a1 	.word	0x080071a1

08007234 <__sfp_lock_acquire>:
 8007234:	4801      	ldr	r0, [pc, #4]	@ (800723c <__sfp_lock_acquire+0x8>)
 8007236:	f000 ba92 	b.w	800775e <__retarget_lock_acquire_recursive>
 800723a:	bf00      	nop
 800723c:	20003b0d 	.word	0x20003b0d

08007240 <__sfp_lock_release>:
 8007240:	4801      	ldr	r0, [pc, #4]	@ (8007248 <__sfp_lock_release+0x8>)
 8007242:	f000 ba8d 	b.w	8007760 <__retarget_lock_release_recursive>
 8007246:	bf00      	nop
 8007248:	20003b0d 	.word	0x20003b0d

0800724c <__sinit>:
 800724c:	b510      	push	{r4, lr}
 800724e:	4604      	mov	r4, r0
 8007250:	f7ff fff0 	bl	8007234 <__sfp_lock_acquire>
 8007254:	6a23      	ldr	r3, [r4, #32]
 8007256:	b11b      	cbz	r3, 8007260 <__sinit+0x14>
 8007258:	e8bd 4010 	ldmia.w	sp!, {r4, lr}
 800725c:	f7ff bff0 	b.w	8007240 <__sfp_lock_release>
 8007260:	4b04      	ldr	r3, [pc, #16]	@ (8007274 <__sinit+0x28>)
 8007262:	6223      	str	r3, [r4, #32]
 8007264:	4b04      	ldr	r3, [pc, #16]	@ (8007278 <__sinit+0x2c>)
 8007266:	681b      	ldr	r3, [r3, #0]
 8007268:	2b00      	cmp	r3, #0
 800726a:	d1f5      	bne.n	8007258 <__sinit+0xc>
 800726c:	f7ff ffc4 	bl	80071f8 <global_stdio_init.part.0>
 8007270:	e7f2      	b.n	8007258 <__sinit+0xc>
 8007272:	bf00      	nop
 8007274:	080071b9 	.word	0x080071b9
 8007278:	20003b04 	.word	0x20003b04

0800727c <fiprintf>:
 800727c:	b40e      	push	{r1, r2, r3}
 800727e:	b503      	push	{r0, r1, lr}
 8007280:	4601      	mov	r1, r0
 8007282:	ab03      	add	r3, sp, #12
 8007284:	4805      	ldr	r0, [pc, #20]	@ (800729c <fiprintf+0x20>)
 8007286:	f853 2b04 	ldr.w	r2, [r3], #4
 800728a:	6800      	ldr	r0, [r0, #0]
 800728c:	9301      	str	r3, [sp, #4]
 800728e:	f000 fc45 	bl	8007b1c <_vfiprintf_r>
 8007292:	b002      	add	sp, #8
 8007294:	f85d eb04 	ldr.w	lr, [sp], #4
 8007298:	b003      	add	sp, #12
 800729a:	4770      	bx	lr
 800729c:	20000064 	.word	0x20000064

080072a0 <_fwalk_sglue>:
 80072a0:	e92d 43f8 	stmdb	sp!, {r3, r4, r5, r6, r7, r8, r9, lr}
 80072a4:	4607      	mov	r7, r0
 80072a6:	4688      	mov	r8, r1
 80072a8:	4614      	mov	r4, r2
 80072aa:	2600      	movs	r6, #0
 80072ac:	e9d4 9501 	ldrd	r9, r5, [r4, #4]
 80072b0:	f1b9 0901 	subs.w	r9, r9, #1
 80072b4:	d505      	bpl.n	80072c2 <_fwalk_sglue+0x22>
 80072b6:	6824      	ldr	r4, [r4, #0]
 80072b8:	2c00      	cmp	r4, #0
 80072ba:	d1f7      	bne.n	80072ac <_fwalk_sglue+0xc>
 80072bc:	4630      	mov	r0, r6
 80072be:	e8bd 83f8 	ldmia.w	sp!, {r3, r4, r5, r6, r7, r8, r9, pc}
 80072c2:	89ab      	ldrh	r3, [r5, #12]
 80072c4:	2b01      	cmp	r3, #1
 80072c6:	d907      	bls.n	80072d8 <_fwalk_sglue+0x38>
 80072c8:	f9b5 300e 	ldrsh.w	r3, [r5, #14]
 80072cc:	3301      	adds	r3, #1
 80072ce:	d003      	beq.n	80072d8 <_fwalk_sglue+0x38>
 80072d0:	4629      	mov	r1, r5
 80072d2:	4638      	mov	r0, r7
 80072d4:	47c0      	blx	r8
 80072d6:	4306      	orrs	r6, r0
 80072d8:	3568      	adds	r5, #104	@ 0x68
 80072da:	e7e9      	b.n	80072b0 <_fwalk_sglue+0x10>

080072dc <sniprintf>:
 80072dc:	b40c      	push	{r2, r3}
 80072de:	b530      	push	{r4, r5, lr}
 80072e0:	4b18      	ldr	r3, [pc, #96]	@ (8007344 <sniprintf+0x68>)
 80072e2:	1e0c      	subs	r4, r1, #0
 80072e4:	681d      	ldr	r5, [r3, #0]
 80072e6:	b09d      	sub	sp, #116	@ 0x74
 80072e8:	da08      	bge.n	80072fc <sniprintf+0x20>
 80072ea:	238b      	movs	r3, #139	@ 0x8b
 80072ec:	f04f 30ff 	mov.w	r0, #4294967295
 80072f0:	602b      	str	r3, [r5, #0]
 80072f2:	b01d      	add	sp, #116	@ 0x74
 80072f4:	e8bd 4030 	ldmia.w	sp!, {r4, r5, lr}
 80072f8:	b002      	add	sp, #8
 80072fa:	4770      	bx	lr
 80072fc:	f44f 7302 	mov.w	r3, #520	@ 0x208
 8007300:	f8ad 3014 	strh.w	r3, [sp, #20]
 8007304:	f04f 0300 	mov.w	r3, #0
 8007308:	931b      	str	r3, [sp, #108]	@ 0x6c
 800730a:	bf0c      	ite	eq
 800730c:	4623      	moveq	r3, r4
 800730e:	f104 33ff 	addne.w	r3, r4, #4294967295
 8007312:	9304      	str	r3, [sp, #16]
 8007314:	9307      	str	r3, [sp, #28]
 8007316:	f64f 73ff 	movw	r3, #65535	@ 0xffff
 800731a:	9002      	str	r0, [sp, #8]
 800731c:	9006      	str	r0, [sp, #24]
 800731e:	f8ad 3016 	strh.w	r3, [sp, #22]
 8007322:	4628      	mov	r0, r5
 8007324:	ab21      	add	r3, sp, #132	@ 0x84
 8007326:	9a20      	ldr	r2, [sp, #128]	@ 0x80
 8007328:	a902      	add	r1, sp, #8
 800732a:	9301      	str	r3, [sp, #4]
 800732c:	f000 fad2 	bl	80078d4 <_svfiprintf_r>
 8007330:	1c43      	adds	r3, r0, #1
 8007332:	bfbc      	itt	lt
 8007334:	238b      	movlt	r3, #139	@ 0x8b
 8007336:	602b      	strlt	r3, [r5, #0]
 8007338:	2c00      	cmp	r4, #0
 800733a:	d0da      	beq.n	80072f2 <sniprintf+0x16>
 800733c:	2200      	movs	r2, #0
 800733e:	9b02      	ldr	r3, [sp, #8]
 8007340:	701a      	strb	r2, [r3, #0]
 8007342:	e7d6      	b.n	80072f2 <sniprintf+0x16>
 8007344:	20000064 	.word	0x20000064

08007348 <__sread>:
 8007348:	b510      	push	{r4, lr}
 800734a:	460c      	mov	r4, r1
 800734c:	f9b1 100e 	ldrsh.w	r1, [r1, #14]
 8007350:	f000 f9a6 	bl	80076a0 <_read_r>
 8007354:	2800      	cmp	r0, #0
 8007356:	bfab      	itete	ge
 8007358:	6d63      	ldrge	r3, [r4, #84]	@ 0x54
 800735a:	89a3      	ldrhlt	r3, [r4, #12]
 800735c:	181b      	addge	r3, r3, r0
 800735e:	f423 5380 	biclt.w	r3, r3, #4096	@ 0x1000
 8007362:	bfac      	ite	ge
 8007364:	6563      	strge	r3, [r4, #84]	@ 0x54
 8007366:	81a3      	strhlt	r3, [r4, #12]
 8007368:	bd10      	pop	{r4, pc}

0800736a <__swrite>:
 800736a:	e92d 41f0 	stmdb	sp!, {r4, r5, r6, r7, r8, lr}
 800736e:	461f      	mov	r7, r3
 8007370:	898b      	ldrh	r3, [r1, #12]
 8007372:	4605      	mov	r5, r0
 8007374:	05db      	lsls	r3, r3, #23
 8007376:	460c      	mov	r4, r1
 8007378:	4616      	mov	r6, r2
 800737a:	d505      	bpl.n	8007388 <__swrite+0x1e>
 800737c:	2302      	movs	r3, #2
 800737e:	2200      	movs	r2, #0
 8007380:	f9b1 100e 	ldrsh.w	r1, [r1, #14]
 8007384:	f000 f97a 	bl	800767c <_lseek_r>
 8007388:	89a3      	ldrh	r3, [r4, #12]
 800738a:	4632      	mov	r2, r6
 800738c:	f423 5380 	bic.w	r3, r3, #4096	@ 0x1000
 8007390:	81a3      	strh	r3, [r4, #12]
 8007392:	4628      	mov	r0, r5
 8007394:	463b      	mov	r3, r7
 8007396:	f9b4 100e 	ldrsh.w	r1, [r4, #14]
 800739a:	e8bd 41f0 	ldmia.w	sp!, {r4, r5, r6, r7, r8, lr}
 800739e:	f000 b9a1 	b.w	80076e4 <_write_r>

080073a2 <__sseek>:
 80073a2:	b510      	push	{r4, lr}
 80073a4:	460c      	mov	r4, r1
 80073a6:	f9b1 100e 	ldrsh.w	r1, [r1, #14]
 80073aa:	f000 f967 	bl	800767c <_lseek_r>
 80073ae:	1c43      	adds	r3, r0, #1
 80073b0:	89a3      	ldrh	r3, [r4, #12]
 80073b2:	bf15      	itete	ne
 80073b4:	6560      	strne	r0, [r4, #84]	@ 0x54
 80073b6:	f423 5380 	biceq.w	r3, r3, #4096	@ 0x1000
 80073ba:	f443 5380 	orrne.w	r3, r3, #4096	@ 0x1000
 80073be:	81a3      	strheq	r3, [r4, #12]
 80073c0:	bf18      	it	ne
 80073c2:	81a3      	strhne	r3, [r4, #12]
 80073c4:	bd10      	pop	{r4, pc}

080073c6 <__sclose>:
 80073c6:	f9b1 100e 	ldrsh.w	r1, [r1, #14]
 80073ca:	f000 b8e9 	b.w	80075a0 <_close_r>

080073ce <__swbuf_r>:
 80073ce:	b5f8      	push	{r3, r4, r5, r6, r7, lr}
 80073d0:	460e      	mov	r6, r1
 80073d2:	4614      	mov	r4, r2
 80073d4:	4605      	mov	r5, r0
 80073d6:	b118      	cbz	r0, 80073e0 <__swbuf_r+0x12>
 80073d8:	6a03      	ldr	r3, [r0, #32]
 80073da:	b90b      	cbnz	r3, 80073e0 <__swbuf_r+0x12>
 80073dc:	f7ff ff36 	bl	800724c <__sinit>
 80073e0:	69a3      	ldr	r3, [r4, #24]
 80073e2:	60a3      	str	r3, [r4, #8]
 80073e4:	89a3      	ldrh	r3, [r4, #12]
 80073e6:	071a      	lsls	r2, r3, #28
 80073e8:	d501      	bpl.n	80073ee <__swbuf_r+0x20>
 80073ea:	6923      	ldr	r3, [r4, #16]
 80073ec:	b943      	cbnz	r3, 8007400 <__swbuf_r+0x32>
 80073ee:	4621      	mov	r1, r4
 80073f0:	4628      	mov	r0, r5
 80073f2:	f000 f82b 	bl	800744c <__swsetup_r>
 80073f6:	b118      	cbz	r0, 8007400 <__swbuf_r+0x32>
 80073f8:	f04f 37ff 	mov.w	r7, #4294967295
 80073fc:	4638      	mov	r0, r7
 80073fe:	bdf8      	pop	{r3, r4, r5, r6, r7, pc}
 8007400:	6823      	ldr	r3, [r4, #0]
 8007402:	6922      	ldr	r2, [r4, #16]
 8007404:	b2f6      	uxtb	r6, r6
 8007406:	1a98      	subs	r0, r3, r2
 8007408:	6963      	ldr	r3, [r4, #20]
 800740a:	4637      	mov	r7, r6
 800740c:	4283      	cmp	r3, r0
 800740e:	dc05      	bgt.n	800741c <__swbuf_r+0x4e>
 8007410:	4621      	mov	r1, r4
 8007412:	4628      	mov	r0, r5
 8007414:	f000 feaa 	bl	800816c <_fflush_r>
 8007418:	2800      	cmp	r0, #0
 800741a:	d1ed      	bne.n	80073f8 <__swbuf_r+0x2a>
 800741c:	68a3      	ldr	r3, [r4, #8]
 800741e:	3b01      	subs	r3, #1
 8007420:	60a3      	str	r3, [r4, #8]
 8007422:	6823      	ldr	r3, [r4, #0]
 8007424:	1c5a      	adds	r2, r3, #1
 8007426:	6022      	str	r2, [r4, #0]
 8007428:	701e      	strb	r6, [r3, #0]
 800742a:	6962      	ldr	r2, [r4, #20]
 800742c:	1c43      	adds	r3, r0, #1
 800742e:	429a      	cmp	r2, r3
 8007430:	d004      	beq.n	800743c <__swbuf_r+0x6e>
 8007432:	89a3      	ldrh	r3, [r4, #12]
 8007434:	07db      	lsls	r3, r3, #31
 8007436:	d5e1      	bpl.n	80073fc <__swbuf_r+0x2e>
 8007438:	2e0a      	cmp	r6, #10
 800743a:	d1df      	bne.n	80073fc <__swbuf_r+0x2e>
 800743c:	4621      	mov	r1, r4
 800743e:	4628      	mov	r0, r5
 8007440:	f000 fe94 	bl	800816c <_fflush_r>
 8007444:	2800      	cmp	r0, #0
 8007446:	d0d9      	beq.n	80073fc <__swbuf_r+0x2e>
 8007448:	e7d6      	b.n	80073f8 <__swbuf_r+0x2a>
	...

0800744c <__swsetup_r>:
 800744c:	b538      	push	{r3, r4, r5, lr}
 800744e:	4b29      	ldr	r3, [pc, #164]	@ (80074f4 <__swsetup_r+0xa8>)
 8007450:	4605      	mov	r5, r0
 8007452:	6818      	ldr	r0, [r3, #0]
 8007454:	460c      	mov	r4, r1
 8007456:	b118      	cbz	r0, 8007460 <__swsetup_r+0x14>
 8007458:	6a03      	ldr	r3, [r0, #32]
 800745a:	b90b      	cbnz	r3, 8007460 <__swsetup_r+0x14>
 800745c:	f7ff fef6 	bl	800724c <__sinit>
 8007460:	f9b4 300c 	ldrsh.w	r3, [r4, #12]
 8007464:	0719      	lsls	r1, r3, #28
 8007466:	d422      	bmi.n	80074ae <__swsetup_r+0x62>
 8007468:	06da      	lsls	r2, r3, #27
 800746a:	d407      	bmi.n	800747c <__swsetup_r+0x30>
 800746c:	2209      	movs	r2, #9
 800746e:	602a      	str	r2, [r5, #0]
 8007470:	f043 0340 	orr.w	r3, r3, #64	@ 0x40
 8007474:	f04f 30ff 	mov.w	r0, #4294967295
 8007478:	81a3      	strh	r3, [r4, #12]
 800747a:	e033      	b.n	80074e4 <__swsetup_r+0x98>
 800747c:	0758      	lsls	r0, r3, #29
 800747e:	d512      	bpl.n	80074a6 <__swsetup_r+0x5a>
 8007480:	6b61      	ldr	r1, [r4, #52]	@ 0x34
 8007482:	b141      	cbz	r1, 8007496 <__swsetup_r+0x4a>
 8007484:	f104 0344 	add.w	r3, r4, #68	@ 0x44
 8007488:	4299      	cmp	r1, r3
 800748a:	d002      	beq.n	8007492 <__swsetup_r+0x46>
 800748c:	4628      	mov	r0, r5
 800748e:	f000 f97d 	bl	800778c <_free_r>
 8007492:	2300      	movs	r3, #0
 8007494:	6363      	str	r3, [r4, #52]	@ 0x34
 8007496:	89a3      	ldrh	r3, [r4, #12]
 8007498:	f023 0324 	bic.w	r3, r3, #36	@ 0x24
 800749c:	81a3      	strh	r3, [r4, #12]
 800749e:	2300      	movs	r3, #0
 80074a0:	6063      	str	r3, [r4, #4]
 80074a2:	6923      	ldr	r3, [r4, #16]
 80074a4:	6023      	str	r3, [r4, #0]
 80074a6:	89a3      	ldrh	r3, [r4, #12]
 80074a8:	f043 0308 	orr.w	r3, r3, #8
 80074ac:	81a3      	strh	r3, [r4, #12]
 80074ae:	6923      	ldr	r3, [r4, #16]
 80074b0:	b94b      	cbnz	r3, 80074c6 <__swsetup_r+0x7a>
 80074b2:	89a3      	ldrh	r3, [r4, #12]
 80074b4:	f403 7320 	and.w	r3, r3, #640	@ 0x280
 80074b8:	f5b3 7f00 	cmp.w	r3, #512	@ 0x200
 80074bc:	d003      	beq.n	80074c6 <__swsetup_r+0x7a>
 80074be:	4621      	mov	r1, r4
 80074c0:	4628      	mov	r0, r5
 80074c2:	f000 fea0 	bl	8008206 <__smakebuf_r>
 80074c6:	f9b4 300c 	ldrsh.w	r3, [r4, #12]
 80074ca:	f013 0201 	ands.w	r2, r3, #1
 80074ce:	d00a      	beq.n	80074e6 <__swsetup_r+0x9a>
 80074d0:	2200      	movs	r2, #0
 80074d2:	60a2      	str	r2, [r4, #8]
 80074d4:	6962      	ldr	r2, [r4, #20]
 80074d6:	4252      	negs	r2, r2
 80074d8:	61a2      	str	r2, [r4, #24]
 80074da:	6922      	ldr	r2, [r4, #16]
 80074dc:	b942      	cbnz	r2, 80074f0 <__swsetup_r+0xa4>
 80074de:	f013 0080 	ands.w	r0, r3, #128	@ 0x80
 80074e2:	d1c5      	bne.n	8007470 <__swsetup_r+0x24>
 80074e4:	bd38      	pop	{r3, r4, r5, pc}
 80074e6:	0799      	lsls	r1, r3, #30
 80074e8:	bf58      	it	pl
 80074ea:	6962      	ldrpl	r2, [r4, #20]
 80074ec:	60a2      	str	r2, [r4, #8]
 80074ee:	e7f4      	b.n	80074da <__swsetup_r+0x8e>
 80074f0:	2000      	movs	r0, #0
 80074f2:	e7f7      	b.n	80074e4 <__swsetup_r+0x98>
 80074f4:	20000064 	.word	0x20000064

080074f8 <memmove>:
 80074f8:	4288      	cmp	r0, r1
 80074fa:	b510      	push	{r4, lr}
 80074fc:	eb01 0402 	add.w	r4, r1, r2
 8007500:	d902      	bls.n	8007508 <memmove+0x10>
 8007502:	4284      	cmp	r4, r0
 8007504:	4623      	mov	r3, r4
 8007506:	d807      	bhi.n	8007518 <memmove+0x20>
 8007508:	1e43      	subs	r3, r0, #1
 800750a:	42a1      	cmp	r1, r4
 800750c:	d008      	beq.n	8007520 <memmove+0x28>
 800750e:	f811 2b01 	ldrb.w	r2, [r1], #1
 8007512:	f803 2f01 	strb.w	r2, [r3, #1]!
 8007516:	e7f8      	b.n	800750a <memmove+0x12>
 8007518:	4601      	mov	r1, r0
 800751a:	4402      	add	r2, r0
 800751c:	428a      	cmp	r2, r1
 800751e:	d100      	bne.n	8007522 <memmove+0x2a>
 8007520:	bd10      	pop	{r4, pc}
 8007522:	f813 4d01 	ldrb.w	r4, [r3, #-1]!
 8007526:	f802 4d01 	strb.w	r4, [r2, #-1]!
 800752a:	e7f7      	b.n	800751c <memmove+0x24>

0800752c <memset>:
 800752c:	4603      	mov	r3, r0
 800752e:	4402      	add	r2, r0
 8007530:	4293      	cmp	r3, r2
 8007532:	d100      	bne.n	8007536 <memset+0xa>
 8007534:	4770      	bx	lr
 8007536:	f803 1b01 	strb.w	r1, [r3], #1
 800753a:	e7f9      	b.n	8007530 <memset+0x4>

0800753c <strchr>:
 800753c:	4603      	mov	r3, r0
 800753e:	b2c9      	uxtb	r1, r1
 8007540:	4618      	mov	r0, r3
 8007542:	f813 2b01 	ldrb.w	r2, [r3], #1
 8007546:	b112      	cbz	r2, 800754e <strchr+0x12>
 8007548:	428a      	cmp	r2, r1
 800754a:	d1f9      	bne.n	8007540 <strchr+0x4>
 800754c:	4770      	bx	lr
 800754e:	2900      	cmp	r1, #0
 8007550:	bf18      	it	ne
 8007552:	2000      	movne	r0, #0
 8007554:	4770      	bx	lr

08007556 <strncmp>:
 8007556:	b510      	push	{r4, lr}
 8007558:	b16a      	cbz	r2, 8007576 <strncmp+0x20>
 800755a:	3901      	subs	r1, #1
 800755c:	1884      	adds	r4, r0, r2
 800755e:	f810 2b01 	ldrb.w	r2, [r0], #1
 8007562:	f811 3f01 	ldrb.w	r3, [r1, #1]!
 8007566:	429a      	cmp	r2, r3
 8007568:	d103      	bne.n	8007572 <strncmp+0x1c>
 800756a:	42a0      	cmp	r0, r4
 800756c:	d001      	beq.n	8007572 <strncmp+0x1c>
 800756e:	2a00      	cmp	r2, #0
 8007570:	d1f5      	bne.n	800755e <strncmp+0x8>
 8007572:	1ad0      	subs	r0, r2, r3
 8007574:	bd10      	pop	{r4, pc}
 8007576:	4610      	mov	r0, r2
 8007578:	e7fc      	b.n	8007574 <strncmp+0x1e>

0800757a <strncpy>:
 800757a:	4603      	mov	r3, r0
 800757c:	b510      	push	{r4, lr}
 800757e:	3901      	subs	r1, #1
 8007580:	b132      	cbz	r2, 8007590 <strncpy+0x16>
 8007582:	f811 4f01 	ldrb.w	r4, [r1, #1]!
 8007586:	3a01      	subs	r2, #1
 8007588:	f803 4b01 	strb.w	r4, [r3], #1
 800758c:	2c00      	cmp	r4, #0
 800758e:	d1f7      	bne.n	8007580 <strncpy+0x6>
 8007590:	2100      	movs	r1, #0
 8007592:	441a      	add	r2, r3
 8007594:	4293      	cmp	r3, r2
 8007596:	d100      	bne.n	800759a <strncpy+0x20>
 8007598:	bd10      	pop	{r4, pc}
 800759a:	f803 1b01 	strb.w	r1, [r3], #1
 800759e:	e7f9      	b.n	8007594 <strncpy+0x1a>

080075a0 <_close_r>:
 80075a0:	b538      	push	{r3, r4, r5, lr}
 80075a2:	2300      	movs	r3, #0
 80075a4:	4d05      	ldr	r5, [pc, #20]	@ (80075bc <_close_r+0x1c>)
 80075a6:	4604      	mov	r4, r0
 80075a8:	4608      	mov	r0, r1
 80075aa:	602b      	str	r3, [r5, #0]
 80075ac:	f7fc fb02 	bl	8003bb4 <_close>
 80075b0:	1c43      	adds	r3, r0, #1
 80075b2:	d102      	bne.n	80075ba <_close_r+0x1a>
 80075b4:	682b      	ldr	r3, [r5, #0]
 80075b6:	b103      	cbz	r3, 80075ba <_close_r+0x1a>
 80075b8:	6023      	str	r3, [r4, #0]
 80075ba:	bd38      	pop	{r3, r4, r5, pc}
 80075bc:	20003b08 	.word	0x20003b08

080075c0 <_reclaim_reent>:
 80075c0:	4b2d      	ldr	r3, [pc, #180]	@ (8007678 <_reclaim_reent+0xb8>)
 80075c2:	b570      	push	{r4, r5, r6, lr}
 80075c4:	681b      	ldr	r3, [r3, #0]
 80075c6:	4604      	mov	r4, r0
 80075c8:	4283      	cmp	r3, r0
 80075ca:	d053      	beq.n	8007674 <_reclaim_reent+0xb4>
 80075cc:	69c3      	ldr	r3, [r0, #28]
 80075ce:	b31b      	cbz	r3, 8007618 <_reclaim_reent+0x58>
 80075d0:	68db      	ldr	r3, [r3, #12]
 80075d2:	b163      	cbz	r3, 80075ee <_reclaim_reent+0x2e>
 80075d4:	2500      	movs	r5, #0
 80075d6:	69e3      	ldr	r3, [r4, #28]
 80075d8:	68db      	ldr	r3, [r3, #12]
 80075da:	5959      	ldr	r1, [r3, r5]
 80075dc:	b9b1      	cbnz	r1, 800760c <_reclaim_reent+0x4c>
 80075de:	3504      	adds	r5, #4
 80075e0:	2d80      	cmp	r5, #128	@ 0x80
 80075e2:	d1f8      	bne.n	80075d6 <_reclaim_reent+0x16>
 80075e4:	69e3      	ldr	r3, [r4, #28]
 80075e6:	4620      	mov	r0, r4
 80075e8:	68d9      	ldr	r1, [r3, #12]
 80075ea:	f000 f8cf 	bl	800778c <_free_r>
 80075ee:	69e3      	ldr	r3, [r4, #28]
 80075f0:	6819      	ldr	r1, [r3, #0]
 80075f2:	b111      	cbz	r1, 80075fa <_reclaim_reent+0x3a>
 80075f4:	4620      	mov	r0, r4
 80075f6:	f000 f8c9 	bl	800778c <_free_r>
 80075fa:	69e3      	ldr	r3, [r4, #28]
 80075fc:	689d      	ldr	r5, [r3, #8]
 80075fe:	b15d      	cbz	r5, 8007618 <_reclaim_reent+0x58>
 8007600:	4629      	mov	r1, r5
 8007602:	4620      	mov	r0, r4
 8007604:	682d      	ldr	r5, [r5, #0]
 8007606:	f000 f8c1 	bl	800778c <_free_r>
 800760a:	e7f8      	b.n	80075fe <_reclaim_reent+0x3e>
 800760c:	680e      	ldr	r6, [r1, #0]
 800760e:	4620      	mov	r0, r4
 8007610:	f000 f8bc 	bl	800778c <_free_r>
 8007614:	4631      	mov	r1, r6
 8007616:	e7e1      	b.n	80075dc <_reclaim_reent+0x1c>
 8007618:	6961      	ldr	r1, [r4, #20]
 800761a:	b111      	cbz	r1, 8007622 <_reclaim_reent+0x62>
 800761c:	4620      	mov	r0, r4
 800761e:	f000 f8b5 	bl	800778c <_free_r>
 8007622:	69e1      	ldr	r1, [r4, #28]
 8007624:	b111      	cbz	r1, 800762c <_reclaim_reent+0x6c>
 8007626:	4620      	mov	r0, r4
 8007628:	f000 f8b0 	bl	800778c <_free_r>
 800762c:	6b21      	ldr	r1, [r4, #48]	@ 0x30
 800762e:	b111      	cbz	r1, 8007636 <_reclaim_reent+0x76>
 8007630:	4620      	mov	r0, r4
 8007632:	f000 f8ab 	bl	800778c <_free_r>
 8007636:	6b61      	ldr	r1, [r4, #52]	@ 0x34
 8007638:	b111      	cbz	r1, 8007640 <_reclaim_reent+0x80>
 800763a:	4620      	mov	r0, r4
 800763c:	f000 f8a6 	bl	800778c <_free_r>
 8007640:	6ba1      	ldr	r1, [r4, #56]	@ 0x38
 8007642:	b111      	cbz	r1, 800764a <_reclaim_reent+0x8a>
 8007644:	4620      	mov	r0, r4
 8007646:	f000 f8a1 	bl	800778c <_free_r>
 800764a:	6ca1      	ldr	r1, [r4, #72]	@ 0x48
 800764c:	b111      	cbz	r1, 8007654 <_reclaim_reent+0x94>
 800764e:	4620      	mov	r0, r4
 8007650:	f000 f89c 	bl	800778c <_free_r>
 8007654:	6c61      	ldr	r1, [r4, #68]	@ 0x44
 8007656:	b111      	cbz	r1, 800765e <_reclaim_reent+0x9e>
 8007658:	4620      	mov	r0, r4
 800765a:	f000 f897 	bl	800778c <_free_r>
 800765e:	6ae1      	ldr	r1, [r4, #44]	@ 0x2c
 8007660:	b111      	cbz	r1, 8007668 <_reclaim_reent+0xa8>
 8007662:	4620      	mov	r0, r4
 8007664:	f000 f892 	bl	800778c <_free_r>
 8007668:	6a23      	ldr	r3, [r4, #32]
 800766a:	b11b      	cbz	r3, 8007674 <_reclaim_reent+0xb4>
 800766c:	4620      	mov	r0, r4
 800766e:	e8bd 4070 	ldmia.w	sp!, {r4, r5, r6, lr}
 8007672:	4718      	bx	r3
 8007674:	bd70      	pop	{r4, r5, r6, pc}
 8007676:	bf00      	nop
 8007678:	20000064 	.word	0x20000064

0800767c <_lseek_r>:
 800767c:	b538      	push	{r3, r4, r5, lr}
 800767e:	4604      	mov	r4, r0
 8007680:	4608      	mov	r0, r1
 8007682:	4611      	mov	r1, r2
 8007684:	2200      	movs	r2, #0
 8007686:	4d05      	ldr	r5, [pc, #20]	@ (800769c <_lseek_r+0x20>)
 8007688:	602a      	str	r2, [r5, #0]
 800768a:	461a      	mov	r2, r3
 800768c:	f7fc fa9c 	bl	8003bc8 <_lseek>
 8007690:	1c43      	adds	r3, r0, #1
 8007692:	d102      	bne.n	800769a <_lseek_r+0x1e>
 8007694:	682b      	ldr	r3, [r5, #0]
 8007696:	b103      	cbz	r3, 800769a <_lseek_r+0x1e>
 8007698:	6023      	str	r3, [r4, #0]
 800769a:	bd38      	pop	{r3, r4, r5, pc}
 800769c:	20003b08 	.word	0x20003b08

080076a0 <_read_r>:
 80076a0:	b538      	push	{r3, r4, r5, lr}
 80076a2:	4604      	mov	r4, r0
 80076a4:	4608      	mov	r0, r1
 80076a6:	4611      	mov	r1, r2
 80076a8:	2200      	movs	r2, #0
 80076aa:	4d05      	ldr	r5, [pc, #20]	@ (80076c0 <_read_r+0x20>)
 80076ac:	602a      	str	r2, [r5, #0]
 80076ae:	461a      	mov	r2, r3
 80076b0:	f7fc fa70 	bl	8003b94 <_read>
 80076b4:	1c43      	adds	r3, r0, #1
 80076b6:	d102      	bne.n	80076be <_read_r+0x1e>
 80076b8:	682b      	ldr	r3, [r5, #0]
 80076ba:	b103      	cbz	r3, 80076be <_read_r+0x1e>
 80076bc:	6023      	str	r3, [r4, #0]
 80076be:	bd38      	pop	{r3, r4, r5, pc}
 80076c0:	20003b08 	.word	0x20003b08

080076c4 <_sbrk_r>:
 80076c4:	b538      	push	{r3, r4, r5, lr}
 80076c6:	2300      	movs	r3, #0
 80076c8:	4d05      	ldr	r5, [pc, #20]	@ (80076e0 <_sbrk_r+0x1c>)
 80076ca:	4604      	mov	r4, r0
 80076cc:	4608      	mov	r0, r1
 80076ce:	602b      	str	r3, [r5, #0]
 80076d0:	f7fc fa7c 	bl	8003bcc <_sbrk>
 80076d4:	1c43      	adds	r3, r0, #1
 80076d6:	d102      	bne.n	80076de <_sbrk_r+0x1a>
 80076d8:	682b      	ldr	r3, [r5, #0]
 80076da:	b103      	cbz	r3, 80076de <_sbrk_r+0x1a>
 80076dc:	6023      	str	r3, [r4, #0]
 80076de:	bd38      	pop	{r3, r4, r5, pc}
 80076e0:	20003b08 	.word	0x20003b08

080076e4 <_write_r>:
 80076e4:	b538      	push	{r3, r4, r5, lr}
 80076e6:	4604      	mov	r4, r0
 80076e8:	4608      	mov	r0, r1
 80076ea:	4611      	mov	r1, r2
 80076ec:	2200      	movs	r2, #0
 80076ee:	4d05      	ldr	r5, [pc, #20]	@ (8007704 <_write_r+0x20>)
 80076f0:	602a      	str	r2, [r5, #0]
 80076f2:	461a      	mov	r2, r3
 80076f4:	f7f9 fb30 	bl	8000d58 <_write>
 80076f8:	1c43      	adds	r3, r0, #1
 80076fa:	d102      	bne.n	8007702 <_write_r+0x1e>
 80076fc:	682b      	ldr	r3, [r5, #0]
 80076fe:	b103      	cbz	r3, 8007702 <_write_r+0x1e>
 8007700:	6023      	str	r3, [r4, #0]
 8007702:	bd38      	pop	{r3, r4, r5, pc}
 8007704:	20003b08 	.word	0x20003b08

08007708 <__errno>:
 8007708:	4b01      	ldr	r3, [pc, #4]	@ (8007710 <__errno+0x8>)
 800770a:	6818      	ldr	r0, [r3, #0]
 800770c:	4770      	bx	lr
 800770e:	bf00      	nop
 8007710:	20000064 	.word	0x20000064

08007714 <__libc_init_array>:
 8007714:	b570      	push	{r4, r5, r6, lr}
 8007716:	2600      	movs	r6, #0
 8007718:	4d0c      	ldr	r5, [pc, #48]	@ (800774c <__libc_init_array+0x38>)
 800771a:	4c0d      	ldr	r4, [pc, #52]	@ (8007750 <__libc_init_array+0x3c>)
 800771c:	1b64      	subs	r4, r4, r5
 800771e:	10a4      	asrs	r4, r4, #2
 8007720:	42a6      	cmp	r6, r4
 8007722:	d109      	bne.n	8007738 <__libc_init_array+0x24>
 8007724:	f000 fe56 	bl	80083d4 <_init>
 8007728:	2600      	movs	r6, #0
 800772a:	4d0a      	ldr	r5, [pc, #40]	@ (8007754 <__libc_init_array+0x40>)
 800772c:	4c0a      	ldr	r4, [pc, #40]	@ (8007758 <__libc_init_array+0x44>)
 800772e:	1b64      	subs	r4, r4, r5
 8007730:	10a4      	asrs	r4, r4, #2
 8007732:	42a6      	cmp	r6, r4
 8007734:	d105      	bne.n	8007742 <__libc_init_array+0x2e>
 8007736:	bd70      	pop	{r4, r5, r6, pc}
 8007738:	f855 3b04 	ldr.w	r3, [r5], #4
 800773c:	4798      	blx	r3
 800773e:	3601      	adds	r6, #1
 8007740:	e7ee      	b.n	8007720 <__libc_init_array+0xc>
 8007742:	f855 3b04 	ldr.w	r3, [r5], #4
 8007746:	4798      	blx	r3
 8007748:	3601      	adds	r6, #1
 800774a:	e7f2      	b.n	8007732 <__libc_init_array+0x1e>
 800774c:	0800a56c 	.word	0x0800a56c
 8007750:	0800a56c 	.word	0x0800a56c
 8007754:	0800a56c 	.word	0x0800a56c
 8007758:	0800a570 	.word	0x0800a570

0800775c <__retarget_lock_init_recursive>:
 800775c:	4770      	bx	lr

0800775e <__retarget_lock_acquire_recursive>:
 800775e:	4770      	bx	lr

08007760 <__retarget_lock_release_recursive>:
 8007760:	4770      	bx	lr

08007762 <memcpy>:
 8007762:	440a      	add	r2, r1
 8007764:	4291      	cmp	r1, r2
 8007766:	f100 33ff 	add.w	r3, r0, #4294967295
 800776a:	d100      	bne.n	800776e <memcpy+0xc>
 800776c:	4770      	bx	lr
 800776e:	b510      	push	{r4, lr}
 8007770:	f811 4b01 	ldrb.w	r4, [r1], #1
 8007774:	4291      	cmp	r1, r2
 8007776:	f803 4f01 	strb.w	r4, [r3, #1]!
 800777a:	d1f9      	bne.n	8007770 <memcpy+0xe>
 800777c:	bd10      	pop	{r4, pc}

0800777e <abort>:
 800777e:	2006      	movs	r0, #6
 8007780:	b508      	push	{r3, lr}
 8007782:	f000 fda5 	bl	80082d0 <raise>
 8007786:	2001      	movs	r0, #1
 8007788:	f7fc f9fe 	bl	8003b88 <_exit>

0800778c <_free_r>:
 800778c:	b538      	push	{r3, r4, r5, lr}
 800778e:	4605      	mov	r5, r0
 8007790:	2900      	cmp	r1, #0
 8007792:	d040      	beq.n	8007816 <_free_r+0x8a>
 8007794:	f851 3c04 	ldr.w	r3, [r1, #-4]
 8007798:	1f0c      	subs	r4, r1, #4
 800779a:	2b00      	cmp	r3, #0
 800779c:	bfb8      	it	lt
 800779e:	18e4      	addlt	r4, r4, r3
 80077a0:	f7ff fcbc 	bl	800711c <__malloc_lock>
 80077a4:	4a1c      	ldr	r2, [pc, #112]	@ (8007818 <_free_r+0x8c>)
 80077a6:	6813      	ldr	r3, [r2, #0]
 80077a8:	b933      	cbnz	r3, 80077b8 <_free_r+0x2c>
 80077aa:	6063      	str	r3, [r4, #4]
 80077ac:	6014      	str	r4, [r2, #0]
 80077ae:	4628      	mov	r0, r5
 80077b0:	e8bd 4038 	ldmia.w	sp!, {r3, r4, r5, lr}
 80077b4:	f7ff bcb8 	b.w	8007128 <__malloc_unlock>
 80077b8:	42a3      	cmp	r3, r4
 80077ba:	d908      	bls.n	80077ce <_free_r+0x42>
 80077bc:	6820      	ldr	r0, [r4, #0]
 80077be:	1821      	adds	r1, r4, r0
 80077c0:	428b      	cmp	r3, r1
 80077c2:	bf01      	itttt	eq
 80077c4:	6819      	ldreq	r1, [r3, #0]
 80077c6:	685b      	ldreq	r3, [r3, #4]
 80077c8:	1809      	addeq	r1, r1, r0
 80077ca:	6021      	streq	r1, [r4, #0]
 80077cc:	e7ed      	b.n	80077aa <_free_r+0x1e>
 80077ce:	461a      	mov	r2, r3
 80077d0:	685b      	ldr	r3, [r3, #4]
 80077d2:	b10b      	cbz	r3, 80077d8 <_free_r+0x4c>
 80077d4:	42a3      	cmp	r3, r4
 80077d6:	d9fa      	bls.n	80077ce <_free_r+0x42>
 80077d8:	6811      	ldr	r1, [r2, #0]
 80077da:	1850      	adds	r0, r2, r1
 80077dc:	42a0      	cmp	r0, r4
 80077de:	d10b      	bne.n	80077f8 <_free_r+0x6c>
 80077e0:	6820      	ldr	r0, [r4, #0]
 80077e2:	4401      	add	r1, r0
 80077e4:	1850      	adds	r0, r2, r1
 80077e6:	4283      	cmp	r3, r0
 80077e8:	6011      	str	r1, [r2, #0]
 80077ea:	d1e0      	bne.n	80077ae <_free_r+0x22>
 80077ec:	6818      	ldr	r0, [r3, #0]
 80077ee:	685b      	ldr	r3, [r3, #4]
 80077f0:	4408      	add	r0, r1
 80077f2:	6010      	str	r0, [r2, #0]
 80077f4:	6053      	str	r3, [r2, #4]
 80077f6:	e7da      	b.n	80077ae <_free_r+0x22>
 80077f8:	d902      	bls.n	8007800 <_free_r+0x74>
 80077fa:	230c      	movs	r3, #12
 80077fc:	602b      	str	r3, [r5, #0]
 80077fe:	e7d6      	b.n	80077ae <_free_r+0x22>
 8007800:	6820      	ldr	r0, [r4, #0]
 8007802:	1821      	adds	r1, r4, r0
 8007804:	428b      	cmp	r3, r1
 8007806:	bf01      	itttt	eq
 8007808:	6819      	ldreq	r1, [r3, #0]
 800780a:	685b      	ldreq	r3, [r3, #4]
 800780c:	1809      	addeq	r1, r1, r0
 800780e:	6021      	streq	r1, [r4, #0]
 8007810:	6063      	str	r3, [r4, #4]
 8007812:	6054      	str	r4, [r2, #4]
 8007814:	e7cb      	b.n	80077ae <_free_r+0x22>
 8007816:	bd38      	pop	{r3, r4, r5, pc}
 8007818:	200039c8 	.word	0x200039c8

0800781c <__ssputs_r>:
 800781c:	e92d 47f0 	stmdb	sp!, {r4, r5, r6, r7, r8, r9, sl, lr}
 8007820:	461f      	mov	r7, r3
 8007822:	688e      	ldr	r6, [r1, #8]
 8007824:	4682      	mov	sl, r0
 8007826:	42be      	cmp	r6, r7
 8007828:	460c      	mov	r4, r1
 800782a:	4690      	mov	r8, r2
 800782c:	680b      	ldr	r3, [r1, #0]
 800782e:	d82d      	bhi.n	800788c <__ssputs_r+0x70>
 8007830:	f9b1 200c 	ldrsh.w	r2, [r1, #12]
 8007834:	f412 6f90 	tst.w	r2, #1152	@ 0x480
 8007838:	d026      	beq.n	8007888 <__ssputs_r+0x6c>
 800783a:	6965      	ldr	r5, [r4, #20]
 800783c:	6909      	ldr	r1, [r1, #16]
 800783e:	eb05 0545 	add.w	r5, r5, r5, lsl #1
 8007842:	eba3 0901 	sub.w	r9, r3, r1
 8007846:	eb05 75d5 	add.w	r5, r5, r5, lsr #31
 800784a:	1c7b      	adds	r3, r7, #1
 800784c:	444b      	add	r3, r9
 800784e:	106d      	asrs	r5, r5, #1
 8007850:	429d      	cmp	r5, r3
 8007852:	bf38      	it	cc
 8007854:	461d      	movcc	r5, r3
 8007856:	0553      	lsls	r3, r2, #21
 8007858:	d527      	bpl.n	80078aa <__ssputs_r+0x8e>
 800785a:	4629      	mov	r1, r5
 800785c:	f7ff fbde 	bl	800701c <_malloc_r>
 8007860:	4606      	mov	r6, r0
 8007862:	b360      	cbz	r0, 80078be <__ssputs_r+0xa2>
 8007864:	464a      	mov	r2, r9
 8007866:	6921      	ldr	r1, [r4, #16]
 8007868:	f7ff ff7b 	bl	8007762 <memcpy>
 800786c:	89a3      	ldrh	r3, [r4, #12]
 800786e:	f423 6390 	bic.w	r3, r3, #1152	@ 0x480
 8007872:	f043 0380 	orr.w	r3, r3, #128	@ 0x80
 8007876:	81a3      	strh	r3, [r4, #12]
 8007878:	6126      	str	r6, [r4, #16]
 800787a:	444e      	add	r6, r9
 800787c:	6026      	str	r6, [r4, #0]
 800787e:	463e      	mov	r6, r7
 8007880:	6165      	str	r5, [r4, #20]
 8007882:	eba5 0509 	sub.w	r5, r5, r9
 8007886:	60a5      	str	r5, [r4, #8]
 8007888:	42be      	cmp	r6, r7
 800788a:	d900      	bls.n	800788e <__ssputs_r+0x72>
 800788c:	463e      	mov	r6, r7
 800788e:	4632      	mov	r2, r6
 8007890:	4641      	mov	r1, r8
 8007892:	6820      	ldr	r0, [r4, #0]
 8007894:	f7ff fe30 	bl	80074f8 <memmove>
 8007898:	2000      	movs	r0, #0
 800789a:	68a3      	ldr	r3, [r4, #8]
 800789c:	1b9b      	subs	r3, r3, r6
 800789e:	60a3      	str	r3, [r4, #8]
 80078a0:	6823      	ldr	r3, [r4, #0]
 80078a2:	4433      	add	r3, r6
 80078a4:	6023      	str	r3, [r4, #0]
 80078a6:	e8bd 87f0 	ldmia.w	sp!, {r4, r5, r6, r7, r8, r9, sl, pc}
 80078aa:	462a      	mov	r2, r5
 80078ac:	f000 fd5c 	bl	8008368 <_realloc_r>
 80078b0:	4606      	mov	r6, r0
 80078b2:	2800      	cmp	r0, #0
 80078b4:	d1e0      	bne.n	8007878 <__ssputs_r+0x5c>
 80078b6:	4650      	mov	r0, sl
 80078b8:	6921      	ldr	r1, [r4, #16]
 80078ba:	f7ff ff67 	bl	800778c <_free_r>
 80078be:	230c      	movs	r3, #12
 80078c0:	f8ca 3000 	str.w	r3, [sl]
 80078c4:	89a3      	ldrh	r3, [r4, #12]
 80078c6:	f04f 30ff 	mov.w	r0, #4294967295
 80078ca:	f043 0340 	orr.w	r3, r3, #64	@ 0x40
 80078ce:	81a3      	strh	r3, [r4, #12]
 80078d0:	e7e9      	b.n	80078a6 <__ssputs_r+0x8a>
	...

080078d4 <_svfiprintf_r>:
 80078d4:	e92d 4ff0 	stmdb	sp!, {r4, r5, r6, r7, r8, r9, sl, fp, lr}
 80078d8:	4698      	mov	r8, r3
 80078da:	898b      	ldrh	r3, [r1, #12]
 80078dc:	4607      	mov	r7, r0
 80078de:	061b      	lsls	r3, r3, #24
 80078e0:	460d      	mov	r5, r1
 80078e2:	4614      	mov	r4, r2
 80078e4:	b09d      	sub	sp, #116	@ 0x74
 80078e6:	d510      	bpl.n	800790a <_svfiprintf_r+0x36>
 80078e8:	690b      	ldr	r3, [r1, #16]
 80078ea:	b973      	cbnz	r3, 800790a <_svfiprintf_r+0x36>
 80078ec:	2140      	movs	r1, #64	@ 0x40
 80078ee:	f7ff fb95 	bl	800701c <_malloc_r>
 80078f2:	6028      	str	r0, [r5, #0]
 80078f4:	6128      	str	r0, [r5, #16]
 80078f6:	b930      	cbnz	r0, 8007906 <_svfiprintf_r+0x32>
 80078f8:	230c      	movs	r3, #12
 80078fa:	603b      	str	r3, [r7, #0]
 80078fc:	f04f 30ff 	mov.w	r0, #4294967295
 8007900:	b01d      	add	sp, #116	@ 0x74
 8007902:	e8bd 8ff0 	ldmia.w	sp!, {r4, r5, r6, r7, r8, r9, sl, fp, pc}
 8007906:	2340      	movs	r3, #64	@ 0x40
 8007908:	616b      	str	r3, [r5, #20]
 800790a:	2300      	movs	r3, #0
 800790c:	9309      	str	r3, [sp, #36]	@ 0x24
 800790e:	2320      	movs	r3, #32
 8007910:	f88d 3029 	strb.w	r3, [sp, #41]	@ 0x29
 8007914:	2330      	movs	r3, #48	@ 0x30
 8007916:	f04f 0901 	mov.w	r9, #1
 800791a:	f8cd 800c 	str.w	r8, [sp, #12]
 800791e:	f8df 8198 	ldr.w	r8, [pc, #408]	@ 8007ab8 <_svfiprintf_r+0x1e4>
 8007922:	f88d 302a 	strb.w	r3, [sp, #42]	@ 0x2a
 8007926:	4623      	mov	r3, r4
 8007928:	469a      	mov	sl, r3
 800792a:	f813 2b01 	ldrb.w	r2, [r3], #1
 800792e:	b10a      	cbz	r2, 8007934 <_svfiprintf_r+0x60>
 8007930:	2a25      	cmp	r2, #37	@ 0x25
 8007932:	d1f9      	bne.n	8007928 <_svfiprintf_r+0x54>
 8007934:	ebba 0b04 	subs.w	fp, sl, r4
 8007938:	d00b      	beq.n	8007952 <_svfiprintf_r+0x7e>
 800793a:	465b      	mov	r3, fp
 800793c:	4622      	mov	r2, r4
 800793e:	4629      	mov	r1, r5
 8007940:	4638      	mov	r0, r7
 8007942:	f7ff ff6b 	bl	800781c <__ssputs_r>
 8007946:	3001      	adds	r0, #1
 8007948:	f000 80a7 	beq.w	8007a9a <_svfiprintf_r+0x1c6>
 800794c:	9a09      	ldr	r2, [sp, #36]	@ 0x24
 800794e:	445a      	add	r2, fp
 8007950:	9209      	str	r2, [sp, #36]	@ 0x24
 8007952:	f89a 3000 	ldrb.w	r3, [sl]
 8007956:	2b00      	cmp	r3, #0
 8007958:	f000 809f 	beq.w	8007a9a <_svfiprintf_r+0x1c6>
 800795c:	2300      	movs	r3, #0
 800795e:	f04f 32ff 	mov.w	r2, #4294967295
 8007962:	e9cd 2305 	strd	r2, r3, [sp, #20]
 8007966:	f10a 0a01 	add.w	sl, sl, #1
 800796a:	9304      	str	r3, [sp, #16]
 800796c:	9307      	str	r3, [sp, #28]
 800796e:	f88d 3053 	strb.w	r3, [sp, #83]	@ 0x53
 8007972:	931a      	str	r3, [sp, #104]	@ 0x68
 8007974:	4654      	mov	r4, sl
 8007976:	2205      	movs	r2, #5
 8007978:	f814 1b01 	ldrb.w	r1, [r4], #1
 800797c:	484e      	ldr	r0, [pc, #312]	@ (8007ab8 <_svfiprintf_r+0x1e4>)
 800797e:	f000 fce5 	bl	800834c <memchr>
 8007982:	9a04      	ldr	r2, [sp, #16]
 8007984:	b9d8      	cbnz	r0, 80079be <_svfiprintf_r+0xea>
 8007986:	06d0      	lsls	r0, r2, #27
 8007988:	bf44      	itt	mi
 800798a:	2320      	movmi	r3, #32
 800798c:	f88d 3053 	strbmi.w	r3, [sp, #83]	@ 0x53
 8007990:	0711      	lsls	r1, r2, #28
 8007992:	bf44      	itt	mi
 8007994:	232b      	movmi	r3, #43	@ 0x2b
 8007996:	f88d 3053 	strbmi.w	r3, [sp, #83]	@ 0x53
 800799a:	f89a 3000 	ldrb.w	r3, [sl]
 800799e:	2b2a      	cmp	r3, #42	@ 0x2a
 80079a0:	d015      	beq.n	80079ce <_svfiprintf_r+0xfa>
 80079a2:	4654      	mov	r4, sl
 80079a4:	2000      	movs	r0, #0
 80079a6:	f04f 0c0a 	mov.w	ip, #10
 80079aa:	9a07      	ldr	r2, [sp, #28]
 80079ac:	4621      	mov	r1, r4
 80079ae:	f811 3b01 	ldrb.w	r3, [r1], #1
 80079b2:	3b30      	subs	r3, #48	@ 0x30
 80079b4:	2b09      	cmp	r3, #9
 80079b6:	d94b      	bls.n	8007a50 <_svfiprintf_r+0x17c>
 80079b8:	b1b0      	cbz	r0, 80079e8 <_svfiprintf_r+0x114>
 80079ba:	9207      	str	r2, [sp, #28]
 80079bc:	e014      	b.n	80079e8 <_svfiprintf_r+0x114>
 80079be:	eba0 0308 	sub.w	r3, r0, r8
 80079c2:	fa09 f303 	lsl.w	r3, r9, r3
 80079c6:	4313      	orrs	r3, r2
 80079c8:	46a2      	mov	sl, r4
 80079ca:	9304      	str	r3, [sp, #16]
 80079cc:	e7d2      	b.n	8007974 <_svfiprintf_r+0xa0>
 80079ce:	9b03      	ldr	r3, [sp, #12]
 80079d0:	1d19      	adds	r1, r3, #4
 80079d2:	681b      	ldr	r3, [r3, #0]
 80079d4:	9103      	str	r1, [sp, #12]
 80079d6:	2b00      	cmp	r3, #0
 80079d8:	bfbb      	ittet	lt
 80079da:	425b      	neglt	r3, r3
 80079dc:	f042 0202 	orrlt.w	r2, r2, #2
 80079e0:	9307      	strge	r3, [sp, #28]
 80079e2:	9307      	strlt	r3, [sp, #28]
 80079e4:	bfb8      	it	lt
 80079e6:	9204      	strlt	r2, [sp, #16]
 80079e8:	7823      	ldrb	r3, [r4, #0]
 80079ea:	2b2e      	cmp	r3, #46	@ 0x2e
 80079ec:	d10a      	bne.n	8007a04 <_svfiprintf_r+0x130>
 80079ee:	7863      	ldrb	r3, [r4, #1]
 80079f0:	2b2a      	cmp	r3, #42	@ 0x2a
 80079f2:	d132      	bne.n	8007a5a <_svfiprintf_r+0x186>
 80079f4:	9b03      	ldr	r3, [sp, #12]
 80079f6:	3402      	adds	r4, #2
 80079f8:	1d1a      	adds	r2, r3, #4
 80079fa:	681b      	ldr	r3, [r3, #0]
 80079fc:	9203      	str	r2, [sp, #12]
 80079fe:	ea43 73e3 	orr.w	r3, r3, r3, asr #31
 8007a02:	9305      	str	r3, [sp, #20]
 8007a04:	f8df a0b4 	ldr.w	sl, [pc, #180]	@ 8007abc <_svfiprintf_r+0x1e8>
 8007a08:	2203      	movs	r2, #3
 8007a0a:	4650      	mov	r0, sl
 8007a0c:	7821      	ldrb	r1, [r4, #0]
 8007a0e:	f000 fc9d 	bl	800834c <memchr>
 8007a12:	b138      	cbz	r0, 8007a24 <_svfiprintf_r+0x150>
 8007a14:	2240      	movs	r2, #64	@ 0x40
 8007a16:	9b04      	ldr	r3, [sp, #16]
 8007a18:	eba0 000a 	sub.w	r0, r0, sl
 8007a1c:	4082      	lsls	r2, r0
 8007a1e:	4313      	orrs	r3, r2
 8007a20:	3401      	adds	r4, #1
 8007a22:	9304      	str	r3, [sp, #16]
 8007a24:	f814 1b01 	ldrb.w	r1, [r4], #1
 8007a28:	2206      	movs	r2, #6
 8007a2a:	4825      	ldr	r0, [pc, #148]	@ (8007ac0 <_svfiprintf_r+0x1ec>)
 8007a2c:	f88d 1028 	strb.w	r1, [sp, #40]	@ 0x28
 8007a30:	f000 fc8c 	bl	800834c <memchr>
 8007a34:	2800      	cmp	r0, #0
 8007a36:	d036      	beq.n	8007aa6 <_svfiprintf_r+0x1d2>
 8007a38:	4b22      	ldr	r3, [pc, #136]	@ (8007ac4 <_svfiprintf_r+0x1f0>)
 8007a3a:	bb1b      	cbnz	r3, 8007a84 <_svfiprintf_r+0x1b0>
 8007a3c:	9b03      	ldr	r3, [sp, #12]
 8007a3e:	3307      	adds	r3, #7
 8007a40:	f023 0307 	bic.w	r3, r3, #7
 8007a44:	3308      	adds	r3, #8
 8007a46:	9303      	str	r3, [sp, #12]
 8007a48:	9b09      	ldr	r3, [sp, #36]	@ 0x24
 8007a4a:	4433      	add	r3, r6
 8007a4c:	9309      	str	r3, [sp, #36]	@ 0x24
 8007a4e:	e76a      	b.n	8007926 <_svfiprintf_r+0x52>
 8007a50:	460c      	mov	r4, r1
 8007a52:	2001      	movs	r0, #1
 8007a54:	fb0c 3202 	mla	r2, ip, r2, r3
 8007a58:	e7a8      	b.n	80079ac <_svfiprintf_r+0xd8>
 8007a5a:	2300      	movs	r3, #0
 8007a5c:	f04f 0c0a 	mov.w	ip, #10
 8007a60:	4619      	mov	r1, r3
 8007a62:	3401      	adds	r4, #1
 8007a64:	9305      	str	r3, [sp, #20]
 8007a66:	4620      	mov	r0, r4
 8007a68:	f810 2b01 	ldrb.w	r2, [r0], #1
 8007a6c:	3a30      	subs	r2, #48	@ 0x30
 8007a6e:	2a09      	cmp	r2, #9
 8007a70:	d903      	bls.n	8007a7a <_svfiprintf_r+0x1a6>
 8007a72:	2b00      	cmp	r3, #0
 8007a74:	d0c6      	beq.n	8007a04 <_svfiprintf_r+0x130>
 8007a76:	9105      	str	r1, [sp, #20]
 8007a78:	e7c4      	b.n	8007a04 <_svfiprintf_r+0x130>
 8007a7a:	4604      	mov	r4, r0
 8007a7c:	2301      	movs	r3, #1
 8007a7e:	fb0c 2101 	mla	r1, ip, r1, r2
 8007a82:	e7f0      	b.n	8007a66 <_svfiprintf_r+0x192>
 8007a84:	ab03      	add	r3, sp, #12
 8007a86:	9300      	str	r3, [sp, #0]
 8007a88:	462a      	mov	r2, r5
 8007a8a:	4638      	mov	r0, r7
 8007a8c:	4b0e      	ldr	r3, [pc, #56]	@ (8007ac8 <_svfiprintf_r+0x1f4>)
 8007a8e:	a904      	add	r1, sp, #16
 8007a90:	f3af 8000 	nop.w
 8007a94:	1c42      	adds	r2, r0, #1
 8007a96:	4606      	mov	r6, r0
 8007a98:	d1d6      	bne.n	8007a48 <_svfiprintf_r+0x174>
 8007a9a:	89ab      	ldrh	r3, [r5, #12]
 8007a9c:	065b      	lsls	r3, r3, #25
 8007a9e:	f53f af2d 	bmi.w	80078fc <_svfiprintf_r+0x28>
 8007aa2:	9809      	ldr	r0, [sp, #36]	@ 0x24
 8007aa4:	e72c      	b.n	8007900 <_svfiprintf_r+0x2c>
 8007aa6:	ab03      	add	r3, sp, #12
 8007aa8:	9300      	str	r3, [sp, #0]
 8007aaa:	462a      	mov	r2, r5
 8007aac:	4638      	mov	r0, r7
 8007aae:	4b06      	ldr	r3, [pc, #24]	@ (8007ac8 <_svfiprintf_r+0x1f4>)
 8007ab0:	a904      	add	r1, sp, #16
 8007ab2:	f000 f9bd 	bl	8007e30 <_printf_i>
 8007ab6:	e7ed      	b.n	8007a94 <_svfiprintf_r+0x1c0>
 8007ab8:	0800a530 	.word	0x0800a530
 8007abc:	0800a536 	.word	0x0800a536
 8007ac0:	0800a53a 	.word	0x0800a53a
 8007ac4:	00000000 	.word	0x00000000
 8007ac8:	0800781d 	.word	0x0800781d

08007acc <__sfputc_r>:
 8007acc:	6893      	ldr	r3, [r2, #8]
 8007ace:	b410      	push	{r4}
 8007ad0:	3b01      	subs	r3, #1
 8007ad2:	2b00      	cmp	r3, #0
 8007ad4:	6093      	str	r3, [r2, #8]
 8007ad6:	da07      	bge.n	8007ae8 <__sfputc_r+0x1c>
 8007ad8:	6994      	ldr	r4, [r2, #24]
 8007ada:	42a3      	cmp	r3, r4
 8007adc:	db01      	blt.n	8007ae2 <__sfputc_r+0x16>
 8007ade:	290a      	cmp	r1, #10
 8007ae0:	d102      	bne.n	8007ae8 <__sfputc_r+0x1c>
 8007ae2:	bc10      	pop	{r4}
 8007ae4:	f7ff bc73 	b.w	80073ce <__swbuf_r>
 8007ae8:	6813      	ldr	r3, [r2, #0]
 8007aea:	1c58      	adds	r0, r3, #1
 8007aec:	6010      	str	r0, [r2, #0]
 8007aee:	7019      	strb	r1, [r3, #0]
 8007af0:	4608      	mov	r0, r1
 8007af2:	bc10      	pop	{r4}
 8007af4:	4770      	bx	lr

08007af6 <__sfputs_r>:
 8007af6:	b5f8      	push	{r3, r4, r5, r6, r7, lr}
 8007af8:	4606      	mov	r6, r0
 8007afa:	460f      	mov	r7, r1
 8007afc:	4614      	mov	r4, r2
 8007afe:	18d5      	adds	r5, r2, r3
 8007b00:	42ac      	cmp	r4, r5
 8007b02:	d101      	bne.n	8007b08 <__sfputs_r+0x12>
 8007b04:	2000      	movs	r0, #0
 8007b06:	e007      	b.n	8007b18 <__sfputs_r+0x22>
 8007b08:	463a      	mov	r2, r7
 8007b0a:	4630      	mov	r0, r6
 8007b0c:	f814 1b01 	ldrb.w	r1, [r4], #1
 8007b10:	f7ff ffdc 	bl	8007acc <__sfputc_r>
 8007b14:	1c43      	adds	r3, r0, #1
 8007b16:	d1f3      	bne.n	8007b00 <__sfputs_r+0xa>
 8007b18:	bdf8      	pop	{r3, r4, r5, r6, r7, pc}
	...

08007b1c <_vfiprintf_r>:
 8007b1c:	e92d 4ff0 	stmdb	sp!, {r4, r5, r6, r7, r8, r9, sl, fp, lr}
 8007b20:	460d      	mov	r5, r1
 8007b22:	4614      	mov	r4, r2
 8007b24:	4698      	mov	r8, r3
 8007b26:	4606      	mov	r6, r0
 8007b28:	b09d      	sub	sp, #116	@ 0x74
 8007b2a:	b118      	cbz	r0, 8007b34 <_vfiprintf_r+0x18>
 8007b2c:	6a03      	ldr	r3, [r0, #32]
 8007b2e:	b90b      	cbnz	r3, 8007b34 <_vfiprintf_r+0x18>
 8007b30:	f7ff fb8c 	bl	800724c <__sinit>
 8007b34:	6e6b      	ldr	r3, [r5, #100]	@ 0x64
 8007b36:	07d9      	lsls	r1, r3, #31
 8007b38:	d405      	bmi.n	8007b46 <_vfiprintf_r+0x2a>
 8007b3a:	89ab      	ldrh	r3, [r5, #12]
 8007b3c:	059a      	lsls	r2, r3, #22
 8007b3e:	d402      	bmi.n	8007b46 <_vfiprintf_r+0x2a>
 8007b40:	6da8      	ldr	r0, [r5, #88]	@ 0x58
 8007b42:	f7ff fe0c 	bl	800775e <__retarget_lock_acquire_recursive>
 8007b46:	89ab      	ldrh	r3, [r5, #12]
 8007b48:	071b      	lsls	r3, r3, #28
 8007b4a:	d501      	bpl.n	8007b50 <_vfiprintf_r+0x34>
 8007b4c:	692b      	ldr	r3, [r5, #16]
 8007b4e:	b99b      	cbnz	r3, 8007b78 <_vfiprintf_r+0x5c>
 8007b50:	4629      	mov	r1, r5
 8007b52:	4630      	mov	r0, r6
 8007b54:	f7ff fc7a 	bl	800744c <__swsetup_r>
 8007b58:	b170      	cbz	r0, 8007b78 <_vfiprintf_r+0x5c>
 8007b5a:	6e6b      	ldr	r3, [r5, #100]	@ 0x64
 8007b5c:	07dc      	lsls	r4, r3, #31
 8007b5e:	d504      	bpl.n	8007b6a <_vfiprintf_r+0x4e>
 8007b60:	f04f 30ff 	mov.w	r0, #4294967295
 8007b64:	b01d      	add	sp, #116	@ 0x74
 8007b66:	e8bd 8ff0 	ldmia.w	sp!, {r4, r5, r6, r7, r8, r9, sl, fp, pc}
 8007b6a:	89ab      	ldrh	r3, [r5, #12]
 8007b6c:	0598      	lsls	r0, r3, #22
 8007b6e:	d4f7      	bmi.n	8007b60 <_vfiprintf_r+0x44>
 8007b70:	6da8      	ldr	r0, [r5, #88]	@ 0x58
 8007b72:	f7ff fdf5 	bl	8007760 <__retarget_lock_release_recursive>
 8007b76:	e7f3      	b.n	8007b60 <_vfiprintf_r+0x44>
 8007b78:	2300      	movs	r3, #0
 8007b7a:	9309      	str	r3, [sp, #36]	@ 0x24
 8007b7c:	2320      	movs	r3, #32
 8007b7e:	f88d 3029 	strb.w	r3, [sp, #41]	@ 0x29
 8007b82:	2330      	movs	r3, #48	@ 0x30
 8007b84:	f04f 0901 	mov.w	r9, #1
 8007b88:	f8cd 800c 	str.w	r8, [sp, #12]
 8007b8c:	f8df 81a8 	ldr.w	r8, [pc, #424]	@ 8007d38 <_vfiprintf_r+0x21c>
 8007b90:	f88d 302a 	strb.w	r3, [sp, #42]	@ 0x2a
 8007b94:	4623      	mov	r3, r4
 8007b96:	469a      	mov	sl, r3
 8007b98:	f813 2b01 	ldrb.w	r2, [r3], #1
 8007b9c:	b10a      	cbz	r2, 8007ba2 <_vfiprintf_r+0x86>
 8007b9e:	2a25      	cmp	r2, #37	@ 0x25
 8007ba0:	d1f9      	bne.n	8007b96 <_vfiprintf_r+0x7a>
 8007ba2:	ebba 0b04 	subs.w	fp, sl, r4
 8007ba6:	d00b      	beq.n	8007bc0 <_vfiprintf_r+0xa4>
 8007ba8:	465b      	mov	r3, fp
 8007baa:	4622      	mov	r2, r4
 8007bac:	4629      	mov	r1, r5
 8007bae:	4630      	mov	r0, r6
 8007bb0:	f7ff ffa1 	bl	8007af6 <__sfputs_r>
 8007bb4:	3001      	adds	r0, #1
 8007bb6:	f000 80a7 	beq.w	8007d08 <_vfiprintf_r+0x1ec>
 8007bba:	9a09      	ldr	r2, [sp, #36]	@ 0x24
 8007bbc:	445a      	add	r2, fp
 8007bbe:	9209      	str	r2, [sp, #36]	@ 0x24
 8007bc0:	f89a 3000 	ldrb.w	r3, [sl]
 8007bc4:	2b00      	cmp	r3, #0
 8007bc6:	f000 809f 	beq.w	8007d08 <_vfiprintf_r+0x1ec>
 8007bca:	2300      	movs	r3, #0
 8007bcc:	f04f 32ff 	mov.w	r2, #4294967295
 8007bd0:	e9cd 2305 	strd	r2, r3, [sp, #20]
 8007bd4:	f10a 0a01 	add.w	sl, sl, #1
 8007bd8:	9304      	str	r3, [sp, #16]
 8007bda:	9307      	str	r3, [sp, #28]
 8007bdc:	f88d 3053 	strb.w	r3, [sp, #83]	@ 0x53
 8007be0:	931a      	str	r3, [sp, #104]	@ 0x68
 8007be2:	4654      	mov	r4, sl
 8007be4:	2205      	movs	r2, #5
 8007be6:	f814 1b01 	ldrb.w	r1, [r4], #1
 8007bea:	4853      	ldr	r0, [pc, #332]	@ (8007d38 <_vfiprintf_r+0x21c>)
 8007bec:	f000 fbae 	bl	800834c <memchr>
 8007bf0:	9a04      	ldr	r2, [sp, #16]
 8007bf2:	b9d8      	cbnz	r0, 8007c2c <_vfiprintf_r+0x110>
 8007bf4:	06d1      	lsls	r1, r2, #27
 8007bf6:	bf44      	itt	mi
 8007bf8:	2320      	movmi	r3, #32
 8007bfa:	f88d 3053 	strbmi.w	r3, [sp, #83]	@ 0x53
 8007bfe:	0713      	lsls	r3, r2, #28
 8007c00:	bf44      	itt	mi
 8007c02:	232b      	movmi	r3, #43	@ 0x2b
 8007c04:	f88d 3053 	strbmi.w	r3, [sp, #83]	@ 0x53
 8007c08:	f89a 3000 	ldrb.w	r3, [sl]
 8007c0c:	2b2a      	cmp	r3, #42	@ 0x2a
 8007c0e:	d015      	beq.n	8007c3c <_vfiprintf_r+0x120>
 8007c10:	4654      	mov	r4, sl
 8007c12:	2000      	movs	r0, #0
 8007c14:	f04f 0c0a 	mov.w	ip, #10
 8007c18:	9a07      	ldr	r2, [sp, #28]
 8007c1a:	4621      	mov	r1, r4
 8007c1c:	f811 3b01 	ldrb.w	r3, [r1], #1
 8007c20:	3b30      	subs	r3, #48	@ 0x30
 8007c22:	2b09      	cmp	r3, #9
 8007c24:	d94b      	bls.n	8007cbe <_vfiprintf_r+0x1a2>
 8007c26:	b1b0      	cbz	r0, 8007c56 <_vfiprintf_r+0x13a>
 8007c28:	9207      	str	r2, [sp, #28]
 8007c2a:	e014      	b.n	8007c56 <_vfiprintf_r+0x13a>
 8007c2c:	eba0 0308 	sub.w	r3, r0, r8
 8007c30:	fa09 f303 	lsl.w	r3, r9, r3
 8007c34:	4313      	orrs	r3, r2
 8007c36:	46a2      	mov	sl, r4
 8007c38:	9304      	str	r3, [sp, #16]
 8007c3a:	e7d2      	b.n	8007be2 <_vfiprintf_r+0xc6>
 8007c3c:	9b03      	ldr	r3, [sp, #12]
 8007c3e:	1d19      	adds	r1, r3, #4
 8007c40:	681b      	ldr	r3, [r3, #0]
 8007c42:	9103      	str	r1, [sp, #12]
 8007c44:	2b00      	cmp	r3, #0
 8007c46:	bfbb      	ittet	lt
 8007c48:	425b      	neglt	r3, r3
 8007c4a:	f042 0202 	orrlt.w	r2, r2, #2
 8007c4e:	9307      	strge	r3, [sp, #28]
 8007c50:	9307      	strlt	r3, [sp, #28]
 8007c52:	bfb8      	it	lt
 8007c54:	9204      	strlt	r2, [sp, #16]
 8007c56:	7823      	ldrb	r3, [r4, #0]
 8007c58:	2b2e      	cmp	r3, #46	@ 0x2e
 8007c5a:	d10a      	bne.n	8007c72 <_vfiprintf_r+0x156>
 8007c5c:	7863      	ldrb	r3, [r4, #1]
 8007c5e:	2b2a      	cmp	r3, #42	@ 0x2a
 8007c60:	d132      	bne.n	8007cc8 <_vfiprintf_r+0x1ac>
 8007c62:	9b03      	ldr	r3, [sp, #12]
 8007c64:	3402      	adds	r4, #2
 8007c66:	1d1a      	adds	r2, r3, #4
 8007c68:	681b      	ldr	r3, [r3, #0]
 8007c6a:	9203      	str	r2, [sp, #12]
 8007c6c:	ea43 73e3 	orr.w	r3, r3, r3, asr #31
 8007c70:	9305      	str	r3, [sp, #20]
 8007c72:	f8df a0c8 	ldr.w	sl, [pc, #200]	@ 8007d3c <_vfiprintf_r+0x220>
 8007c76:	2203      	movs	r2, #3
 8007c78:	4650      	mov	r0, sl
 8007c7a:	7821      	ldrb	r1, [r4, #0]
 8007c7c:	f000 fb66 	bl	800834c <memchr>
 8007c80:	b138      	cbz	r0, 8007c92 <_vfiprintf_r+0x176>
 8007c82:	2240      	movs	r2, #64	@ 0x40
 8007c84:	9b04      	ldr	r3, [sp, #16]
 8007c86:	eba0 000a 	sub.w	r0, r0, sl
 8007c8a:	4082      	lsls	r2, r0
 8007c8c:	4313      	orrs	r3, r2
 8007c8e:	3401      	adds	r4, #1
 8007c90:	9304      	str	r3, [sp, #16]
 8007c92:	f814 1b01 	ldrb.w	r1, [r4], #1
 8007c96:	2206      	movs	r2, #6
 8007c98:	4829      	ldr	r0, [pc, #164]	@ (8007d40 <_vfiprintf_r+0x224>)
 8007c9a:	f88d 1028 	strb.w	r1, [sp, #40]	@ 0x28
 8007c9e:	f000 fb55 	bl	800834c <memchr>
 8007ca2:	2800      	cmp	r0, #0
 8007ca4:	d03f      	beq.n	8007d26 <_vfiprintf_r+0x20a>
 8007ca6:	4b27      	ldr	r3, [pc, #156]	@ (8007d44 <_vfiprintf_r+0x228>)
 8007ca8:	bb1b      	cbnz	r3, 8007cf2 <_vfiprintf_r+0x1d6>
 8007caa:	9b03      	ldr	r3, [sp, #12]
 8007cac:	3307      	adds	r3, #7
 8007cae:	f023 0307 	bic.w	r3, r3, #7
 8007cb2:	3308      	adds	r3, #8
 8007cb4:	9303      	str	r3, [sp, #12]
 8007cb6:	9b09      	ldr	r3, [sp, #36]	@ 0x24
 8007cb8:	443b      	add	r3, r7
 8007cba:	9309      	str	r3, [sp, #36]	@ 0x24
 8007cbc:	e76a      	b.n	8007b94 <_vfiprintf_r+0x78>
 8007cbe:	460c      	mov	r4, r1
 8007cc0:	2001      	movs	r0, #1
 8007cc2:	fb0c 3202 	mla	r2, ip, r2, r3
 8007cc6:	e7a8      	b.n	8007c1a <_vfiprintf_r+0xfe>
 8007cc8:	2300      	movs	r3, #0
 8007cca:	f04f 0c0a 	mov.w	ip, #10
 8007cce:	4619      	mov	r1, r3
 8007cd0:	3401      	adds	r4, #1
 8007cd2:	9305      	str	r3, [sp, #20]
 8007cd4:	4620      	mov	r0, r4
 8007cd6:	f810 2b01 	ldrb.w	r2, [r0], #1
 8007cda:	3a30      	subs	r2, #48	@ 0x30
 8007cdc:	2a09      	cmp	r2, #9
 8007cde:	d903      	bls.n	8007ce8 <_vfiprintf_r+0x1cc>
 8007ce0:	2b00      	cmp	r3, #0
 8007ce2:	d0c6      	beq.n	8007c72 <_vfiprintf_r+0x156>
 8007ce4:	9105      	str	r1, [sp, #20]
 8007ce6:	e7c4      	b.n	8007c72 <_vfiprintf_r+0x156>
 8007ce8:	4604      	mov	r4, r0
 8007cea:	2301      	movs	r3, #1
 8007cec:	fb0c 2101 	mla	r1, ip, r1, r2
 8007cf0:	e7f0      	b.n	8007cd4 <_vfiprintf_r+0x1b8>
 8007cf2:	ab03      	add	r3, sp, #12
 8007cf4:	9300      	str	r3, [sp, #0]
 8007cf6:	462a      	mov	r2, r5
 8007cf8:	4630      	mov	r0, r6
 8007cfa:	4b13      	ldr	r3, [pc, #76]	@ (8007d48 <_vfiprintf_r+0x22c>)
 8007cfc:	a904      	add	r1, sp, #16
 8007cfe:	f3af 8000 	nop.w
 8007d02:	4607      	mov	r7, r0
 8007d04:	1c78      	adds	r0, r7, #1
 8007d06:	d1d6      	bne.n	8007cb6 <_vfiprintf_r+0x19a>
 8007d08:	6e6b      	ldr	r3, [r5, #100]	@ 0x64
 8007d0a:	07d9      	lsls	r1, r3, #31
 8007d0c:	d405      	bmi.n	8007d1a <_vfiprintf_r+0x1fe>
 8007d0e:	89ab      	ldrh	r3, [r5, #12]
 8007d10:	059a      	lsls	r2, r3, #22
 8007d12:	d402      	bmi.n	8007d1a <_vfiprintf_r+0x1fe>
 8007d14:	6da8      	ldr	r0, [r5, #88]	@ 0x58
 8007d16:	f7ff fd23 	bl	8007760 <__retarget_lock_release_recursive>
 8007d1a:	89ab      	ldrh	r3, [r5, #12]
 8007d1c:	065b      	lsls	r3, r3, #25
 8007d1e:	f53f af1f 	bmi.w	8007b60 <_vfiprintf_r+0x44>
 8007d22:	9809      	ldr	r0, [sp, #36]	@ 0x24
 8007d24:	e71e      	b.n	8007b64 <_vfiprintf_r+0x48>
 8007d26:	ab03      	add	r3, sp, #12
 8007d28:	9300      	str	r3, [sp, #0]
 8007d2a:	462a      	mov	r2, r5
 8007d2c:	4630      	mov	r0, r6
 8007d2e:	4b06      	ldr	r3, [pc, #24]	@ (8007d48 <_vfiprintf_r+0x22c>)
 8007d30:	a904      	add	r1, sp, #16
 8007d32:	f000 f87d 	bl	8007e30 <_printf_i>
 8007d36:	e7e4      	b.n	8007d02 <_vfiprintf_r+0x1e6>
 8007d38:	0800a530 	.word	0x0800a530
 8007d3c:	0800a536 	.word	0x0800a536
 8007d40:	0800a53a 	.word	0x0800a53a
 8007d44:	00000000 	.word	0x00000000
 8007d48:	08007af7 	.word	0x08007af7

08007d4c <_printf_common>:
 8007d4c:	e92d 47f0 	stmdb	sp!, {r4, r5, r6, r7, r8, r9, sl, lr}
 8007d50:	4616      	mov	r6, r2
 8007d52:	4698      	mov	r8, r3
 8007d54:	688a      	ldr	r2, [r1, #8]
 8007d56:	690b      	ldr	r3, [r1, #16]
 8007d58:	4607      	mov	r7, r0
 8007d5a:	4293      	cmp	r3, r2
 8007d5c:	bfb8      	it	lt
 8007d5e:	4613      	movlt	r3, r2
 8007d60:	6033      	str	r3, [r6, #0]
 8007d62:	f891 2043 	ldrb.w	r2, [r1, #67]	@ 0x43
 8007d66:	460c      	mov	r4, r1
 8007d68:	f8dd 9020 	ldr.w	r9, [sp, #32]
 8007d6c:	b10a      	cbz	r2, 8007d72 <_printf_common+0x26>
 8007d6e:	3301      	adds	r3, #1
 8007d70:	6033      	str	r3, [r6, #0]
 8007d72:	6823      	ldr	r3, [r4, #0]
 8007d74:	0699      	lsls	r1, r3, #26
 8007d76:	bf42      	ittt	mi
 8007d78:	6833      	ldrmi	r3, [r6, #0]
 8007d7a:	3302      	addmi	r3, #2
 8007d7c:	6033      	strmi	r3, [r6, #0]
 8007d7e:	6825      	ldr	r5, [r4, #0]
 8007d80:	f015 0506 	ands.w	r5, r5, #6
 8007d84:	d106      	bne.n	8007d94 <_printf_common+0x48>
 8007d86:	f104 0a19 	add.w	sl, r4, #25
 8007d8a:	68e3      	ldr	r3, [r4, #12]
 8007d8c:	6832      	ldr	r2, [r6, #0]
 8007d8e:	1a9b      	subs	r3, r3, r2
 8007d90:	42ab      	cmp	r3, r5
 8007d92:	dc2b      	bgt.n	8007dec <_printf_common+0xa0>
 8007d94:	f894 3043 	ldrb.w	r3, [r4, #67]	@ 0x43
 8007d98:	6822      	ldr	r2, [r4, #0]
 8007d9a:	3b00      	subs	r3, #0
 8007d9c:	bf18      	it	ne
 8007d9e:	2301      	movne	r3, #1
 8007da0:	0692      	lsls	r2, r2, #26
 8007da2:	d430      	bmi.n	8007e06 <_printf_common+0xba>
 8007da4:	4641      	mov	r1, r8
 8007da6:	4638      	mov	r0, r7
 8007da8:	f104 0243 	add.w	r2, r4, #67	@ 0x43
 8007dac:	47c8      	blx	r9
 8007dae:	3001      	adds	r0, #1
 8007db0:	d023      	beq.n	8007dfa <_printf_common+0xae>
 8007db2:	6823      	ldr	r3, [r4, #0]
 8007db4:	6922      	ldr	r2, [r4, #16]
 8007db6:	f003 0306 	and.w	r3, r3, #6
 8007dba:	2b04      	cmp	r3, #4
 8007dbc:	bf14      	ite	ne
 8007dbe:	2500      	movne	r5, #0
 8007dc0:	6833      	ldreq	r3, [r6, #0]
 8007dc2:	f04f 0600 	mov.w	r6, #0
 8007dc6:	bf08      	it	eq
 8007dc8:	68e5      	ldreq	r5, [r4, #12]
 8007dca:	f104 041a 	add.w	r4, r4, #26
 8007dce:	bf08      	it	eq
 8007dd0:	1aed      	subeq	r5, r5, r3
 8007dd2:	f854 3c12 	ldr.w	r3, [r4, #-18]
 8007dd6:	bf08      	it	eq
 8007dd8:	ea25 75e5 	biceq.w	r5, r5, r5, asr #31
 8007ddc:	4293      	cmp	r3, r2
 8007dde:	bfc4      	itt	gt
 8007de0:	1a9b      	subgt	r3, r3, r2
 8007de2:	18ed      	addgt	r5, r5, r3
 8007de4:	42b5      	cmp	r5, r6
 8007de6:	d11a      	bne.n	8007e1e <_printf_common+0xd2>
 8007de8:	2000      	movs	r0, #0
 8007dea:	e008      	b.n	8007dfe <_printf_common+0xb2>
 8007dec:	2301      	movs	r3, #1
 8007dee:	4652      	mov	r2, sl
 8007df0:	4641      	mov	r1, r8
 8007df2:	4638      	mov	r0, r7
 8007df4:	47c8      	blx	r9
 8007df6:	3001      	adds	r0, #1
 8007df8:	d103      	bne.n	8007e02 <_printf_common+0xb6>
 8007dfa:	f04f 30ff 	mov.w	r0, #4294967295
 8007dfe:	e8bd 87f0 	ldmia.w	sp!, {r4, r5, r6, r7, r8, r9, sl, pc}
 8007e02:	3501      	adds	r5, #1
 8007e04:	e7c1      	b.n	8007d8a <_printf_common+0x3e>
 8007e06:	2030      	movs	r0, #48	@ 0x30
 8007e08:	18e1      	adds	r1, r4, r3
 8007e0a:	f881 0043 	strb.w	r0, [r1, #67]	@ 0x43
 8007e0e:	1c5a      	adds	r2, r3, #1
 8007e10:	f894 1045 	ldrb.w	r1, [r4, #69]	@ 0x45
 8007e14:	4422      	add	r2, r4
 8007e16:	3302      	adds	r3, #2
 8007e18:	f882 1043 	strb.w	r1, [r2, #67]	@ 0x43
 8007e1c:	e7c2      	b.n	8007da4 <_printf_common+0x58>
 8007e1e:	2301      	movs	r3, #1
 8007e20:	4622      	mov	r2, r4
 8007e22:	4641      	mov	r1, r8
 8007e24:	4638      	mov	r0, r7
 8007e26:	47c8      	blx	r9
 8007e28:	3001      	adds	r0, #1
 8007e2a:	d0e6      	beq.n	8007dfa <_printf_common+0xae>
 8007e2c:	3601      	adds	r6, #1
 8007e2e:	e7d9      	b.n	8007de4 <_printf_common+0x98>

08007e30 <_printf_i>:
 8007e30:	e92d 47ff 	stmdb	sp!, {r0, r1, r2, r3, r4, r5, r6, r7, r8, r9, sl, lr}
 8007e34:	7e0f      	ldrb	r7, [r1, #24]
 8007e36:	4691      	mov	r9, r2
 8007e38:	2f78      	cmp	r7, #120	@ 0x78
 8007e3a:	4680      	mov	r8, r0
 8007e3c:	460c      	mov	r4, r1
 8007e3e:	469a      	mov	sl, r3
 8007e40:	9e0c      	ldr	r6, [sp, #48]	@ 0x30
 8007e42:	f101 0243 	add.w	r2, r1, #67	@ 0x43
 8007e46:	d807      	bhi.n	8007e58 <_printf_i+0x28>
 8007e48:	2f62      	cmp	r7, #98	@ 0x62
 8007e4a:	d80a      	bhi.n	8007e62 <_printf_i+0x32>
 8007e4c:	2f00      	cmp	r7, #0
 8007e4e:	f000 80d1 	beq.w	8007ff4 <_printf_i+0x1c4>
 8007e52:	2f58      	cmp	r7, #88	@ 0x58
 8007e54:	f000 80b8 	beq.w	8007fc8 <_printf_i+0x198>
 8007e58:	f104 0642 	add.w	r6, r4, #66	@ 0x42
 8007e5c:	f884 7042 	strb.w	r7, [r4, #66]	@ 0x42
 8007e60:	e03a      	b.n	8007ed8 <_printf_i+0xa8>
 8007e62:	f1a7 0363 	sub.w	r3, r7, #99	@ 0x63
 8007e66:	2b15      	cmp	r3, #21
 8007e68:	d8f6      	bhi.n	8007e58 <_printf_i+0x28>
 8007e6a:	a101      	add	r1, pc, #4	@ (adr r1, 8007e70 <_printf_i+0x40>)
 8007e6c:	f851 f023 	ldr.w	pc, [r1, r3, lsl #2]
 8007e70:	08007ec9 	.word	0x08007ec9
 8007e74:	08007edd 	.word	0x08007edd
 8007e78:	08007e59 	.word	0x08007e59
 8007e7c:	08007e59 	.word	0x08007e59
 8007e80:	08007e59 	.word	0x08007e59
 8007e84:	08007e59 	.word	0x08007e59
 8007e88:	08007edd 	.word	0x08007edd
 8007e8c:	08007e59 	.word	0x08007e59
 8007e90:	08007e59 	.word	0x08007e59
 8007e94:	08007e59 	.word	0x08007e59
 8007e98:	08007e59 	.word	0x08007e59
 8007e9c:	08007fdb 	.word	0x08007fdb
 8007ea0:	08007f07 	.word	0x08007f07
 8007ea4:	08007f95 	.word	0x08007f95
 8007ea8:	08007e59 	.word	0x08007e59
 8007eac:	08007e59 	.word	0x08007e59
 8007eb0:	08007ffd 	.word	0x08007ffd
 8007eb4:	08007e59 	.word	0x08007e59
 8007eb8:	08007f07 	.word	0x08007f07
 8007ebc:	08007e59 	.word	0x08007e59
 8007ec0:	08007e59 	.word	0x08007e59
 8007ec4:	08007f9d 	.word	0x08007f9d
 8007ec8:	6833      	ldr	r3, [r6, #0]
 8007eca:	1d1a      	adds	r2, r3, #4
 8007ecc:	681b      	ldr	r3, [r3, #0]
 8007ece:	6032      	str	r2, [r6, #0]
 8007ed0:	f104 0642 	add.w	r6, r4, #66	@ 0x42
 8007ed4:	f884 3042 	strb.w	r3, [r4, #66]	@ 0x42
 8007ed8:	2301      	movs	r3, #1
 8007eda:	e09c      	b.n	8008016 <_printf_i+0x1e6>
 8007edc:	6833      	ldr	r3, [r6, #0]
 8007ede:	6820      	ldr	r0, [r4, #0]
 8007ee0:	1d19      	adds	r1, r3, #4
 8007ee2:	6031      	str	r1, [r6, #0]
 8007ee4:	0606      	lsls	r6, r0, #24
 8007ee6:	d501      	bpl.n	8007eec <_printf_i+0xbc>
 8007ee8:	681d      	ldr	r5, [r3, #0]
 8007eea:	e003      	b.n	8007ef4 <_printf_i+0xc4>
 8007eec:	0645      	lsls	r5, r0, #25
 8007eee:	d5fb      	bpl.n	8007ee8 <_printf_i+0xb8>
 8007ef0:	f9b3 5000 	ldrsh.w	r5, [r3]
 8007ef4:	2d00      	cmp	r5, #0
 8007ef6:	da03      	bge.n	8007f00 <_printf_i+0xd0>
 8007ef8:	232d      	movs	r3, #45	@ 0x2d
 8007efa:	426d      	negs	r5, r5
 8007efc:	f884 3043 	strb.w	r3, [r4, #67]	@ 0x43
 8007f00:	230a      	movs	r3, #10
 8007f02:	4858      	ldr	r0, [pc, #352]	@ (8008064 <_printf_i+0x234>)
 8007f04:	e011      	b.n	8007f2a <_printf_i+0xfa>
 8007f06:	6821      	ldr	r1, [r4, #0]
 8007f08:	6833      	ldr	r3, [r6, #0]
 8007f0a:	0608      	lsls	r0, r1, #24
 8007f0c:	f853 5b04 	ldr.w	r5, [r3], #4
 8007f10:	d402      	bmi.n	8007f18 <_printf_i+0xe8>
 8007f12:	0649      	lsls	r1, r1, #25
 8007f14:	bf48      	it	mi
 8007f16:	b2ad      	uxthmi	r5, r5
 8007f18:	2f6f      	cmp	r7, #111	@ 0x6f
 8007f1a:	6033      	str	r3, [r6, #0]
 8007f1c:	bf14      	ite	ne
 8007f1e:	230a      	movne	r3, #10
 8007f20:	2308      	moveq	r3, #8
 8007f22:	4850      	ldr	r0, [pc, #320]	@ (8008064 <_printf_i+0x234>)
 8007f24:	2100      	movs	r1, #0
 8007f26:	f884 1043 	strb.w	r1, [r4, #67]	@ 0x43
 8007f2a:	6866      	ldr	r6, [r4, #4]
 8007f2c:	2e00      	cmp	r6, #0
 8007f2e:	60a6      	str	r6, [r4, #8]
 8007f30:	db05      	blt.n	8007f3e <_printf_i+0x10e>
 8007f32:	6821      	ldr	r1, [r4, #0]
 8007f34:	432e      	orrs	r6, r5
 8007f36:	f021 0104 	bic.w	r1, r1, #4
 8007f3a:	6021      	str	r1, [r4, #0]
 8007f3c:	d04b      	beq.n	8007fd6 <_printf_i+0x1a6>
 8007f3e:	4616      	mov	r6, r2
 8007f40:	fbb5 f1f3 	udiv	r1, r5, r3
 8007f44:	fb03 5711 	mls	r7, r3, r1, r5
 8007f48:	5dc7      	ldrb	r7, [r0, r7]
 8007f4a:	f806 7d01 	strb.w	r7, [r6, #-1]!
 8007f4e:	462f      	mov	r7, r5
 8007f50:	42bb      	cmp	r3, r7
 8007f52:	460d      	mov	r5, r1
 8007f54:	d9f4      	bls.n	8007f40 <_printf_i+0x110>
 8007f56:	2b08      	cmp	r3, #8
 8007f58:	d10b      	bne.n	8007f72 <_printf_i+0x142>
 8007f5a:	6823      	ldr	r3, [r4, #0]
 8007f5c:	07df      	lsls	r7, r3, #31
 8007f5e:	d508      	bpl.n	8007f72 <_printf_i+0x142>
 8007f60:	6923      	ldr	r3, [r4, #16]
 8007f62:	6861      	ldr	r1, [r4, #4]
 8007f64:	4299      	cmp	r1, r3
 8007f66:	bfde      	ittt	le
 8007f68:	2330      	movle	r3, #48	@ 0x30
 8007f6a:	f806 3c01 	strble.w	r3, [r6, #-1]
 8007f6e:	f106 36ff 	addle.w	r6, r6, #4294967295
 8007f72:	1b92      	subs	r2, r2, r6
 8007f74:	6122      	str	r2, [r4, #16]
 8007f76:	464b      	mov	r3, r9
 8007f78:	4621      	mov	r1, r4
 8007f7a:	4640      	mov	r0, r8
 8007f7c:	f8cd a000 	str.w	sl, [sp]
 8007f80:	aa03      	add	r2, sp, #12
 8007f82:	f7ff fee3 	bl	8007d4c <_printf_common>
 8007f86:	3001      	adds	r0, #1
 8007f88:	d14a      	bne.n	8008020 <_printf_i+0x1f0>
 8007f8a:	f04f 30ff 	mov.w	r0, #4294967295
 8007f8e:	b004      	add	sp, #16
 8007f90:	e8bd 87f0 	ldmia.w	sp!, {r4, r5, r6, r7, r8, r9, sl, pc}
 8007f94:	6823      	ldr	r3, [r4, #0]
 8007f96:	f043 0320 	orr.w	r3, r3, #32
 8007f9a:	6023      	str	r3, [r4, #0]
 8007f9c:	2778      	movs	r7, #120	@ 0x78
 8007f9e:	4832      	ldr	r0, [pc, #200]	@ (8008068 <_printf_i+0x238>)
 8007fa0:	f884 7045 	strb.w	r7, [r4, #69]	@ 0x45
 8007fa4:	6823      	ldr	r3, [r4, #0]
 8007fa6:	6831      	ldr	r1, [r6, #0]
 8007fa8:	061f      	lsls	r7, r3, #24
 8007faa:	f851 5b04 	ldr.w	r5, [r1], #4
 8007fae:	d402      	bmi.n	8007fb6 <_printf_i+0x186>
 8007fb0:	065f      	lsls	r7, r3, #25
 8007fb2:	bf48      	it	mi
 8007fb4:	b2ad      	uxthmi	r5, r5
 8007fb6:	6031      	str	r1, [r6, #0]
 8007fb8:	07d9      	lsls	r1, r3, #31
 8007fba:	bf44      	itt	mi
 8007fbc:	f043 0320 	orrmi.w	r3, r3, #32
 8007fc0:	6023      	strmi	r3, [r4, #0]
 8007fc2:	b11d      	cbz	r5, 8007fcc <_printf_i+0x19c>
 8007fc4:	2310      	movs	r3, #16
 8007fc6:	e7ad      	b.n	8007f24 <_printf_i+0xf4>
 8007fc8:	4826      	ldr	r0, [pc, #152]	@ (8008064 <_printf_i+0x234>)
 8007fca:	e7e9      	b.n	8007fa0 <_printf_i+0x170>
 8007fcc:	6823      	ldr	r3, [r4, #0]
 8007fce:	f023 0320 	bic.w	r3, r3, #32
 8007fd2:	6023      	str	r3, [r4, #0]
 8007fd4:	e7f6      	b.n	8007fc4 <_printf_i+0x194>
 8007fd6:	4616      	mov	r6, r2
 8007fd8:	e7bd      	b.n	8007f56 <_printf_i+0x126>
 8007fda:	6833      	ldr	r3, [r6, #0]
 8007fdc:	6825      	ldr	r5, [r4, #0]
 8007fde:	1d18      	adds	r0, r3, #4
 8007fe0:	6961      	ldr	r1, [r4, #20]
 8007fe2:	6030      	str	r0, [r6, #0]
 8007fe4:	062e      	lsls	r6, r5, #24
 8007fe6:	681b      	ldr	r3, [r3, #0]
 8007fe8:	d501      	bpl.n	8007fee <_printf_i+0x1be>
 8007fea:	6019      	str	r1, [r3, #0]
 8007fec:	e002      	b.n	8007ff4 <_printf_i+0x1c4>
 8007fee:	0668      	lsls	r0, r5, #25
 8007ff0:	d5fb      	bpl.n	8007fea <_printf_i+0x1ba>
 8007ff2:	8019      	strh	r1, [r3, #0]
 8007ff4:	2300      	movs	r3, #0
 8007ff6:	4616      	mov	r6, r2
 8007ff8:	6123      	str	r3, [r4, #16]
 8007ffa:	e7bc      	b.n	8007f76 <_printf_i+0x146>
 8007ffc:	6833      	ldr	r3, [r6, #0]
 8007ffe:	2100      	movs	r1, #0
 8008000:	1d1a      	adds	r2, r3, #4
 8008002:	6032      	str	r2, [r6, #0]
 8008004:	681e      	ldr	r6, [r3, #0]
 8008006:	6862      	ldr	r2, [r4, #4]
 8008008:	4630      	mov	r0, r6
 800800a:	f000 f99f 	bl	800834c <memchr>
 800800e:	b108      	cbz	r0, 8008014 <_printf_i+0x1e4>
 8008010:	1b80      	subs	r0, r0, r6
 8008012:	6060      	str	r0, [r4, #4]
 8008014:	6863      	ldr	r3, [r4, #4]
 8008016:	6123      	str	r3, [r4, #16]
 8008018:	2300      	movs	r3, #0
 800801a:	f884 3043 	strb.w	r3, [r4, #67]	@ 0x43
 800801e:	e7aa      	b.n	8007f76 <_printf_i+0x146>
 8008020:	4632      	mov	r2, r6
 8008022:	4649      	mov	r1, r9
 8008024:	4640      	mov	r0, r8
 8008026:	6923      	ldr	r3, [r4, #16]
 8008028:	47d0      	blx	sl
 800802a:	3001      	adds	r0, #1
 800802c:	d0ad      	beq.n	8007f8a <_printf_i+0x15a>
 800802e:	6823      	ldr	r3, [r4, #0]
 8008030:	079b      	lsls	r3, r3, #30
 8008032:	d413      	bmi.n	800805c <_printf_i+0x22c>
 8008034:	68e0      	ldr	r0, [r4, #12]
 8008036:	9b03      	ldr	r3, [sp, #12]
 8008038:	4298      	cmp	r0, r3
 800803a:	bfb8      	it	lt
 800803c:	4618      	movlt	r0, r3
 800803e:	e7a6      	b.n	8007f8e <_printf_i+0x15e>
 8008040:	2301      	movs	r3, #1
 8008042:	4632      	mov	r2, r6
 8008044:	4649      	mov	r1, r9
 8008046:	4640      	mov	r0, r8
 8008048:	47d0      	blx	sl
 800804a:	3001      	adds	r0, #1
 800804c:	d09d      	beq.n	8007f8a <_printf_i+0x15a>
 800804e:	3501      	adds	r5, #1
 8008050:	68e3      	ldr	r3, [r4, #12]
 8008052:	9903      	ldr	r1, [sp, #12]
 8008054:	1a5b      	subs	r3, r3, r1
 8008056:	42ab      	cmp	r3, r5
 8008058:	dcf2      	bgt.n	8008040 <_printf_i+0x210>
 800805a:	e7eb      	b.n	8008034 <_printf_i+0x204>
 800805c:	2500      	movs	r5, #0
 800805e:	f104 0619 	add.w	r6, r4, #25
 8008062:	e7f5      	b.n	8008050 <_printf_i+0x220>
 8008064:	0800a541 	.word	0x0800a541
 8008068:	0800a552 	.word	0x0800a552

0800806c <__sflush_r>:
 800806c:	f9b1 200c 	ldrsh.w	r2, [r1, #12]
 8008070:	b5f8      	push	{r3, r4, r5, r6, r7, lr}
 8008072:	0716      	lsls	r6, r2, #28
 8008074:	4605      	mov	r5, r0
 8008076:	460c      	mov	r4, r1
 8008078:	d454      	bmi.n	8008124 <__sflush_r+0xb8>
 800807a:	684b      	ldr	r3, [r1, #4]
 800807c:	2b00      	cmp	r3, #0
 800807e:	dc02      	bgt.n	8008086 <__sflush_r+0x1a>
 8008080:	6c0b      	ldr	r3, [r1, #64]	@ 0x40
 8008082:	2b00      	cmp	r3, #0
 8008084:	dd48      	ble.n	8008118 <__sflush_r+0xac>
 8008086:	6ae6      	ldr	r6, [r4, #44]	@ 0x2c
 8008088:	2e00      	cmp	r6, #0
 800808a:	d045      	beq.n	8008118 <__sflush_r+0xac>
 800808c:	2300      	movs	r3, #0
 800808e:	f412 5280 	ands.w	r2, r2, #4096	@ 0x1000
 8008092:	682f      	ldr	r7, [r5, #0]
 8008094:	6a21      	ldr	r1, [r4, #32]
 8008096:	602b      	str	r3, [r5, #0]
 8008098:	d030      	beq.n	80080fc <__sflush_r+0x90>
 800809a:	6d62      	ldr	r2, [r4, #84]	@ 0x54
 800809c:	89a3      	ldrh	r3, [r4, #12]
 800809e:	0759      	lsls	r1, r3, #29
 80080a0:	d505      	bpl.n	80080ae <__sflush_r+0x42>
 80080a2:	6863      	ldr	r3, [r4, #4]
 80080a4:	1ad2      	subs	r2, r2, r3
 80080a6:	6b63      	ldr	r3, [r4, #52]	@ 0x34
 80080a8:	b10b      	cbz	r3, 80080ae <__sflush_r+0x42>
 80080aa:	6c23      	ldr	r3, [r4, #64]	@ 0x40
 80080ac:	1ad2      	subs	r2, r2, r3
 80080ae:	2300      	movs	r3, #0
 80080b0:	4628      	mov	r0, r5
 80080b2:	6ae6      	ldr	r6, [r4, #44]	@ 0x2c
 80080b4:	6a21      	ldr	r1, [r4, #32]
 80080b6:	47b0      	blx	r6
 80080b8:	1c43      	adds	r3, r0, #1
 80080ba:	89a3      	ldrh	r3, [r4, #12]
 80080bc:	d106      	bne.n	80080cc <__sflush_r+0x60>
 80080be:	6829      	ldr	r1, [r5, #0]
 80080c0:	291d      	cmp	r1, #29
 80080c2:	d82b      	bhi.n	800811c <__sflush_r+0xb0>
 80080c4:	4a28      	ldr	r2, [pc, #160]	@ (8008168 <__sflush_r+0xfc>)
 80080c6:	40ca      	lsrs	r2, r1
 80080c8:	07d6      	lsls	r6, r2, #31
 80080ca:	d527      	bpl.n	800811c <__sflush_r+0xb0>
 80080cc:	2200      	movs	r2, #0
 80080ce:	6062      	str	r2, [r4, #4]
 80080d0:	6922      	ldr	r2, [r4, #16]
 80080d2:	04d9      	lsls	r1, r3, #19
 80080d4:	6022      	str	r2, [r4, #0]
 80080d6:	d504      	bpl.n	80080e2 <__sflush_r+0x76>
 80080d8:	1c42      	adds	r2, r0, #1
 80080da:	d101      	bne.n	80080e0 <__sflush_r+0x74>
 80080dc:	682b      	ldr	r3, [r5, #0]
 80080de:	b903      	cbnz	r3, 80080e2 <__sflush_r+0x76>
 80080e0:	6560      	str	r0, [r4, #84]	@ 0x54
 80080e2:	6b61      	ldr	r1, [r4, #52]	@ 0x34
 80080e4:	602f      	str	r7, [r5, #0]
 80080e6:	b1b9      	cbz	r1, 8008118 <__sflush_r+0xac>
 80080e8:	f104 0344 	add.w	r3, r4, #68	@ 0x44
 80080ec:	4299      	cmp	r1, r3
 80080ee:	d002      	beq.n	80080f6 <__sflush_r+0x8a>
 80080f0:	4628      	mov	r0, r5
 80080f2:	f7ff fb4b 	bl	800778c <_free_r>
 80080f6:	2300      	movs	r3, #0
 80080f8:	6363      	str	r3, [r4, #52]	@ 0x34
 80080fa:	e00d      	b.n	8008118 <__sflush_r+0xac>
 80080fc:	2301      	movs	r3, #1
 80080fe:	4628      	mov	r0, r5
 8008100:	47b0      	blx	r6
 8008102:	4602      	mov	r2, r0
 8008104:	1c50      	adds	r0, r2, #1
 8008106:	d1c9      	bne.n	800809c <__sflush_r+0x30>
 8008108:	682b      	ldr	r3, [r5, #0]
 800810a:	2b00      	cmp	r3, #0
 800810c:	d0c6      	beq.n	800809c <__sflush_r+0x30>
 800810e:	2b1d      	cmp	r3, #29
 8008110:	d001      	beq.n	8008116 <__sflush_r+0xaa>
 8008112:	2b16      	cmp	r3, #22
 8008114:	d11d      	bne.n	8008152 <__sflush_r+0xe6>
 8008116:	602f      	str	r7, [r5, #0]
 8008118:	2000      	movs	r0, #0
 800811a:	e021      	b.n	8008160 <__sflush_r+0xf4>
 800811c:	f043 0340 	orr.w	r3, r3, #64	@ 0x40
 8008120:	b21b      	sxth	r3, r3
 8008122:	e01a      	b.n	800815a <__sflush_r+0xee>
 8008124:	690f      	ldr	r7, [r1, #16]
 8008126:	2f00      	cmp	r7, #0
 8008128:	d0f6      	beq.n	8008118 <__sflush_r+0xac>
 800812a:	0793      	lsls	r3, r2, #30
 800812c:	bf18      	it	ne
 800812e:	2300      	movne	r3, #0
 8008130:	680e      	ldr	r6, [r1, #0]
 8008132:	bf08      	it	eq
 8008134:	694b      	ldreq	r3, [r1, #20]
 8008136:	1bf6      	subs	r6, r6, r7
 8008138:	600f      	str	r7, [r1, #0]
 800813a:	608b      	str	r3, [r1, #8]
 800813c:	2e00      	cmp	r6, #0
 800813e:	ddeb      	ble.n	8008118 <__sflush_r+0xac>
 8008140:	4633      	mov	r3, r6
 8008142:	463a      	mov	r2, r7
 8008144:	4628      	mov	r0, r5
 8008146:	6a21      	ldr	r1, [r4, #32]
 8008148:	f8d4 c028 	ldr.w	ip, [r4, #40]	@ 0x28
 800814c:	47e0      	blx	ip
 800814e:	2800      	cmp	r0, #0
 8008150:	dc07      	bgt.n	8008162 <__sflush_r+0xf6>
 8008152:	f9b4 300c 	ldrsh.w	r3, [r4, #12]
 8008156:	f043 0340 	orr.w	r3, r3, #64	@ 0x40
 800815a:	f04f 30ff 	mov.w	r0, #4294967295
 800815e:	81a3      	strh	r3, [r4, #12]
 8008160:	bdf8      	pop	{r3, r4, r5, r6, r7, pc}
 8008162:	4407      	add	r7, r0
 8008164:	1a36      	subs	r6, r6, r0
 8008166:	e7e9      	b.n	800813c <__sflush_r+0xd0>
 8008168:	20400001 	.word	0x20400001

0800816c <_fflush_r>:
 800816c:	b538      	push	{r3, r4, r5, lr}
 800816e:	690b      	ldr	r3, [r1, #16]
 8008170:	4605      	mov	r5, r0
 8008172:	460c      	mov	r4, r1
 8008174:	b913      	cbnz	r3, 800817c <_fflush_r+0x10>
 8008176:	2500      	movs	r5, #0
 8008178:	4628      	mov	r0, r5
 800817a:	bd38      	pop	{r3, r4, r5, pc}
 800817c:	b118      	cbz	r0, 8008186 <_fflush_r+0x1a>
 800817e:	6a03      	ldr	r3, [r0, #32]
 8008180:	b90b      	cbnz	r3, 8008186 <_fflush_r+0x1a>
 8008182:	f7ff f863 	bl	800724c <__sinit>
 8008186:	f9b4 300c 	ldrsh.w	r3, [r4, #12]
 800818a:	2b00      	cmp	r3, #0
 800818c:	d0f3      	beq.n	8008176 <_fflush_r+0xa>
 800818e:	6e62      	ldr	r2, [r4, #100]	@ 0x64
 8008190:	07d0      	lsls	r0, r2, #31
 8008192:	d404      	bmi.n	800819e <_fflush_r+0x32>
 8008194:	0599      	lsls	r1, r3, #22
 8008196:	d402      	bmi.n	800819e <_fflush_r+0x32>
 8008198:	6da0      	ldr	r0, [r4, #88]	@ 0x58
 800819a:	f7ff fae0 	bl	800775e <__retarget_lock_acquire_recursive>
 800819e:	4628      	mov	r0, r5
 80081a0:	4621      	mov	r1, r4
 80081a2:	f7ff ff63 	bl	800806c <__sflush_r>
 80081a6:	6e63      	ldr	r3, [r4, #100]	@ 0x64
 80081a8:	4605      	mov	r5, r0
 80081aa:	07da      	lsls	r2, r3, #31
 80081ac:	d4e4      	bmi.n	8008178 <_fflush_r+0xc>
 80081ae:	89a3      	ldrh	r3, [r4, #12]
 80081b0:	059b      	lsls	r3, r3, #22
 80081b2:	d4e1      	bmi.n	8008178 <_fflush_r+0xc>
 80081b4:	6da0      	ldr	r0, [r4, #88]	@ 0x58
 80081b6:	f7ff fad3 	bl	8007760 <__retarget_lock_release_recursive>
 80081ba:	e7dd      	b.n	8008178 <_fflush_r+0xc>

080081bc <__swhatbuf_r>:
 80081bc:	b570      	push	{r4, r5, r6, lr}
 80081be:	460c      	mov	r4, r1
 80081c0:	f9b1 100e 	ldrsh.w	r1, [r1, #14]
 80081c4:	4615      	mov	r5, r2
 80081c6:	2900      	cmp	r1, #0
 80081c8:	461e      	mov	r6, r3
 80081ca:	b096      	sub	sp, #88	@ 0x58
 80081cc:	da0c      	bge.n	80081e8 <__swhatbuf_r+0x2c>
 80081ce:	89a3      	ldrh	r3, [r4, #12]
 80081d0:	2100      	movs	r1, #0
 80081d2:	f013 0f80 	tst.w	r3, #128	@ 0x80
 80081d6:	bf14      	ite	ne
 80081d8:	2340      	movne	r3, #64	@ 0x40
 80081da:	f44f 6380 	moveq.w	r3, #1024	@ 0x400
 80081de:	2000      	movs	r0, #0
 80081e0:	6031      	str	r1, [r6, #0]
 80081e2:	602b      	str	r3, [r5, #0]
 80081e4:	b016      	add	sp, #88	@ 0x58
 80081e6:	bd70      	pop	{r4, r5, r6, pc}
 80081e8:	466a      	mov	r2, sp
 80081ea:	f000 f879 	bl	80082e0 <_fstat_r>
 80081ee:	2800      	cmp	r0, #0
 80081f0:	dbed      	blt.n	80081ce <__swhatbuf_r+0x12>
 80081f2:	9901      	ldr	r1, [sp, #4]
 80081f4:	f401 4170 	and.w	r1, r1, #61440	@ 0xf000
 80081f8:	f5a1 5300 	sub.w	r3, r1, #8192	@ 0x2000
 80081fc:	4259      	negs	r1, r3
 80081fe:	4159      	adcs	r1, r3
 8008200:	f44f 6380 	mov.w	r3, #1024	@ 0x400
 8008204:	e7eb      	b.n	80081de <__swhatbuf_r+0x22>

08008206 <__smakebuf_r>:
 8008206:	898b      	ldrh	r3, [r1, #12]
 8008208:	b5f7      	push	{r0, r1, r2, r4, r5, r6, r7, lr}
 800820a:	079d      	lsls	r5, r3, #30
 800820c:	4606      	mov	r6, r0
 800820e:	460c      	mov	r4, r1
 8008210:	d507      	bpl.n	8008222 <__smakebuf_r+0x1c>
 8008212:	f104 0347 	add.w	r3, r4, #71	@ 0x47
 8008216:	6023      	str	r3, [r4, #0]
 8008218:	6123      	str	r3, [r4, #16]
 800821a:	2301      	movs	r3, #1
 800821c:	6163      	str	r3, [r4, #20]
 800821e:	b003      	add	sp, #12
 8008220:	bdf0      	pop	{r4, r5, r6, r7, pc}
 8008222:	466a      	mov	r2, sp
 8008224:	ab01      	add	r3, sp, #4
 8008226:	f7ff ffc9 	bl	80081bc <__swhatbuf_r>
 800822a:	9f00      	ldr	r7, [sp, #0]
 800822c:	4605      	mov	r5, r0
 800822e:	4639      	mov	r1, r7
 8008230:	4630      	mov	r0, r6
 8008232:	f7fe fef3 	bl	800701c <_malloc_r>
 8008236:	b948      	cbnz	r0, 800824c <__smakebuf_r+0x46>
 8008238:	f9b4 300c 	ldrsh.w	r3, [r4, #12]
 800823c:	059a      	lsls	r2, r3, #22
 800823e:	d4ee      	bmi.n	800821e <__smakebuf_r+0x18>
 8008240:	f023 0303 	bic.w	r3, r3, #3
 8008244:	f043 0302 	orr.w	r3, r3, #2
 8008248:	81a3      	strh	r3, [r4, #12]
 800824a:	e7e2      	b.n	8008212 <__smakebuf_r+0xc>
 800824c:	89a3      	ldrh	r3, [r4, #12]
 800824e:	e9c4 0704 	strd	r0, r7, [r4, #16]
 8008252:	f043 0380 	orr.w	r3, r3, #128	@ 0x80
 8008256:	81a3      	strh	r3, [r4, #12]
 8008258:	9b01      	ldr	r3, [sp, #4]
 800825a:	6020      	str	r0, [r4, #0]
 800825c:	b15b      	cbz	r3, 8008276 <__smakebuf_r+0x70>
 800825e:	4630      	mov	r0, r6
 8008260:	f9b4 100e 	ldrsh.w	r1, [r4, #14]
 8008264:	f000 f84e 	bl	8008304 <_isatty_r>
 8008268:	b128      	cbz	r0, 8008276 <__smakebuf_r+0x70>
 800826a:	89a3      	ldrh	r3, [r4, #12]
 800826c:	f023 0303 	bic.w	r3, r3, #3
 8008270:	f043 0301 	orr.w	r3, r3, #1
 8008274:	81a3      	strh	r3, [r4, #12]
 8008276:	89a3      	ldrh	r3, [r4, #12]
 8008278:	431d      	orrs	r5, r3
 800827a:	81a5      	strh	r5, [r4, #12]
 800827c:	e7cf      	b.n	800821e <__smakebuf_r+0x18>

0800827e <_raise_r>:
 800827e:	291f      	cmp	r1, #31
 8008280:	b538      	push	{r3, r4, r5, lr}
 8008282:	4605      	mov	r5, r0
 8008284:	460c      	mov	r4, r1
 8008286:	d904      	bls.n	8008292 <_raise_r+0x14>
 8008288:	2316      	movs	r3, #22
 800828a:	6003      	str	r3, [r0, #0]
 800828c:	f04f 30ff 	mov.w	r0, #4294967295
 8008290:	bd38      	pop	{r3, r4, r5, pc}
 8008292:	6bc2      	ldr	r2, [r0, #60]	@ 0x3c
 8008294:	b112      	cbz	r2, 800829c <_raise_r+0x1e>
 8008296:	f852 3021 	ldr.w	r3, [r2, r1, lsl #2]
 800829a:	b94b      	cbnz	r3, 80082b0 <_raise_r+0x32>
 800829c:	4628      	mov	r0, r5
 800829e:	f000 f853 	bl	8008348 <_getpid_r>
 80082a2:	4622      	mov	r2, r4
 80082a4:	4601      	mov	r1, r0
 80082a6:	4628      	mov	r0, r5
 80082a8:	e8bd 4038 	ldmia.w	sp!, {r3, r4, r5, lr}
 80082ac:	f000 b83a 	b.w	8008324 <_kill_r>
 80082b0:	2b01      	cmp	r3, #1
 80082b2:	d00a      	beq.n	80082ca <_raise_r+0x4c>
 80082b4:	1c59      	adds	r1, r3, #1
 80082b6:	d103      	bne.n	80082c0 <_raise_r+0x42>
 80082b8:	2316      	movs	r3, #22
 80082ba:	6003      	str	r3, [r0, #0]
 80082bc:	2001      	movs	r0, #1
 80082be:	e7e7      	b.n	8008290 <_raise_r+0x12>
 80082c0:	2100      	movs	r1, #0
 80082c2:	4620      	mov	r0, r4
 80082c4:	f842 1024 	str.w	r1, [r2, r4, lsl #2]
 80082c8:	4798      	blx	r3
 80082ca:	2000      	movs	r0, #0
 80082cc:	e7e0      	b.n	8008290 <_raise_r+0x12>
	...

080082d0 <raise>:
 80082d0:	4b02      	ldr	r3, [pc, #8]	@ (80082dc <raise+0xc>)
 80082d2:	4601      	mov	r1, r0
 80082d4:	6818      	ldr	r0, [r3, #0]
 80082d6:	f7ff bfd2 	b.w	800827e <_raise_r>
 80082da:	bf00      	nop
 80082dc:	20000064 	.word	0x20000064

080082e0 <_fstat_r>:
 80082e0:	b538      	push	{r3, r4, r5, lr}
 80082e2:	2300      	movs	r3, #0
 80082e4:	4d06      	ldr	r5, [pc, #24]	@ (8008300 <_fstat_r+0x20>)
 80082e6:	4604      	mov	r4, r0
 80082e8:	4608      	mov	r0, r1
 80082ea:	4611      	mov	r1, r2
 80082ec:	602b      	str	r3, [r5, #0]
 80082ee:	f7fb fc64 	bl	8003bba <_fstat>
 80082f2:	1c43      	adds	r3, r0, #1
 80082f4:	d102      	bne.n	80082fc <_fstat_r+0x1c>
 80082f6:	682b      	ldr	r3, [r5, #0]
 80082f8:	b103      	cbz	r3, 80082fc <_fstat_r+0x1c>
 80082fa:	6023      	str	r3, [r4, #0]
 80082fc:	bd38      	pop	{r3, r4, r5, pc}
 80082fe:	bf00      	nop
 8008300:	20003b08 	.word	0x20003b08

08008304 <_isatty_r>:
 8008304:	b538      	push	{r3, r4, r5, lr}
 8008306:	2300      	movs	r3, #0
 8008308:	4d05      	ldr	r5, [pc, #20]	@ (8008320 <_isatty_r+0x1c>)
 800830a:	4604      	mov	r4, r0
 800830c:	4608      	mov	r0, r1
 800830e:	602b      	str	r3, [r5, #0]
 8008310:	f7fb fc58 	bl	8003bc4 <_isatty>
 8008314:	1c43      	adds	r3, r0, #1
 8008316:	d102      	bne.n	800831e <_isatty_r+0x1a>
 8008318:	682b      	ldr	r3, [r5, #0]
 800831a:	b103      	cbz	r3, 800831e <_isatty_r+0x1a>
 800831c:	6023      	str	r3, [r4, #0]
 800831e:	bd38      	pop	{r3, r4, r5, pc}
 8008320:	20003b08 	.word	0x20003b08

08008324 <_kill_r>:
 8008324:	b538      	push	{r3, r4, r5, lr}
 8008326:	2300      	movs	r3, #0
 8008328:	4d06      	ldr	r5, [pc, #24]	@ (8008344 <_kill_r+0x20>)
 800832a:	4604      	mov	r4, r0
 800832c:	4608      	mov	r0, r1
 800832e:	4611      	mov	r1, r2
 8008330:	602b      	str	r3, [r5, #0]
 8008332:	f7fb fc21 	bl	8003b78 <_kill>
 8008336:	1c43      	adds	r3, r0, #1
 8008338:	d102      	bne.n	8008340 <_kill_r+0x1c>
 800833a:	682b      	ldr	r3, [r5, #0]
 800833c:	b103      	cbz	r3, 8008340 <_kill_r+0x1c>
 800833e:	6023      	str	r3, [r4, #0]
 8008340:	bd38      	pop	{r3, r4, r5, pc}
 8008342:	bf00      	nop
 8008344:	20003b08 	.word	0x20003b08

08008348 <_getpid_r>:
 8008348:	f7fb bc14 	b.w	8003b74 <_getpid>

0800834c <memchr>:
 800834c:	4603      	mov	r3, r0
 800834e:	b510      	push	{r4, lr}
 8008350:	b2c9      	uxtb	r1, r1
 8008352:	4402      	add	r2, r0
 8008354:	4293      	cmp	r3, r2
 8008356:	4618      	mov	r0, r3
 8008358:	d101      	bne.n	800835e <memchr+0x12>
 800835a:	2000      	movs	r0, #0
 800835c:	e003      	b.n	8008366 <memchr+0x1a>
 800835e:	7804      	ldrb	r4, [r0, #0]
 8008360:	3301      	adds	r3, #1
 8008362:	428c      	cmp	r4, r1
 8008364:	d1f6      	bne.n	8008354 <memchr+0x8>
 8008366:	bd10      	pop	{r4, pc}

08008368 <_realloc_r>:
 8008368:	e92d 41f0 	stmdb	sp!, {r4, r5, r6, r7, r8, lr}
 800836c:	4607      	mov	r7, r0
 800836e:	4614      	mov	r4, r2
 8008370:	460d      	mov	r5, r1
 8008372:	b921      	cbnz	r1, 800837e <_realloc_r+0x16>
 8008374:	4611      	mov	r1, r2
 8008376:	e8bd 41f0 	ldmia.w	sp!, {r4, r5, r6, r7, r8, lr}
 800837a:	f7fe be4f 	b.w	800701c <_malloc_r>
 800837e:	b92a      	cbnz	r2, 800838c <_realloc_r+0x24>
 8008380:	f7ff fa04 	bl	800778c <_free_r>
 8008384:	4625      	mov	r5, r4
 8008386:	4628      	mov	r0, r5
 8008388:	e8bd 81f0 	ldmia.w	sp!, {r4, r5, r6, r7, r8, pc}
 800838c:	f000 f81a 	bl	80083c4 <_malloc_usable_size_r>
 8008390:	4284      	cmp	r4, r0
 8008392:	4606      	mov	r6, r0
 8008394:	d802      	bhi.n	800839c <_realloc_r+0x34>
 8008396:	ebb4 0f50 	cmp.w	r4, r0, lsr #1
 800839a:	d8f4      	bhi.n	8008386 <_realloc_r+0x1e>
 800839c:	4621      	mov	r1, r4
 800839e:	4638      	mov	r0, r7
 80083a0:	f7fe fe3c 	bl	800701c <_malloc_r>
 80083a4:	4680      	mov	r8, r0
 80083a6:	b908      	cbnz	r0, 80083ac <_realloc_r+0x44>
 80083a8:	4645      	mov	r5, r8
 80083aa:	e7ec      	b.n	8008386 <_realloc_r+0x1e>
 80083ac:	42b4      	cmp	r4, r6
 80083ae:	4622      	mov	r2, r4
 80083b0:	4629      	mov	r1, r5
 80083b2:	bf28      	it	cs
 80083b4:	4632      	movcs	r2, r6
 80083b6:	f7ff f9d4 	bl	8007762 <memcpy>
 80083ba:	4629      	mov	r1, r5
 80083bc:	4638      	mov	r0, r7
 80083be:	f7ff f9e5 	bl	800778c <_free_r>
 80083c2:	e7f1      	b.n	80083a8 <_realloc_r+0x40>

080083c4 <_malloc_usable_size_r>:
 80083c4:	f851 3c04 	ldr.w	r3, [r1, #-4]
 80083c8:	1f18      	subs	r0, r3, #4
 80083ca:	2b00      	cmp	r3, #0
 80083cc:	bfbc      	itt	lt
 80083ce:	580b      	ldrlt	r3, [r1, r0]
 80083d0:	18c0      	addlt	r0, r0, r3
 80083d2:	4770      	bx	lr

080083d4 <_init>:
 80083d4:	b5f8      	push	{r3, r4, r5, r6, r7, lr}
 80083d6:	bf00      	nop
 80083d8:	bcf8      	pop	{r3, r4, r5, r6, r7}
 80083da:	bc08      	pop	{r3}
 80083dc:	469e      	mov	lr, r3
 80083de:	4770      	bx	lr

080083e0 <_fini>:
 80083e0:	b5f8      	push	{r3, r4, r5, r6, r7, lr}
 80083e2:	bf00      	nop
 80083e4:	bcf8      	pop	{r3, r4, r5, r6, r7}
 80083e6:	bc08      	pop	{r3}
 80083e8:	469e      	mov	lr, r3
 80083ea:	4770      	bx	lr
